

Microchip MPLAB XC8 Assembler V2.31 build 20201012212115 
                                                                                               Mon Sep 06 18:40:06 2021

Microchip MPLAB XC8 C Compiler v2.31 (Free license) build 20201012212115 Og1 
     1                           	processor	16F887
     2                           	pagewidth 120
     3                           	opt	flic
     4                           	psect	idataBANK1,global,class=CODE,delta=2,noexec
     5                           	psect	strings,global,class=STRING,delta=2,noexec
     6                           	psect	cinit,global,class=CODE,merge=1,delta=2
     7                           	psect	bssCOMMON,global,class=COMMON,space=1,delta=1,noexec
     8                           	psect	bssBANK0,global,class=BANK0,space=1,delta=1,noexec
     9                           	psect	bssBANK1,global,class=BANK1,space=1,delta=1,noexec
    10                           	psect	dataBANK1,global,class=BANK1,space=1,delta=1,noexec
    11                           	psect	clrtext,global,class=CODE,delta=2
    12                           	psect	cstackBANK1,global,class=BANK1,space=1,delta=1,noexec
    13                           	psect	cstackCOMMON,global,class=COMMON,space=1,delta=1,noexec
    14                           	psect	cstackBANK0,global,class=BANK0,space=1,delta=1,noexec
    15                           	psect	maintext,global,class=CODE,split=1,delta=2
    16                           	psect	text1,local,class=CODE,merge=1,delta=2
    17                           	psect	text2,local,class=CODE,merge=1,delta=2
    18                           	psect	text3,local,class=CODE,merge=1,delta=2,group=1
    19                           	psect	text4,local,class=CODE,merge=1,delta=2
    20                           	psect	text5,local,class=CODE,merge=1,delta=2
    21                           	psect	text6,local,class=CODE,merge=1,delta=2
    22                           	psect	text7,local,class=CODE,merge=1,delta=2,group=1
    23                           	psect	text8,local,class=CODE,merge=1,delta=2,group=1
    24                           	psect	text9,local,class=CODE,merge=1,delta=2,group=1
    25                           	psect	text10,local,class=CODE,merge=1,delta=2,group=1
    26                           	psect	text11,local,class=CODE,merge=1,delta=2,group=1
    27                           	psect	text12,local,class=CODE,merge=1,delta=2
    28                           	psect	text13,local,class=CODE,merge=1,delta=2
    29                           	psect	text14,local,class=CODE,merge=1,delta=2
    30                           	psect	text15,local,class=CODE,merge=1,delta=2
    31                           	psect	text16,local,class=CODE,merge=1,delta=2
    32                           	psect	text17,local,class=CODE,merge=1,delta=2
    33                           	psect	text18,local,class=CODE,merge=1,delta=2
    34                           	psect	text19,local,class=CODE,merge=1,delta=2
    35                           	psect	text20,local,class=CODE,merge=1,delta=2
    36                           	psect	text21,local,class=CODE,merge=1,delta=2
    37                           	psect	text22,local,class=CODE,merge=1,delta=2
    38                           	psect	text23,local,class=CODE,merge=1,delta=2
    39                           	psect	text24,local,class=CODE,merge=1,delta=2
    40                           	psect	text25,local,class=CODE,merge=1,delta=2
    41                           	psect	text26,local,class=CODE,merge=1,delta=2,group=1
    42                           	psect	text27,local,class=CODE,merge=1,delta=2
    43                           	psect	text28,local,class=CODE,merge=1,delta=2,group=1
    44                           	psect	text29,local,class=CODE,merge=1,delta=2
    45                           	psect	intentry,global,class=CODE,delta=2
    46                           	psect	config,global,abs,ovrld,class=CONFIG,space=4,delta=2,noexec
    47                           	psect	maintext_split_1,global,class=CODE,split=1,delta=2
    48                           	dabs	1,0x7E,2
    49  0000                     
    50                           ; Version 2.20
    51                           ; Generated 12/02/2020 GMT
    52                           ; 
    53                           ; Copyright © 2020, Microchip Technology Inc. and its subsidiaries ("Microchip")
    54                           ; All rights reserved.
    55                           ; 
    56                           ; This software is developed by Microchip Technology Inc. and its subsidiaries ("Microch
      +                          ip").
    57                           ; 
    58                           ; Redistribution and use in source and binary forms, with or without modification, are
    59                           ; permitted provided that the following conditions are met:
    60                           ; 
    61                           ;     1. Redistributions of source code must retain the above copyright notice, this lis
      +                          t of
    62                           ;        conditions and the following disclaimer.
    63                           ; 
    64                           ;     2. Redistributions in binary form must reproduce the above copyright notice, this 
      +                          list
    65                           ;        of conditions and the following disclaimer in the documentation and/or other
    66                           ;        materials provided with the distribution.
    67                           ; 
    68                           ;     3. Microchip's name may not be used to endorse or promote products derived from th
      +                          is
    69                           ;        software without specific prior written permission.
    70                           ; 
    71                           ; THIS SOFTWARE IS PROVIDED BY MICROCHIP "AS IS" AND ANY EXPRESS OR IMPLIED WARRANTIES,
    72                           ; INCLUDING, BUT NOT LIMITED TO, THE IMPLIED WARRANTIES OF MERCHANTABILITY AND FITNESS F
      +                          OR
    73                           ; PURPOSE ARE DISCLAIMED.  IN NO EVENT SHALL MICROCHIP BE LIABLE FOR ANY DIRECT, INDIREC
      +                          T,
    74                           ; INCIDENTAL, SPECIAL, EXEMPLARY, OR CONSEQUENTIAL DAMAGES (INCLUDING BUT NOT LIMITED TO
    75                           ; PROCUREMENT OF SUBSTITUTE GOODS OR SERVICES; LOSS OF USE, DATA OR PROFITS; OR BUSINESS
    76                           ; INTERRUPTION) HOWSOEVER CAUSED AND ON ANY THEORY OF LIABILITY, WHETHER IN CONTRACT, ST
      +                          RICT
    77                           ; LIABILITY, OR TORT (INCLUDING NEGLIGENCE OR OTHERWISE) ARISING IN ANY WAY OUT OF THE U
      +                          SE OF
    78                           ; THIS SOFTWARE, EVEN IF ADVISED OF THE POSSIBILITY OF SUCH DAMAGE.
    79                           ; 
    80                           ; 
    81                           ; Code-generator required, PIC16F887 Definitions
    82                           ; 
    83                           ; SFR Addresses
    84  0000                     	;# 
    85  0001                     	;# 
    86  0002                     	;# 
    87  0003                     	;# 
    88  0004                     	;# 
    89  0005                     	;# 
    90  0006                     	;# 
    91  0007                     	;# 
    92  0008                     	;# 
    93  0009                     	;# 
    94  000A                     	;# 
    95  000B                     	;# 
    96  000C                     	;# 
    97  000D                     	;# 
    98  000E                     	;# 
    99  000E                     	;# 
   100  000F                     	;# 
   101  0010                     	;# 
   102  0011                     	;# 
   103  0012                     	;# 
   104  0013                     	;# 
   105  0014                     	;# 
   106  0015                     	;# 
   107  0015                     	;# 
   108  0016                     	;# 
   109  0017                     	;# 
   110  0018                     	;# 
   111  0019                     	;# 
   112  001A                     	;# 
   113  001B                     	;# 
   114  001B                     	;# 
   115  001C                     	;# 
   116  001D                     	;# 
   117  001E                     	;# 
   118  001F                     	;# 
   119  0081                     	;# 
   120  0085                     	;# 
   121  0086                     	;# 
   122  0087                     	;# 
   123  0088                     	;# 
   124  0089                     	;# 
   125  008C                     	;# 
   126  008D                     	;# 
   127  008E                     	;# 
   128  008F                     	;# 
   129  0090                     	;# 
   130  0091                     	;# 
   131  0092                     	;# 
   132  0093                     	;# 
   133  0093                     	;# 
   134  0093                     	;# 
   135  0094                     	;# 
   136  0095                     	;# 
   137  0096                     	;# 
   138  0097                     	;# 
   139  0098                     	;# 
   140  0099                     	;# 
   141  009A                     	;# 
   142  009B                     	;# 
   143  009C                     	;# 
   144  009D                     	;# 
   145  009E                     	;# 
   146  009F                     	;# 
   147  0105                     	;# 
   148  0107                     	;# 
   149  0108                     	;# 
   150  0109                     	;# 
   151  010C                     	;# 
   152  010C                     	;# 
   153  010D                     	;# 
   154  010E                     	;# 
   155  010F                     	;# 
   156  0185                     	;# 
   157  0187                     	;# 
   158  0188                     	;# 
   159  0189                     	;# 
   160  018C                     	;# 
   161  018D                     	;# 
   162  0000                     	;# 
   163  0001                     	;# 
   164  0002                     	;# 
   165  0003                     	;# 
   166  0004                     	;# 
   167  0005                     	;# 
   168  0006                     	;# 
   169  0007                     	;# 
   170  0008                     	;# 
   171  0009                     	;# 
   172  000A                     	;# 
   173  000B                     	;# 
   174  000C                     	;# 
   175  000D                     	;# 
   176  000E                     	;# 
   177  000E                     	;# 
   178  000F                     	;# 
   179  0010                     	;# 
   180  0011                     	;# 
   181  0012                     	;# 
   182  0013                     	;# 
   183  0014                     	;# 
   184  0015                     	;# 
   185  0015                     	;# 
   186  0016                     	;# 
   187  0017                     	;# 
   188  0018                     	;# 
   189  0019                     	;# 
   190  001A                     	;# 
   191  001B                     	;# 
   192  001B                     	;# 
   193  001C                     	;# 
   194  001D                     	;# 
   195  001E                     	;# 
   196  001F                     	;# 
   197  0081                     	;# 
   198  0085                     	;# 
   199  0086                     	;# 
   200  0087                     	;# 
   201  0088                     	;# 
   202  0089                     	;# 
   203  008C                     	;# 
   204  008D                     	;# 
   205  008E                     	;# 
   206  008F                     	;# 
   207  0090                     	;# 
   208  0091                     	;# 
   209  0092                     	;# 
   210  0093                     	;# 
   211  0093                     	;# 
   212  0093                     	;# 
   213  0094                     	;# 
   214  0095                     	;# 
   215  0096                     	;# 
   216  0097                     	;# 
   217  0098                     	;# 
   218  0099                     	;# 
   219  009A                     	;# 
   220  009B                     	;# 
   221  009C                     	;# 
   222  009D                     	;# 
   223  009E                     	;# 
   224  009F                     	;# 
   225  0105                     	;# 
   226  0107                     	;# 
   227  0108                     	;# 
   228  0109                     	;# 
   229  010C                     	;# 
   230  010C                     	;# 
   231  010D                     	;# 
   232  010E                     	;# 
   233  010F                     	;# 
   234  0185                     	;# 
   235  0187                     	;# 
   236  0188                     	;# 
   237  0189                     	;# 
   238  018C                     	;# 
   239  018D                     	;# 
   240  0000                     	;# 
   241  0001                     	;# 
   242  0002                     	;# 
   243  0003                     	;# 
   244  0004                     	;# 
   245  0005                     	;# 
   246  0006                     	;# 
   247  0007                     	;# 
   248  0008                     	;# 
   249  0009                     	;# 
   250  000A                     	;# 
   251  000B                     	;# 
   252  000C                     	;# 
   253  000D                     	;# 
   254  000E                     	;# 
   255  000E                     	;# 
   256  000F                     	;# 
   257  0010                     	;# 
   258  0011                     	;# 
   259  0012                     	;# 
   260  0013                     	;# 
   261  0014                     	;# 
   262  0015                     	;# 
   263  0015                     	;# 
   264  0016                     	;# 
   265  0017                     	;# 
   266  0018                     	;# 
   267  0019                     	;# 
   268  001A                     	;# 
   269  001B                     	;# 
   270  001B                     	;# 
   271  001C                     	;# 
   272  001D                     	;# 
   273  001E                     	;# 
   274  001F                     	;# 
   275  0081                     	;# 
   276  0085                     	;# 
   277  0086                     	;# 
   278  0087                     	;# 
   279  0088                     	;# 
   280  0089                     	;# 
   281  008C                     	;# 
   282  008D                     	;# 
   283  008E                     	;# 
   284  008F                     	;# 
   285  0090                     	;# 
   286  0091                     	;# 
   287  0092                     	;# 
   288  0093                     	;# 
   289  0093                     	;# 
   290  0093                     	;# 
   291  0094                     	;# 
   292  0095                     	;# 
   293  0096                     	;# 
   294  0097                     	;# 
   295  0098                     	;# 
   296  0099                     	;# 
   297  009A                     	;# 
   298  009B                     	;# 
   299  009C                     	;# 
   300  009D                     	;# 
   301  009E                     	;# 
   302  009F                     	;# 
   303  0105                     	;# 
   304  0107                     	;# 
   305  0108                     	;# 
   306  0109                     	;# 
   307  010C                     	;# 
   308  010C                     	;# 
   309  010D                     	;# 
   310  010E                     	;# 
   311  010F                     	;# 
   312  0185                     	;# 
   313  0187                     	;# 
   314  0188                     	;# 
   315  0189                     	;# 
   316  018C                     	;# 
   317  018D                     	;# 
   318  0000                     	;# 
   319  0001                     	;# 
   320  0002                     	;# 
   321  0003                     	;# 
   322  0004                     	;# 
   323  0005                     	;# 
   324  0006                     	;# 
   325  0007                     	;# 
   326  0008                     	;# 
   327  0009                     	;# 
   328  000A                     	;# 
   329  000B                     	;# 
   330  000C                     	;# 
   331  000D                     	;# 
   332  000E                     	;# 
   333  000E                     	;# 
   334  000F                     	;# 
   335  0010                     	;# 
   336  0011                     	;# 
   337  0012                     	;# 
   338  0013                     	;# 
   339  0014                     	;# 
   340  0015                     	;# 
   341  0015                     	;# 
   342  0016                     	;# 
   343  0017                     	;# 
   344  0018                     	;# 
   345  0019                     	;# 
   346  001A                     	;# 
   347  001B                     	;# 
   348  001B                     	;# 
   349  001C                     	;# 
   350  001D                     	;# 
   351  001E                     	;# 
   352  001F                     	;# 
   353  0081                     	;# 
   354  0085                     	;# 
   355  0086                     	;# 
   356  0087                     	;# 
   357  0088                     	;# 
   358  0089                     	;# 
   359  008C                     	;# 
   360  008D                     	;# 
   361  008E                     	;# 
   362  008F                     	;# 
   363  0090                     	;# 
   364  0091                     	;# 
   365  0092                     	;# 
   366  0093                     	;# 
   367  0093                     	;# 
   368  0093                     	;# 
   369  0094                     	;# 
   370  0095                     	;# 
   371  0096                     	;# 
   372  0097                     	;# 
   373  0098                     	;# 
   374  0099                     	;# 
   375  009A                     	;# 
   376  009B                     	;# 
   377  009C                     	;# 
   378  009D                     	;# 
   379  009E                     	;# 
   380  009F                     	;# 
   381  0105                     	;# 
   382  0107                     	;# 
   383  0108                     	;# 
   384  0109                     	;# 
   385  010C                     	;# 
   386  010C                     	;# 
   387  010D                     	;# 
   388  010E                     	;# 
   389  010F                     	;# 
   390  0185                     	;# 
   391  0187                     	;# 
   392  0188                     	;# 
   393  0189                     	;# 
   394  018C                     	;# 
   395  018D                     	;# 
   396  0000                     	;# 
   397  0001                     	;# 
   398  0002                     	;# 
   399  0003                     	;# 
   400  0004                     	;# 
   401  0005                     	;# 
   402  0006                     	;# 
   403  0007                     	;# 
   404  0008                     	;# 
   405  0009                     	;# 
   406  000A                     	;# 
   407  000B                     	;# 
   408  000C                     	;# 
   409  000D                     	;# 
   410  000E                     	;# 
   411  000E                     	;# 
   412  000F                     	;# 
   413  0010                     	;# 
   414  0011                     	;# 
   415  0012                     	;# 
   416  0013                     	;# 
   417  0014                     	;# 
   418  0015                     	;# 
   419  0015                     	;# 
   420  0016                     	;# 
   421  0017                     	;# 
   422  0018                     	;# 
   423  0019                     	;# 
   424  001A                     	;# 
   425  001B                     	;# 
   426  001B                     	;# 
   427  001C                     	;# 
   428  001D                     	;# 
   429  001E                     	;# 
   430  001F                     	;# 
   431  0081                     	;# 
   432  0085                     	;# 
   433  0086                     	;# 
   434  0087                     	;# 
   435  0088                     	;# 
   436  0089                     	;# 
   437  008C                     	;# 
   438  008D                     	;# 
   439  008E                     	;# 
   440  008F                     	;# 
   441  0090                     	;# 
   442  0091                     	;# 
   443  0092                     	;# 
   444  0093                     	;# 
   445  0093                     	;# 
   446  0093                     	;# 
   447  0094                     	;# 
   448  0095                     	;# 
   449  0096                     	;# 
   450  0097                     	;# 
   451  0098                     	;# 
   452  0099                     	;# 
   453  009A                     	;# 
   454  009B                     	;# 
   455  009C                     	;# 
   456  009D                     	;# 
   457  009E                     	;# 
   458  009F                     	;# 
   459  0105                     	;# 
   460  0107                     	;# 
   461  0108                     	;# 
   462  0109                     	;# 
   463  010C                     	;# 
   464  010C                     	;# 
   465  010D                     	;# 
   466  010E                     	;# 
   467  010F                     	;# 
   468  0185                     	;# 
   469  0187                     	;# 
   470  0188                     	;# 
   471  0189                     	;# 
   472  018C                     	;# 
   473  018D                     	;# 
   474  0000                     	;# 
   475  0001                     	;# 
   476  0002                     	;# 
   477  0003                     	;# 
   478  0004                     	;# 
   479  0005                     	;# 
   480  0006                     	;# 
   481  0007                     	;# 
   482  0008                     	;# 
   483  0009                     	;# 
   484  000A                     	;# 
   485  000B                     	;# 
   486  000C                     	;# 
   487  000D                     	;# 
   488  000E                     	;# 
   489  000E                     	;# 
   490  000F                     	;# 
   491  0010                     	;# 
   492  0011                     	;# 
   493  0012                     	;# 
   494  0013                     	;# 
   495  0014                     	;# 
   496  0015                     	;# 
   497  0015                     	;# 
   498  0016                     	;# 
   499  0017                     	;# 
   500  0018                     	;# 
   501  0019                     	;# 
   502  001A                     	;# 
   503  001B                     	;# 
   504  001B                     	;# 
   505  001C                     	;# 
   506  001D                     	;# 
   507  001E                     	;# 
   508  001F                     	;# 
   509  0081                     	;# 
   510  0085                     	;# 
   511  0086                     	;# 
   512  0087                     	;# 
   513  0088                     	;# 
   514  0089                     	;# 
   515  008C                     	;# 
   516  008D                     	;# 
   517  008E                     	;# 
   518  008F                     	;# 
   519  0090                     	;# 
   520  0091                     	;# 
   521  0092                     	;# 
   522  0093                     	;# 
   523  0093                     	;# 
   524  0093                     	;# 
   525  0094                     	;# 
   526  0095                     	;# 
   527  0096                     	;# 
   528  0097                     	;# 
   529  0098                     	;# 
   530  0099                     	;# 
   531  009A                     	;# 
   532  009B                     	;# 
   533  009C                     	;# 
   534  009D                     	;# 
   535  009E                     	;# 
   536  009F                     	;# 
   537  0105                     	;# 
   538  0107                     	;# 
   539  0108                     	;# 
   540  0109                     	;# 
   541  010C                     	;# 
   542  010C                     	;# 
   543  010D                     	;# 
   544  010E                     	;# 
   545  010F                     	;# 
   546  0185                     	;# 
   547  0187                     	;# 
   548  0188                     	;# 
   549  0189                     	;# 
   550  018C                     	;# 
   551  018D                     	;# 
   552                           
   553                           	psect	idataBANK1
   554  07FC                     __pidataBANK1:
   555                           
   556                           ;initializer for _temp_nom
   557  07FC  341C               	retlw	28
   558  0019                     _TXREG	set	25
   559  0013                     _SSPBUF	set	19
   560  0014                     _SSPCON	set	20
   561  0010                     _T1CONbits	set	16
   562  0018                     _RCSTAbits	set	24
   563  000B                     _INTCONbits	set	11
   564  0008                     _PORTD	set	8
   565  0006                     _PORTB	set	6
   566  000E                     _TMR1L	set	14
   567  000F                     _TMR1H	set	15
   568  000C                     _PIR1bits	set	12
   569  001A                     _RCREG	set	26
   570  0049                     _RE1	set	73
   571  0047                     _RD7	set	71
   572  0046                     _RD6	set	70
   573  0045                     _RD5	set	69
   574  0044                     _RD4	set	68
   575  0043                     _RD3	set	67
   576  0042                     _RD2	set	66
   577  0041                     _RD1	set	65
   578  0040                     _RD0	set	64
   579  0064                     _TXIF	set	100
   580  0063                     _SSPIF	set	99
   581  005E                     _PEIE	set	94
   582  005F                     _GIE	set	95
   583  0048                     _RE0	set	72
   584  0031                     _RB1	set	49
   585  0065                     _RCIF	set	101
   586  0091                     _SSPCON2bits	set	145
   587  0087                     _TRISCbits	set	135
   588  0094                     _SSPSTAT	set	148
   589  0093                     _SSPADD	set	147
   590  0091                     _SSPCON2	set	145
   591  008C                     _PIE1bits	set	140
   592  0098                     _TXSTAbits	set	152
   593  0099                     _SPBRG	set	153
   594  009A                     _SPBRGH	set	154
   595  0088                     _TRISD	set	136
   596  0086                     _TRISB	set	134
   597  008F                     _OSCCONbits	set	143
   598  0463                     _SSPIE	set	1123
   599  043C                     _TRISC4	set	1084
   600  043B                     _TRISC3	set	1083
   601  04C2                     _BRGH	set	1218
   602  044A                     _TRISE2	set	1098
   603  0449                     _TRISE1	set	1097
   604  0448                     _TRISE0	set	1096
   605  0189                     _ANSELH	set	393
   606  0188                     _ANSEL	set	392
   607  0C3B                     _BRG16	set	3131
   608                           
   609                           	psect	strings
   610  1000                     __pstrings:
   611  1000                     stringtab:
   612  1000                     __stringtab:
   613  1000                     stringcode:	
   614                           ;	String table - string pointers are 1 byte each
   615                           
   616  1000                     stringdir:
   617  1000  3010               	movlw	high stringdir
   618  1001  008A               	movwf	10
   619  1002  0804               	movf	4,w
   620  1003  0A84               	incf	4,f
   621  1004  0782               	addwf	2,f
   622  1005                     __stringbase:
   623  1005  3400               	retlw	0
   624  1006                     __end_of__stringtab:
   625  1006                     STR_4:
   626  1006  3420               	retlw	32	;' '
   627  1007  3454               	retlw	84	;'T'
   628  1008  3431               	retlw	49	;'1'
   629  1009  3420               	retlw	32	;' '
   630  100A  3420               	retlw	32	;' '
   631  100B  3420               	retlw	32	;' '
   632  100C  3454               	retlw	84	;'T'
   633  100D  3432               	retlw	50	;'2'
   634  100E  3420               	retlw	32	;' '
   635  100F  3420               	retlw	32	;' '
   636  1010  3420               	retlw	32	;' '
   637  1011  344C               	retlw	76	;'L'
   638  1012  3431               	retlw	49	;'1'
   639  1013  3400               	retlw	0
   640  1014                     STR_1:
   641  1014  3420               	retlw	32	;' '
   642  1015  344C               	retlw	76	;'L'
   643  1016  3455               	retlw	85	;'U'
   644  1017  345A               	retlw	90	;'Z'
   645  1018  3432               	retlw	50	;'2'
   646  1019  3420               	retlw	32	;' '
   647  101A  3456               	retlw	86	;'V'
   648  101B  3452               	retlw	82	;'R'
   649  101C  3453               	retlw	83	;'S'
   650  101D  3400               	retlw	0
   651  101E                     STR_9:
   652  101E  340A               	retlw	10
   653  101F  340D               	retlw	13
   654  1020  3400               	retlw	0
   655  1021                     STR_3:
   656  1021  3425               	retlw	37	;'%'
   657  1022  3420               	retlw	32	;' '
   658  1023  3400               	retlw	0
   659  1024                     STR_6:
   660  1024  3443               	retlw	67	;'C'
   661  1025  3420               	retlw	32	;' '
   662  1026  3400               	retlw	0
   663  1027                     STR_8:
   664  1027  3425               	retlw	37	;'%'
   665  1028  3400               	retlw	0
   666  1022                     
   667                           	psect	cinit
   668  000F                     start_initialization:	
   669                           ; #config settings
   670                           
   671  000F                     __initialization:
   672                           
   673                           ; Initialize objects allocated to BANK1
   674  000F  1683               	bsf	3,5	;RP0=1, select bank1
   675  0010  1303               	bcf	3,6	;RP1=0, select bank1
   676  0011  120A  118A  27FC  120A  118A  	fcall	__pidataBANK1	;fetch initializer
   677  0016  00B2               	movwf	__pdataBANK1& (0+127)
   678                           
   679                           ; Clear objects allocated to BANK1
   680  0017  1383               	bcf	3,7	;select IRP bank0
   681  0018  30A0               	movlw	low __pbssBANK1
   682  0019  0084               	movwf	4
   683  001A  30AD               	movlw	low (__pbssBANK1+13)
   684  001B  160A  118A  23C4  120A  118A  	fcall	clear_ram0
   685                           
   686                           ; Clear objects allocated to BANK0
   687  0020  3063               	movlw	low __pbssBANK0
   688  0021  0084               	movwf	4
   689  0022  306F               	movlw	low (__pbssBANK0+12)
   690  0023  160A  118A  23C4  120A  118A  	fcall	clear_ram0
   691                           
   692                           ; Clear objects allocated to COMMON
   693  0028  01F8               	clrf	__pbssCOMMON& (0+127)
   694  0029  01F9               	clrf	(__pbssCOMMON+1)& (0+127)
   695  002A  01FA               	clrf	(__pbssCOMMON+2)& (0+127)
   696  002B                     end_of_initialization:	
   697                           ;End of C runtime variable initialization code
   698                           
   699  002B                     __end_of__initialization:
   700  002B  0183               	clrf	3
   701  002C  120A  118A  282F   	ljmp	_main	;jump to C main() function
   702                           
   703                           	psect	bssCOMMON
   704  0078                     __pbssCOMMON:
   705  0078                     _bandera_resistencia:
   706  0078                     	ds	1
   707  0079                     _bandera_ventilador:
   708  0079                     	ds	1
   709  007A                     _contador_serial:
   710  007A                     	ds	1
   711                           
   712                           	psect	bssBANK0
   713  0063                     __pbssBANK0:
   714  0063                     _bandera_serial:
   715  0063                     	ds	1
   716  0064                     _bandera_lcd1:
   717  0064                     	ds	1
   718  0065                     _bandera_lcd:
   719  0065                     	ds	1
   720  0066                     _contador_lcd:
   721  0066                     	ds	1
   722  0067                     _temp_luz2:
   723  0067                     	ds	1
   724  0068                     _temp_luz1:
   725  0068                     	ds	1
   726  0069                     _temp_temp2:
   727  0069                     	ds	1
   728  006A                     _temp_temp1:
   729  006A                     	ds	1
   730  006B                     _luz2:
   731  006B                     	ds	1
   732  006C                     _luz1:
   733  006C                     	ds	1
   734  006D                     _temperatura2:
   735  006D                     	ds	1
   736  006E                     _temperatura1:
   737  006E                     	ds	1
   738                           
   739                           	psect	bssBANK1
   740  00A0                     __pbssBANK1:
   741  00A0                     _temperatura_aht:
   742  00A0                     	ds	2
   743  00A2                     _humedad_aht:
   744  00A2                     	ds	2
   745  00A4                     _temp_bmp:
   746  00A4                     	ds	1
   747  00A5                     _BMP2:
   748  00A5                     	ds	1
   749  00A6                     _BMP1:
   750  00A6                     	ds	1
   751  00A7                     _contador_timer1:
   752  00A7                     	ds	1
   753  00A8                     _bandera_info:
   754  00A8                     	ds	1
   755  00A9                     _contador_info:
   756  00A9                     	ds	1
   757  00AA                     _bandera_extra:
   758  00AA                     	ds	1
   759  00AB                     _bandera_servo:
   760  00AB                     	ds	1
   761  00AC                     _Entrada:
   762  00AC                     	ds	1
   763                           
   764                           	psect	dataBANK1
   765  00B2                     __pdataBANK1:
   766  00B2                     _temp_nom:
   767  00B2                     	ds	1
   768                           
   769                           	psect	clrtext
   770  13C4                     clear_ram0:	
   771                           ;	Called with FSR containing the base address, and
   772                           ;	W with the last address+1
   773                           
   774  13C4  0064               	clrwdt	;clear the watchdog before getting into this loop
   775  13C5                     clrloop0:
   776  13C5  0180               	clrf	0	;clear RAM location pointed to by FSR
   777  13C6  0A84               	incf	4,f	;increment pointer
   778  13C7  0604               	xorwf	4,w	;XOR with final address
   779  13C8  1903               	btfsc	3,2	;have we reached the end yet?
   780  13C9  3400               	retlw	0	;all done for this memory range, return
   781  13CA  0604               	xorwf	4,w	;XOR again to restore value
   782  13CB  2BC5               	goto	clrloop0	;do the next byte
   783                           
   784                           	psect	cstackBANK1
   785  00AD                     __pcstackBANK1:
   786  00AD                     ??_main:
   787                           
   788                           ; 1 bytes @ 0x0
   789  00AD                     	ds	5
   790                           
   791                           	psect	cstackCOMMON
   792  0070                     __pcstackCOMMON:
   793  0070                     ?_setup:
   794  0070                     ?_Lcd_Init:	
   795                           ; 1 bytes @ 0x0
   796                           
   797  0070                     ?_Lcd_Cmd:	
   798                           ; 1 bytes @ 0x0
   799                           
   800  0070                     ?_I2C_Master_Start:	
   801                           ; 1 bytes @ 0x0
   802                           
   803  0070                     ?_I2C_Master_Stop:	
   804                           ; 1 bytes @ 0x0
   805                           
   806  0070                     ?_Lcd_Clear:	
   807                           ; 1 bytes @ 0x0
   808                           
   809  0070                     ?_Lcd_Write_String:	
   810                           ; 1 bytes @ 0x0
   811                           
   812  0070                     ?_Lcd_Write_Char:	
   813                           ; 1 bytes @ 0x0
   814                           
   815  0070                     ?_enviar_letra:	
   816                           ; 1 bytes @ 0x0
   817                           
   818  0070                     ?_print:	
   819                           ; 1 bytes @ 0x0
   820                           
   821  0070                     ?_isr:	
   822                           ; 1 bytes @ 0x0
   823                           
   824  0070                     ??_isr:	
   825                           ; 1 bytes @ 0x0
   826                           
   827  0070                     ?_main:	
   828                           ; 1 bytes @ 0x0
   829                           
   830  0070                     ?_I2C_Master_Wait:	
   831                           ; 1 bytes @ 0x0
   832                           
   833  0070                     ?_Lcd_Port:	
   834                           ; 1 bytes @ 0x0
   835                           
   836                           
   837                           ; 1 bytes @ 0x0
   838  0070                     	ds	3
   839  0073                     ??_I2C_Master_Start:
   840  0073                     ?_I2C_Master_Write:	
   841                           ; 1 bytes @ 0x3
   842                           
   843  0073                     ??_I2C_Master_Stop:	
   844                           ; 1 bytes @ 0x3
   845                           
   846  0073                     ??_enviar_letra:	
   847                           ; 1 bytes @ 0x3
   848                           
   849  0073                     ??_print:	
   850                           ; 1 bytes @ 0x3
   851                           
   852  0073                     ??_I2C_Master_Wait:	
   853                           ; 1 bytes @ 0x3
   854                           
   855  0073                     ??_Lcd_Port:	
   856                           ; 1 bytes @ 0x3
   857                           
   858  0073                     ??___lldiv:	
   859                           ; 1 bytes @ 0x3
   860                           
   861  0073                     ?_I2C_Master_Read:	
   862                           ; 1 bytes @ 0x3
   863                           
   864  0073                     ?__Umul8_16:	
   865                           ; 2 bytes @ 0x3
   866                           
   867  0073                     ?___awdiv:	
   868                           ; 2 bytes @ 0x3
   869                           
   870  0073                     ?___awmod:	
   871                           ; 2 bytes @ 0x3
   872                           
   873  0073                     ?___xxtofl:	
   874                           ; 2 bytes @ 0x3
   875                           
   876  0073                     enviar_letra@letra:	
   877                           ; 4 bytes @ 0x3
   878                           
   879  0073                     Lcd_Port@a:	
   880                           ; 1 bytes @ 0x3
   881                           
   882  0073                     __Umul8_16@multiplicand:	
   883                           ; 1 bytes @ 0x3
   884                           
   885  0073                     I2C_Master_Write@d:	
   886                           ; 1 bytes @ 0x3
   887                           
   888  0073                     I2C_Master_Read@a:	
   889                           ; 2 bytes @ 0x3
   890                           
   891  0073                     ___awdiv@divisor:	
   892                           ; 2 bytes @ 0x3
   893                           
   894  0073                     ___awmod@divisor:	
   895                           ; 2 bytes @ 0x3
   896                           
   897  0073                     ___xxtofl@val:	
   898                           ; 2 bytes @ 0x3
   899                           
   900                           
   901                           ; 4 bytes @ 0x3
   902  0073                     	ds	1
   903  0074                     ??_Lcd_Cmd:
   904  0074                     ??_Lcd_Write_Char:	
   905                           ; 1 bytes @ 0x4
   906                           
   907  0074                     ??_I2C_Master_Init:	
   908                           ; 1 bytes @ 0x4
   909                           
   910  0074                     print@palabra:	
   911                           ; 1 bytes @ 0x4
   912                           
   913                           
   914                           ; 1 bytes @ 0x4
   915  0074                     	ds	1
   916  0075                     ??_I2C_Master_Write:
   917  0075                     ??_I2C_Master_Read:	
   918                           ; 1 bytes @ 0x5
   919                           
   920  0075                     ??__Umul8_16:	
   921                           ; 1 bytes @ 0x5
   922                           
   923  0075                     Lcd_Write_Char@a:	
   924                           ; 1 bytes @ 0x5
   925                           
   926  0075                     ___awdiv@dividend:	
   927                           ; 1 bytes @ 0x5
   928                           
   929  0075                     ___awmod@dividend:	
   930                           ; 2 bytes @ 0x5
   931                           
   932                           
   933                           ; 2 bytes @ 0x5
   934  0075                     	ds	1
   935  0076                     Lcd_Cmd@a:
   936  0076                     Lcd_Write_Char@y:	
   937                           ; 1 bytes @ 0x6
   938                           
   939                           
   940                           ; 1 bytes @ 0x6
   941  0076                     	ds	1
   942  0077                     ??_Lcd_Clear:
   943  0077                     ?_Lcd_Set_Cursor:	
   944                           ; 1 bytes @ 0x7
   945                           
   946  0077                     ??_Lcd_Write_String:	
   947                           ; 1 bytes @ 0x7
   948                           
   949  0077                     ??___awdiv:	
   950                           ; 1 bytes @ 0x7
   951                           
   952  0077                     ??___awmod:	
   953                           ; 1 bytes @ 0x7
   954                           
   955  0077                     Lcd_Set_Cursor@b:	
   956                           ; 1 bytes @ 0x7
   957                           
   958                           
   959                           ; 1 bytes @ 0x7
   960  0077                     	ds	1
   961  0078                     ??_setup:
   962  0078                     ??_int_string:	
   963                           ; 1 bytes @ 0x8
   964                           
   965  0078                     ??_BTD_CENTENA:	
   966                           ; 1 bytes @ 0x8
   967                           
   968  0078                     ??_BTD_DECIMAL:	
   969                           ; 1 bytes @ 0x8
   970                           
   971  0078                     ??_BTD_UNIDAD:	
   972                           ; 1 bytes @ 0x8
   973                           
   974                           
   975                           	psect	cstackBANK0
   976  0020                     __pcstackBANK0:	
   977                           ; 1 bytes @ 0x8
   978                           
   979  0020                     ??_Lcd_Init:
   980  0020                     ??_Lcd_Set_Cursor:	
   981                           ; 1 bytes @ 0x0
   982                           
   983  0020                     ??___xxtofl:	
   984                           ; 1 bytes @ 0x0
   985                           
   986  0020                     ?___lldiv:	
   987                           ; 1 bytes @ 0x0
   988                           
   989  0020                     ___awdiv@counter:	
   990                           ; 4 bytes @ 0x0
   991                           
   992  0020                     ___awmod@counter:	
   993                           ; 1 bytes @ 0x0
   994                           
   995  0020                     I2C_Master_Read@temp:	
   996                           ; 1 bytes @ 0x0
   997                           
   998  0020                     Lcd_Write_String@i:	
   999                           ; 2 bytes @ 0x0
  1000                           
  1001  0020                     __Umul8_16@product:	
  1002                           ; 2 bytes @ 0x0
  1003                           
  1004  0020                     ___lldiv@divisor:	
  1005                           ; 2 bytes @ 0x0
  1006                           
  1007                           
  1008                           ; 4 bytes @ 0x0
  1009  0020                     	ds	1
  1010  0021                     Lcd_Set_Cursor@a:
  1011  0021                     ___awdiv@sign:	
  1012                           ; 1 bytes @ 0x1
  1013                           
  1014  0021                     ___awmod@sign:	
  1015                           ; 1 bytes @ 0x1
  1016                           
  1017                           
  1018                           ; 1 bytes @ 0x1
  1019  0021                     	ds	1
  1020  0022                     ?_BTD_UNIDAD:
  1021  0022                     Lcd_Set_Cursor@temp:	
  1022                           ; 2 bytes @ 0x2
  1023                           
  1024  0022                     Lcd_Write_String@a:	
  1025                           ; 1 bytes @ 0x2
  1026                           
  1027  0022                     BTD_UNIDAD@valor2:	
  1028                           ; 1 bytes @ 0x2
  1029                           
  1030  0022                     ___awdiv@quotient:	
  1031                           ; 2 bytes @ 0x2
  1032                           
  1033  0022                     __Umul8_16@word_mpld:	
  1034                           ; 2 bytes @ 0x2
  1035                           
  1036                           
  1037                           ; 2 bytes @ 0x2
  1038  0022                     	ds	2
  1039  0024                     ?_BTD_CENTENA:
  1040  0024                     ?_BTD_DECIMAL:	
  1041                           ; 2 bytes @ 0x4
  1042                           
  1043  0024                     __Umul8_16@multiplier:	
  1044                           ; 2 bytes @ 0x4
  1045                           
  1046  0024                     ___xxtofl@sign:	
  1047                           ; 1 bytes @ 0x4
  1048                           
  1049  0024                     BTD_CENTENA@valor:	
  1050                           ; 1 bytes @ 0x4
  1051                           
  1052  0024                     BTD_DECIMAL@valor1:	
  1053                           ; 2 bytes @ 0x4
  1054                           
  1055  0024                     BTD_UNIDAD@temporal2:	
  1056                           ; 2 bytes @ 0x4
  1057                           
  1058  0024                     ___lldiv@dividend:	
  1059                           ; 2 bytes @ 0x4
  1060                           
  1061                           
  1062                           ; 4 bytes @ 0x4
  1063  0024                     	ds	1
  1064  0025                     ___xxtofl@exp:
  1065                           
  1066                           ; 1 bytes @ 0x5
  1067  0025                     	ds	1
  1068  0026                     BTD_CENTENA@salida:
  1069  0026                     BTD_DECIMAL@temporal1:	
  1070                           ; 2 bytes @ 0x6
  1071                           
  1072  0026                     BTD_UNIDAD@salida2:	
  1073                           ; 2 bytes @ 0x6
  1074                           
  1075  0026                     ___xxtofl@arg:	
  1076                           ; 2 bytes @ 0x6
  1077                           
  1078                           
  1079                           ; 4 bytes @ 0x6
  1080  0026                     	ds	2
  1081  0028                     BTD_DECIMAL@salida1:
  1082  0028                     ___lldiv@quotient:	
  1083                           ; 2 bytes @ 0x8
  1084                           
  1085                           
  1086                           ; 4 bytes @ 0x8
  1087  0028                     	ds	2
  1088  002A                     ?_int_string:
  1089  002A                     ?___flmul:	
  1090                           ; 2 bytes @ 0xA
  1091                           
  1092  002A                     int_string@valor:	
  1093                           ; 4 bytes @ 0xA
  1094                           
  1095  002A                     ___flmul@b:	
  1096                           ; 2 bytes @ 0xA
  1097                           
  1098                           
  1099                           ; 4 bytes @ 0xA
  1100  002A                     	ds	2
  1101  002C                     ___lldiv@counter:
  1102                           
  1103                           ; 1 bytes @ 0xC
  1104  002C                     	ds	1
  1105  002D                     ?_I2C_Master_Init:
  1106  002D                     I2C_Master_Init@c:	
  1107                           ; 1 bytes @ 0xD
  1108                           
  1109                           
  1110                           ; 4 bytes @ 0xD
  1111  002D                     	ds	1
  1112  002E                     ___flmul@a:
  1113                           
  1114                           ; 4 bytes @ 0xE
  1115  002E                     	ds	4
  1116  0032                     ??___flmul:
  1117                           
  1118                           ; 1 bytes @ 0x12
  1119  0032                     	ds	5
  1120  0037                     ___flmul@sign:
  1121                           
  1122                           ; 1 bytes @ 0x17
  1123  0037                     	ds	1
  1124  0038                     ___flmul@grs:
  1125                           
  1126                           ; 4 bytes @ 0x18
  1127  0038                     	ds	4
  1128  003C                     ___flmul@aexp:
  1129                           
  1130                           ; 1 bytes @ 0x1C
  1131  003C                     	ds	1
  1132  003D                     ___flmul@bexp:
  1133                           
  1134                           ; 1 bytes @ 0x1D
  1135  003D                     	ds	1
  1136  003E                     ___flmul@prod:
  1137                           
  1138                           ; 4 bytes @ 0x1E
  1139  003E                     	ds	4
  1140  0042                     ___flmul@temp:
  1141                           
  1142                           ; 2 bytes @ 0x22
  1143  0042                     	ds	2
  1144  0044                     ?___fladd:
  1145  0044                     ___fladd@b:	
  1146                           ; 4 bytes @ 0x24
  1147                           
  1148                           
  1149                           ; 4 bytes @ 0x24
  1150  0044                     	ds	4
  1151  0048                     ___fladd@a:
  1152                           
  1153                           ; 4 bytes @ 0x28
  1154  0048                     	ds	4
  1155  004C                     ??___fladd:
  1156                           
  1157                           ; 1 bytes @ 0x2C
  1158  004C                     	ds	8
  1159  0054                     ___fladd@signs:
  1160                           
  1161                           ; 1 bytes @ 0x34
  1162  0054                     	ds	1
  1163  0055                     ___fladd@aexp:
  1164                           
  1165                           ; 1 bytes @ 0x35
  1166  0055                     	ds	1
  1167  0056                     ___fladd@bexp:
  1168                           
  1169                           ; 1 bytes @ 0x36
  1170  0056                     	ds	1
  1171  0057                     ___fladd@grs:
  1172                           
  1173                           ; 1 bytes @ 0x37
  1174  0057                     	ds	1
  1175  0058                     ?___fltol:
  1176  0058                     ___fltol@f1:	
  1177                           ; 4 bytes @ 0x38
  1178                           
  1179                           
  1180                           ; 4 bytes @ 0x38
  1181  0058                     	ds	4
  1182  005C                     ??___fltol:
  1183                           
  1184                           ; 1 bytes @ 0x3C
  1185  005C                     	ds	5
  1186  0061                     ___fltol@sign1:
  1187                           
  1188                           ; 1 bytes @ 0x41
  1189  0061                     	ds	1
  1190  0062                     ___fltol@exp1:
  1191                           
  1192                           ; 1 bytes @ 0x42
  1193  0062                     	ds	1
  1194                           
  1195                           	psect	maintext
  1196  002F                     __pmaintext:	
  1197 ;;
  1198 ;;Main: autosize = 0, tempsize = 5, incstack = 0, save=0
  1199 ;;
  1200 ;; *************** function _main *****************
  1201 ;; Defined at:
  1202 ;;		line 133 in file "MAINMASTER.c"
  1203 ;; Parameters:    Size  Location     Type
  1204 ;;		None
  1205 ;; Auto vars:     Size  Location     Type
  1206 ;;		None
  1207 ;; Return value:  Size  Location     Type
  1208 ;;                  1    wreg      void 
  1209 ;; Registers used:
  1210 ;;		wreg, fsr0l, fsr0h, status,2, status,0, btemp+1, pclath, cstack
  1211 ;; Tracked objects:
  1212 ;;		On entry : B00/0
  1213 ;;		On exit  : 0/0
  1214 ;;		Unchanged: 0/0
  1215 ;; Data sizes:     COMMON   BANK0   BANK1   BANK3   BANK2
  1216 ;;      Params:         0       0       0       0       0
  1217 ;;      Locals:         0       0       0       0       0
  1218 ;;      Temps:          0       0       5       0       0
  1219 ;;      Totals:         0       0       5       0       0
  1220 ;;Total ram usage:        5 bytes
  1221 ;; Hardware stack levels required when called:    4
  1222 ;; This function calls:
  1223 ;;		_BTD_CENTENA
  1224 ;;		_BTD_DECIMAL
  1225 ;;		_BTD_UNIDAD
  1226 ;;		_I2C_Master_Read
  1227 ;;		_I2C_Master_Start
  1228 ;;		_I2C_Master_Stop
  1229 ;;		_I2C_Master_Write
  1230 ;;		_Lcd_Clear
  1231 ;;		_Lcd_Cmd
  1232 ;;		_Lcd_Init
  1233 ;;		_Lcd_Set_Cursor
  1234 ;;		_Lcd_Write_Char
  1235 ;;		_Lcd_Write_String
  1236 ;;		___fladd
  1237 ;;		___flmul
  1238 ;;		___fltol
  1239 ;;		___xxtofl
  1240 ;;		_enviar_letra
  1241 ;;		_int_string
  1242 ;;		_print
  1243 ;;		_setup
  1244 ;; This function is called by:
  1245 ;;		Startup code after reset
  1246 ;; This function uses a non-reentrant model
  1247 ;;
  1248                           
  1249                           
  1250                           ;psect for function _main
  1251  002F                     _main:
  1252  002F                     l3405:	
  1253                           ;incstack = 0
  1254                           ; Regs used in _main: [wreg-fsr0h+status,2+status,0+btemp+1+pclath+cstack]
  1255                           
  1256                           
  1257                           ;MAINMASTER.c: 135:     setup();
  1258  002F  120A  158A  204C  120A  118A  	fcall	_setup
  1259  0034                     l3407:
  1260                           
  1261                           ;MAINMASTER.c: 136:     contador_lcd = 0;
  1262  0034  1283               	bcf	3,5	;RP0=0, select bank0
  1263  0035  1303               	bcf	3,6	;RP1=0, select bank0
  1264  0036  01E6               	clrf	_contador_lcd
  1265  0037                     l3409:
  1266                           
  1267                           ;MAINMASTER.c: 137:     contador_serial = 0;
  1268  0037  01FA               	clrf	_contador_serial
  1269  0038                     l3411:
  1270                           
  1271                           ;MAINMASTER.c: 138:     bandera_lcd = 0;
  1272  0038  01E5               	clrf	_bandera_lcd
  1273  0039                     l3413:
  1274                           
  1275                           ;MAINMASTER.c: 139:     bandera_serial = 0;
  1276  0039  01E3               	clrf	_bandera_serial
  1277  003A                     l3415:
  1278                           
  1279                           ;MAINMASTER.c: 141:     contador_info = 0;
  1280  003A  1683               	bsf	3,5	;RP0=1, select bank1
  1281  003B  1303               	bcf	3,6	;RP1=0, select bank1
  1282  003C  01A9               	clrf	_contador_info^(0+128)
  1283  003D                     l3417:
  1284                           
  1285                           ;MAINMASTER.c: 230:     Lcd_Init();
  1286  003D  120A  158A  209B  120A  118A  	fcall	_Lcd_Init
  1287  0042                     l3419:
  1288                           
  1289                           ;MAINMASTER.c: 231:     Lcd_Cmd(0x0f);
  1290  0042  300F               	movlw	15
  1291  0043  160A  118A  2419  120A  118A  	fcall	_Lcd_Cmd
  1292  0048                     l3421:
  1293                           
  1294                           ;MAINMASTER.c: 233:     {;MAINMASTER.c: 235:         temperatura1 = (temp_temp1 * (0.705
      +                          8)) - 68;
  1295  0048  1283               	bcf	3,5	;RP0=0, select bank0
  1296  0049  1303               	bcf	3,6	;RP1=0, select bank0
  1297  004A  086A               	movf	_temp_temp1,w
  1298  004B  1683               	bsf	3,5	;RP0=1, select bank1
  1299  004C  1303               	bcf	3,6	;RP1=0, select bank1
  1300  004D  00AD               	movwf	??_main^(0+128)
  1301  004E  01AE               	clrf	(??_main^(0+128)+1)
  1302  004F  01AF               	clrf	(??_main^(0+128)+2)
  1303  0050  01B0               	clrf	(??_main^(0+128)+3)
  1304  0051  0830               	movf	(??_main+3)^(0+128),w
  1305  0052  00F6               	movwf	___xxtofl@val+3
  1306  0053  082F               	movf	(??_main+2)^(0+128),w
  1307  0054  00F5               	movwf	___xxtofl@val+2
  1308  0055  082E               	movf	(??_main+1)^(0+128),w
  1309  0056  00F4               	movwf	___xxtofl@val+1
  1310  0057  082D               	movf	??_main^(0+128),w
  1311  0058  00F3               	movwf	___xxtofl@val
  1312  0059  3001               	movlw	1
  1313  005A  120A  118A  25B5  120A  118A  	fcall	___xxtofl
  1314  005F  0876               	movf	?___xxtofl+3,w
  1315  0060  1283               	bcf	3,5	;RP0=0, select bank0
  1316  0061  1303               	bcf	3,6	;RP1=0, select bank0
  1317  0062  00B1               	movwf	___flmul@a+3
  1318  0063  0875               	movf	?___xxtofl+2,w
  1319  0064  00B0               	movwf	___flmul@a+2
  1320  0065  0874               	movf	?___xxtofl+1,w
  1321  0066  00AF               	movwf	___flmul@a+1
  1322  0067  0873               	movf	?___xxtofl,w
  1323  0068  00AE               	movwf	___flmul@a
  1324  0069  303F               	movlw	63
  1325  006A  00AD               	movwf	___flmul@b+3
  1326  006B  3034               	movlw	52
  1327  006C  00AC               	movwf	___flmul@b+2
  1328  006D  30AF               	movlw	175
  1329  006E  00AB               	movwf	___flmul@b+1
  1330  006F  304F               	movlw	79
  1331  0070  00AA               	movwf	___flmul@b
  1332  0071  120A  158A  249F  120A  118A  	fcall	___flmul
  1333  0076  1283               	bcf	3,5	;RP0=0, select bank0
  1334  0077  1303               	bcf	3,6	;RP1=0, select bank0
  1335  0078  082D               	movf	?___flmul+3,w
  1336  0079  00CB               	movwf	___fladd@a+3
  1337  007A  082C               	movf	?___flmul+2,w
  1338  007B  00CA               	movwf	___fladd@a+2
  1339  007C  082B               	movf	?___flmul+1,w
  1340  007D  00C9               	movwf	___fladd@a+1
  1341  007E  082A               	movf	?___flmul,w
  1342  007F  00C8               	movwf	___fladd@a
  1343  0080  30C2               	movlw	194
  1344  0081  00C7               	movwf	___fladd@b+3
  1345  0082  3088               	movlw	136
  1346  0083  00C6               	movwf	___fladd@b+2
  1347  0084  3000               	movlw	0
  1348  0085  00C5               	movwf	___fladd@b+1
  1349  0086  3000               	movlw	0
  1350  0087  00C4               	movwf	___fladd@b
  1351  0088  160A  118A  2578  120A  118A  	fcall	___fladd
  1352  008D  1283               	bcf	3,5	;RP0=0, select bank0
  1353  008E  1303               	bcf	3,6	;RP1=0, select bank0
  1354  008F  0847               	movf	?___fladd+3,w
  1355  0090  00DB               	movwf	___fltol@f1+3
  1356  0091  0846               	movf	?___fladd+2,w
  1357  0092  00DA               	movwf	___fltol@f1+2
  1358  0093  0845               	movf	?___fladd+1,w
  1359  0094  00D9               	movwf	___fltol@f1+1
  1360  0095  0844               	movf	?___fladd,w
  1361  0096  00D8               	movwf	___fltol@f1
  1362  0097  120A  118A  2671  120A  118A  	fcall	___fltol
  1363  009C  1283               	bcf	3,5	;RP0=0, select bank0
  1364  009D  1303               	bcf	3,6	;RP1=0, select bank0
  1365  009E  0858               	movf	?___fltol,w
  1366  009F  1683               	bsf	3,5	;RP0=1, select bank1
  1367  00A0  1303               	bcf	3,6	;RP1=0, select bank1
  1368  00A1  00B1               	movwf	(??_main+4)^(0+128)
  1369  00A2  0831               	movf	(??_main+4)^(0+128),w
  1370  00A3  1283               	bcf	3,5	;RP0=0, select bank0
  1371  00A4  1303               	bcf	3,6	;RP1=0, select bank0
  1372  00A5  00EE               	movwf	_temperatura1
  1373  00A6                     l3423:
  1374                           
  1375                           ;MAINMASTER.c: 236:         temperatura2 = (temp_temp2 * (0.7058)) - 68;
  1376  00A6  0869               	movf	_temp_temp2,w
  1377  00A7  1683               	bsf	3,5	;RP0=1, select bank1
  1378  00A8  1303               	bcf	3,6	;RP1=0, select bank1
  1379  00A9  00AD               	movwf	??_main^(0+128)
  1380  00AA  01AE               	clrf	(??_main^(0+128)+1)
  1381  00AB  01AF               	clrf	(??_main^(0+128)+2)
  1382  00AC  01B0               	clrf	(??_main^(0+128)+3)
  1383  00AD  0830               	movf	(??_main+3)^(0+128),w
  1384  00AE  00F6               	movwf	___xxtofl@val+3
  1385  00AF  082F               	movf	(??_main+2)^(0+128),w
  1386  00B0  00F5               	movwf	___xxtofl@val+2
  1387  00B1  082E               	movf	(??_main+1)^(0+128),w
  1388  00B2  00F4               	movwf	___xxtofl@val+1
  1389  00B3  082D               	movf	??_main^(0+128),w
  1390  00B4  00F3               	movwf	___xxtofl@val
  1391  00B5  3001               	movlw	1
  1392  00B6  120A  118A  25B5  120A  118A  	fcall	___xxtofl
  1393  00BB  0876               	movf	?___xxtofl+3,w
  1394  00BC  1283               	bcf	3,5	;RP0=0, select bank0
  1395  00BD  1303               	bcf	3,6	;RP1=0, select bank0
  1396  00BE  00B1               	movwf	___flmul@a+3
  1397  00BF  0875               	movf	?___xxtofl+2,w
  1398  00C0  00B0               	movwf	___flmul@a+2
  1399  00C1  0874               	movf	?___xxtofl+1,w
  1400  00C2  00AF               	movwf	___flmul@a+1
  1401  00C3  0873               	movf	?___xxtofl,w
  1402  00C4  00AE               	movwf	___flmul@a
  1403  00C5  303F               	movlw	63
  1404  00C6  00AD               	movwf	___flmul@b+3
  1405  00C7  3034               	movlw	52
  1406  00C8  00AC               	movwf	___flmul@b+2
  1407  00C9  30AF               	movlw	175
  1408  00CA  00AB               	movwf	___flmul@b+1
  1409  00CB  304F               	movlw	79
  1410  00CC  00AA               	movwf	___flmul@b
  1411  00CD  120A  158A  249F  120A  118A  	fcall	___flmul
  1412  00D2  1283               	bcf	3,5	;RP0=0, select bank0
  1413  00D3  1303               	bcf	3,6	;RP1=0, select bank0
  1414  00D4  082D               	movf	?___flmul+3,w
  1415  00D5  00CB               	movwf	___fladd@a+3
  1416  00D6  082C               	movf	?___flmul+2,w
  1417  00D7  00CA               	movwf	___fladd@a+2
  1418  00D8  082B               	movf	?___flmul+1,w
  1419  00D9  00C9               	movwf	___fladd@a+1
  1420  00DA  082A               	movf	?___flmul,w
  1421  00DB  00C8               	movwf	___fladd@a
  1422  00DC  30C2               	movlw	194
  1423  00DD  00C7               	movwf	___fladd@b+3
  1424  00DE  3088               	movlw	136
  1425  00DF  00C6               	movwf	___fladd@b+2
  1426  00E0  3000               	movlw	0
  1427  00E1  00C5               	movwf	___fladd@b+1
  1428  00E2  3000               	movlw	0
  1429  00E3  00C4               	movwf	___fladd@b
  1430  00E4  160A  118A  2578  120A  118A  	fcall	___fladd
  1431  00E9  1283               	bcf	3,5	;RP0=0, select bank0
  1432  00EA  1303               	bcf	3,6	;RP1=0, select bank0
  1433  00EB  0847               	movf	?___fladd+3,w
  1434  00EC  00DB               	movwf	___fltol@f1+3
  1435  00ED  0846               	movf	?___fladd+2,w
  1436  00EE  00DA               	movwf	___fltol@f1+2
  1437  00EF  0845               	movf	?___fladd+1,w
  1438  00F0  00D9               	movwf	___fltol@f1+1
  1439  00F1  0844               	movf	?___fladd,w
  1440  00F2  00D8               	movwf	___fltol@f1
  1441  00F3  120A  118A  2671  120A  118A  	fcall	___fltol
  1442  00F8  1283               	bcf	3,5	;RP0=0, select bank0
  1443  00F9  1303               	bcf	3,6	;RP1=0, select bank0
  1444  00FA  0858               	movf	?___fltol,w
  1445  00FB  1683               	bsf	3,5	;RP0=1, select bank1
  1446  00FC  1303               	bcf	3,6	;RP1=0, select bank1
  1447  00FD  00B1               	movwf	(??_main+4)^(0+128)
  1448  00FE  0831               	movf	(??_main+4)^(0+128),w
  1449  00FF  1283               	bcf	3,5	;RP0=0, select bank0
  1450  0100  1303               	bcf	3,6	;RP1=0, select bank0
  1451  0101  00ED               	movwf	_temperatura2
  1452  0102                     l3425:
  1453                           
  1454                           ;MAINMASTER.c: 237:         luz1 = (temp_luz1 * (0.3921)) + 1;
  1455  0102  0868               	movf	_temp_luz1,w
  1456  0103  1683               	bsf	3,5	;RP0=1, select bank1
  1457  0104  1303               	bcf	3,6	;RP1=0, select bank1
  1458  0105  00AD               	movwf	??_main^(0+128)
  1459  0106  01AE               	clrf	(??_main^(0+128)+1)
  1460  0107  01AF               	clrf	(??_main^(0+128)+2)
  1461  0108  01B0               	clrf	(??_main^(0+128)+3)
  1462  0109  0830               	movf	(??_main+3)^(0+128),w
  1463  010A  00F6               	movwf	___xxtofl@val+3
  1464  010B  082F               	movf	(??_main+2)^(0+128),w
  1465  010C  00F5               	movwf	___xxtofl@val+2
  1466  010D  082E               	movf	(??_main+1)^(0+128),w
  1467  010E  00F4               	movwf	___xxtofl@val+1
  1468  010F  082D               	movf	??_main^(0+128),w
  1469  0110  00F3               	movwf	___xxtofl@val
  1470  0111  3001               	movlw	1
  1471  0112  120A  118A  25B5  120A  118A  	fcall	___xxtofl
  1472  0117  0876               	movf	?___xxtofl+3,w
  1473  0118  1283               	bcf	3,5	;RP0=0, select bank0
  1474  0119  1303               	bcf	3,6	;RP1=0, select bank0
  1475  011A  00B1               	movwf	___flmul@a+3
  1476  011B  0875               	movf	?___xxtofl+2,w
  1477  011C  00B0               	movwf	___flmul@a+2
  1478  011D  0874               	movf	?___xxtofl+1,w
  1479  011E  00AF               	movwf	___flmul@a+1
  1480  011F  0873               	movf	?___xxtofl,w
  1481  0120  00AE               	movwf	___flmul@a
  1482  0121  303E               	movlw	62
  1483  0122  00AD               	movwf	___flmul@b+3
  1484  0123  30C8               	movlw	200
  1485  0124  00AC               	movwf	___flmul@b+2
  1486  0125  30C1               	movlw	193
  1487  0126  00AB               	movwf	___flmul@b+1
  1488  0127  3055               	movlw	85
  1489  0128  00AA               	movwf	___flmul@b
  1490  0129  120A  158A  249F  120A  118A  	fcall	___flmul
  1491  012E  1283               	bcf	3,5	;RP0=0, select bank0
  1492  012F  1303               	bcf	3,6	;RP1=0, select bank0
  1493  0130  082D               	movf	?___flmul+3,w
  1494  0131  00CB               	movwf	___fladd@a+3
  1495  0132  082C               	movf	?___flmul+2,w
  1496  0133  00CA               	movwf	___fladd@a+2
  1497  0134  082B               	movf	?___flmul+1,w
  1498  0135  00C9               	movwf	___fladd@a+1
  1499  0136  082A               	movf	?___flmul,w
  1500  0137  00C8               	movwf	___fladd@a
  1501  0138  303F               	movlw	63
  1502  0139  00C7               	movwf	___fladd@b+3
  1503  013A  3080               	movlw	128
  1504  013B  00C6               	movwf	___fladd@b+2
  1505  013C  3000               	movlw	0
  1506  013D  00C5               	movwf	___fladd@b+1
  1507  013E  3000               	movlw	0
  1508  013F  00C4               	movwf	___fladd@b
  1509  0140  160A  118A  2578  120A  118A  	fcall	___fladd
  1510  0145  1283               	bcf	3,5	;RP0=0, select bank0
  1511  0146  1303               	bcf	3,6	;RP1=0, select bank0
  1512  0147  0847               	movf	?___fladd+3,w
  1513  0148  00DB               	movwf	___fltol@f1+3
  1514  0149  0846               	movf	?___fladd+2,w
  1515  014A  00DA               	movwf	___fltol@f1+2
  1516  014B  0845               	movf	?___fladd+1,w
  1517  014C  00D9               	movwf	___fltol@f1+1
  1518  014D  0844               	movf	?___fladd,w
  1519  014E  00D8               	movwf	___fltol@f1
  1520  014F  120A  118A  2671  120A  118A  	fcall	___fltol
  1521  0154  1283               	bcf	3,5	;RP0=0, select bank0
  1522  0155  1303               	bcf	3,6	;RP1=0, select bank0
  1523  0156  0858               	movf	?___fltol,w
  1524  0157  1683               	bsf	3,5	;RP0=1, select bank1
  1525  0158  1303               	bcf	3,6	;RP1=0, select bank1
  1526  0159  00B1               	movwf	(??_main+4)^(0+128)
  1527  015A  0831               	movf	(??_main+4)^(0+128),w
  1528  015B  1283               	bcf	3,5	;RP0=0, select bank0
  1529  015C  1303               	bcf	3,6	;RP1=0, select bank0
  1530  015D  00EC               	movwf	_luz1
  1531  015E                     l3427:
  1532                           
  1533                           ;MAINMASTER.c: 238:         luz2 = (temp_luz2 * (0.3921)) + 1;
  1534  015E  0867               	movf	_temp_luz2,w
  1535  015F  1683               	bsf	3,5	;RP0=1, select bank1
  1536  0160  1303               	bcf	3,6	;RP1=0, select bank1
  1537  0161  00AD               	movwf	??_main^(0+128)
  1538  0162  01AE               	clrf	(??_main^(0+128)+1)
  1539  0163  01AF               	clrf	(??_main^(0+128)+2)
  1540  0164  01B0               	clrf	(??_main^(0+128)+3)
  1541  0165  0830               	movf	(??_main+3)^(0+128),w
  1542  0166  00F6               	movwf	___xxtofl@val+3
  1543  0167  082F               	movf	(??_main+2)^(0+128),w
  1544  0168  00F5               	movwf	___xxtofl@val+2
  1545  0169  082E               	movf	(??_main+1)^(0+128),w
  1546  016A  00F4               	movwf	___xxtofl@val+1
  1547  016B  082D               	movf	??_main^(0+128),w
  1548  016C  00F3               	movwf	___xxtofl@val
  1549  016D  3001               	movlw	1
  1550  016E  120A  118A  25B5  120A  118A  	fcall	___xxtofl
  1551  0173  0876               	movf	?___xxtofl+3,w
  1552  0174  1283               	bcf	3,5	;RP0=0, select bank0
  1553  0175  1303               	bcf	3,6	;RP1=0, select bank0
  1554  0176  00B1               	movwf	___flmul@a+3
  1555  0177  0875               	movf	?___xxtofl+2,w
  1556  0178  00B0               	movwf	___flmul@a+2
  1557  0179  0874               	movf	?___xxtofl+1,w
  1558  017A  00AF               	movwf	___flmul@a+1
  1559  017B  0873               	movf	?___xxtofl,w
  1560  017C  00AE               	movwf	___flmul@a
  1561  017D  303E               	movlw	62
  1562  017E  00AD               	movwf	___flmul@b+3
  1563  017F  30C8               	movlw	200
  1564  0180  00AC               	movwf	___flmul@b+2
  1565  0181  30C1               	movlw	193
  1566  0182  00AB               	movwf	___flmul@b+1
  1567  0183  3055               	movlw	85
  1568  0184  00AA               	movwf	___flmul@b
  1569  0185  120A  158A  249F  120A  118A  	fcall	___flmul
  1570  018A  1283               	bcf	3,5	;RP0=0, select bank0
  1571  018B  1303               	bcf	3,6	;RP1=0, select bank0
  1572  018C  082D               	movf	?___flmul+3,w
  1573  018D  00CB               	movwf	___fladd@a+3
  1574  018E  082C               	movf	?___flmul+2,w
  1575  018F  00CA               	movwf	___fladd@a+2
  1576  0190  082B               	movf	?___flmul+1,w
  1577  0191  00C9               	movwf	___fladd@a+1
  1578  0192  082A               	movf	?___flmul,w
  1579  0193  00C8               	movwf	___fladd@a
  1580  0194  303F               	movlw	63
  1581  0195  00C7               	movwf	___fladd@b+3
  1582  0196  3080               	movlw	128
  1583  0197  00C6               	movwf	___fladd@b+2
  1584  0198  3000               	movlw	0
  1585  0199  00C5               	movwf	___fladd@b+1
  1586  019A  3000               	movlw	0
  1587  019B  00C4               	movwf	___fladd@b
  1588  019C  160A  118A  2578  120A  118A  	fcall	___fladd
  1589  01A1  1283               	bcf	3,5	;RP0=0, select bank0
  1590  01A2  1303               	bcf	3,6	;RP1=0, select bank0
  1591  01A3  0847               	movf	?___fladd+3,w
  1592  01A4  00DB               	movwf	___fltol@f1+3
  1593  01A5  0846               	movf	?___fladd+2,w
  1594  01A6  00DA               	movwf	___fltol@f1+2
  1595  01A7  0845               	movf	?___fladd+1,w
  1596  01A8  00D9               	movwf	___fltol@f1+1
  1597  01A9  0844               	movf	?___fladd,w
  1598  01AA  00D8               	movwf	___fltol@f1
  1599  01AB  120A  118A  2671  120A  118A  	fcall	___fltol
  1600  01B0  1283               	bcf	3,5	;RP0=0, select bank0
  1601  01B1  1303               	bcf	3,6	;RP1=0, select bank0
  1602  01B2  0858               	movf	?___fltol,w
  1603  01B3  1683               	bsf	3,5	;RP0=1, select bank1
  1604  01B4  1303               	bcf	3,6	;RP1=0, select bank1
  1605  01B5  00B1               	movwf	(??_main+4)^(0+128)
  1606  01B6  0831               	movf	(??_main+4)^(0+128),w
  1607  01B7  1283               	bcf	3,5	;RP0=0, select bank0
  1608  01B8  1303               	bcf	3,6	;RP1=0, select bank0
  1609  01B9  00EB               	movwf	_luz2
  1610  01BA                     l3429:
  1611                           
  1612                           ;MAINMASTER.c: 240:         if (bandera_info) {
  1613  01BA  1683               	bsf	3,5	;RP0=1, select bank1
  1614  01BB  1303               	bcf	3,6	;RP1=0, select bank1
  1615  01BC  0828               	movf	_bandera_info^(0+128),w
  1616  01BD  1903               	btfsc	3,2
  1617  01BE  29C0               	goto	u3911
  1618  01BF  29C1               	goto	u3910
  1619  01C0                     u3911:
  1620  01C0  2B38               	goto	l3483
  1621  01C1                     u3910:
  1622  01C1                     l3431:
  1623                           
  1624                           ;MAINMASTER.c: 243:             I2C_Master_Start();
  1625  01C1  160A  118A  23CC  120A  118A  	fcall	_I2C_Master_Start
  1626                           
  1627                           ;MAINMASTER.c: 244:             I2C_Master_Write(0x50);
  1628  01C6  3050               	movlw	80
  1629  01C7  00F3               	movwf	I2C_Master_Write@d
  1630  01C8  3000               	movlw	0
  1631  01C9  00F4               	movwf	I2C_Master_Write@d+1
  1632  01CA  160A  118A  23DE  120A  118A  	fcall	_I2C_Master_Write
  1633                           
  1634                           ;MAINMASTER.c: 245:             I2C_Master_Write(0b10000000);
  1635  01CF  3080               	movlw	128
  1636  01D0  00F3               	movwf	I2C_Master_Write@d
  1637  01D1  3000               	movlw	0
  1638  01D2  00F4               	movwf	I2C_Master_Write@d+1
  1639  01D3  160A  118A  23DE  120A  118A  	fcall	_I2C_Master_Write
  1640                           
  1641                           ;MAINMASTER.c: 246:             I2C_Master_Stop();
  1642  01D8  160A  118A  23D5  120A  118A  	fcall	_I2C_Master_Stop
  1643  01DD                     l3433:
  1644                           
  1645                           ;MAINMASTER.c: 247:             _delay((unsigned long)((200)*(8000000/4000.0)));
  1646  01DD  3003               	movlw	3
  1647  01DE  1683               	bsf	3,5	;RP0=1, select bank1
  1648  01DF  1303               	bcf	3,6	;RP1=0, select bank1
  1649  01E0  00AF               	movwf	(??_main^(0+128)+2)
  1650  01E1  3008               	movlw	8
  1651  01E2  00AE               	movwf	(??_main^(0+128)+1)
  1652  01E3  3076               	movlw	118
  1653  01E4  00AD               	movwf	??_main^(0+128)
  1654  01E5                     u4007:
  1655  01E5  0BAD               	decfsz	??_main^(0+128),f
  1656  01E6  29E5               	goto	u4007
  1657  01E7  0BAE               	decfsz	(??_main^(0+128)+1),f
  1658  01E8  29E5               	goto	u4007
  1659  01E9  0BAF               	decfsz	(??_main^(0+128)+2),f
  1660  01EA  29E5               	goto	u4007
  1661  01EB  0000               	nop
  1662  01EC                     l3435:
  1663                           
  1664                           ;MAINMASTER.c: 249:             I2C_Master_Start();
  1665  01EC  160A  118A  23CC  120A  118A  	fcall	_I2C_Master_Start
  1666  01F1                     l3437:
  1667                           
  1668                           ;MAINMASTER.c: 250:             I2C_Master_Write(0x51);
  1669  01F1  3051               	movlw	81
  1670  01F2  00F3               	movwf	I2C_Master_Write@d
  1671  01F3  3000               	movlw	0
  1672  01F4  00F4               	movwf	I2C_Master_Write@d+1
  1673  01F5  160A  118A  23DE  120A  118A  	fcall	_I2C_Master_Write
  1674  01FA                     l3439:
  1675                           
  1676                           ;MAINMASTER.c: 251:             temp_temp1 = I2C_Master_Read(0);
  1677  01FA  3000               	movlw	0
  1678  01FB  00F3               	movwf	I2C_Master_Read@a
  1679  01FC  00F4               	movwf	I2C_Master_Read@a+1
  1680  01FD  160A  118A  2540  120A  118A  	fcall	_I2C_Master_Read
  1681  0202  0873               	movf	?_I2C_Master_Read,w
  1682  0203  1683               	bsf	3,5	;RP0=1, select bank1
  1683  0204  1303               	bcf	3,6	;RP1=0, select bank1
  1684  0205  00AD               	movwf	??_main^(0+128)
  1685  0206  082D               	movf	??_main^(0+128),w
  1686  0207  1283               	bcf	3,5	;RP0=0, select bank0
  1687  0208  1303               	bcf	3,6	;RP1=0, select bank0
  1688  0209  00EA               	movwf	_temp_temp1
  1689  020A                     l3441:
  1690                           
  1691                           ;MAINMASTER.c: 252:             I2C_Master_Stop();
  1692  020A  160A  118A  23D5  120A  118A  	fcall	_I2C_Master_Stop
  1693  020F                     l3443:
  1694                           
  1695                           ;MAINMASTER.c: 253:             _delay((unsigned long)((200)*(8000000/4000.0)));
  1696  020F  3003               	movlw	3
  1697  0210  1683               	bsf	3,5	;RP0=1, select bank1
  1698  0211  1303               	bcf	3,6	;RP1=0, select bank1
  1699  0212  00AF               	movwf	(??_main^(0+128)+2)
  1700  0213  3008               	movlw	8
  1701  0214  00AE               	movwf	(??_main^(0+128)+1)
  1702  0215  3076               	movlw	118
  1703  0216  00AD               	movwf	??_main^(0+128)
  1704  0217                     u4017:
  1705  0217  0BAD               	decfsz	??_main^(0+128),f
  1706  0218  2A17               	goto	u4017
  1707  0219  0BAE               	decfsz	(??_main^(0+128)+1),f
  1708  021A  2A17               	goto	u4017
  1709  021B  0BAF               	decfsz	(??_main^(0+128)+2),f
  1710  021C  2A17               	goto	u4017
  1711  021D  0000               	nop
  1712                           
  1713                           ;MAINMASTER.c: 255:             I2C_Master_Start();
  1714  021E  160A  118A  23CC  120A  118A  	fcall	_I2C_Master_Start
  1715                           
  1716                           ;MAINMASTER.c: 256:             I2C_Master_Write(0x50);
  1717  0223  3050               	movlw	80
  1718  0224  00F3               	movwf	I2C_Master_Write@d
  1719  0225  3000               	movlw	0
  1720  0226  00F4               	movwf	I2C_Master_Write@d+1
  1721  0227  160A  118A  23DE  120A  118A  	fcall	_I2C_Master_Write
  1722                           
  1723                           ;MAINMASTER.c: 257:             I2C_Master_Write(0b01000000);
  1724  022C  3040               	movlw	64
  1725  022D  00F3               	movwf	I2C_Master_Write@d
  1726  022E  3000               	movlw	0
  1727  022F  00F4               	movwf	I2C_Master_Write@d+1
  1728  0230  160A  118A  23DE  120A  118A  	fcall	_I2C_Master_Write
  1729                           
  1730                           ;MAINMASTER.c: 258:             I2C_Master_Stop();
  1731  0235  160A  118A  23D5  120A  118A  	fcall	_I2C_Master_Stop
  1732  023A                     l3445:
  1733                           
  1734                           ;MAINMASTER.c: 259:             _delay((unsigned long)((200)*(8000000/4000.0)));
  1735  023A  3003               	movlw	3
  1736  023B  1683               	bsf	3,5	;RP0=1, select bank1
  1737  023C  1303               	bcf	3,6	;RP1=0, select bank1
  1738  023D  00AF               	movwf	(??_main^(0+128)+2)
  1739  023E  3008               	movlw	8
  1740  023F  00AE               	movwf	(??_main^(0+128)+1)
  1741  0240  3076               	movlw	118
  1742  0241  00AD               	movwf	??_main^(0+128)
  1743  0242                     u4027:
  1744  0242  0BAD               	decfsz	??_main^(0+128),f
  1745  0243  2A42               	goto	u4027
  1746  0244  0BAE               	decfsz	(??_main^(0+128)+1),f
  1747  0245  2A42               	goto	u4027
  1748  0246  0BAF               	decfsz	(??_main^(0+128)+2),f
  1749  0247  2A42               	goto	u4027
  1750  0248  0000               	nop
  1751  0249                     l3447:
  1752                           
  1753                           ;MAINMASTER.c: 261:             I2C_Master_Start();
  1754  0249  160A  118A  23CC  120A  118A  	fcall	_I2C_Master_Start
  1755  024E                     l3449:
  1756                           
  1757                           ;MAINMASTER.c: 262:             I2C_Master_Write(0x51);
  1758  024E  3051               	movlw	81
  1759  024F  00F3               	movwf	I2C_Master_Write@d
  1760  0250  3000               	movlw	0
  1761  0251  00F4               	movwf	I2C_Master_Write@d+1
  1762  0252  160A  118A  23DE  120A  118A  	fcall	_I2C_Master_Write
  1763  0257                     l3451:
  1764                           
  1765                           ;MAINMASTER.c: 263:             temp_temp2 = I2C_Master_Read(0);
  1766  0257  3000               	movlw	0
  1767  0258  00F3               	movwf	I2C_Master_Read@a
  1768  0259  00F4               	movwf	I2C_Master_Read@a+1
  1769  025A  160A  118A  2540  120A  118A  	fcall	_I2C_Master_Read
  1770  025F  0873               	movf	?_I2C_Master_Read,w
  1771  0260  1683               	bsf	3,5	;RP0=1, select bank1
  1772  0261  1303               	bcf	3,6	;RP1=0, select bank1
  1773  0262  00AD               	movwf	??_main^(0+128)
  1774  0263  082D               	movf	??_main^(0+128),w
  1775  0264  1283               	bcf	3,5	;RP0=0, select bank0
  1776  0265  1303               	bcf	3,6	;RP1=0, select bank0
  1777  0266  00E9               	movwf	_temp_temp2
  1778  0267                     l3453:
  1779                           
  1780                           ;MAINMASTER.c: 264:             I2C_Master_Stop();
  1781  0267  160A  118A  23D5  120A  118A  	fcall	_I2C_Master_Stop
  1782  026C                     l3455:
  1783                           
  1784                           ;MAINMASTER.c: 265:             _delay((unsigned long)((200)*(8000000/4000.0)));
  1785  026C  3003               	movlw	3
  1786  026D  1683               	bsf	3,5	;RP0=1, select bank1
  1787  026E  1303               	bcf	3,6	;RP1=0, select bank1
  1788  026F  00AF               	movwf	(??_main^(0+128)+2)
  1789  0270  3008               	movlw	8
  1790  0271  00AE               	movwf	(??_main^(0+128)+1)
  1791  0272  3076               	movlw	118
  1792  0273  00AD               	movwf	??_main^(0+128)
  1793  0274                     u4037:
  1794  0274  0BAD               	decfsz	??_main^(0+128),f
  1795  0275  2A74               	goto	u4037
  1796  0276  0BAE               	decfsz	(??_main^(0+128)+1),f
  1797  0277  2A74               	goto	u4037
  1798  0278  0BAF               	decfsz	(??_main^(0+128)+2),f
  1799  0279  2A74               	goto	u4037
  1800  027A  0000               	nop
  1801                           
  1802                           ;MAINMASTER.c: 267:             I2C_Master_Start();
  1803  027B  160A  118A  23CC  120A  118A  	fcall	_I2C_Master_Start
  1804                           
  1805                           ;MAINMASTER.c: 268:             I2C_Master_Write(0x50);
  1806  0280  3050               	movlw	80
  1807  0281  00F3               	movwf	I2C_Master_Write@d
  1808  0282  3000               	movlw	0
  1809  0283  00F4               	movwf	I2C_Master_Write@d+1
  1810  0284  160A  118A  23DE  120A  118A  	fcall	_I2C_Master_Write
  1811                           
  1812                           ;MAINMASTER.c: 269:             I2C_Master_Write(0b11000000);
  1813  0289  30C0               	movlw	192
  1814  028A  00F3               	movwf	I2C_Master_Write@d
  1815  028B  3000               	movlw	0
  1816  028C  00F4               	movwf	I2C_Master_Write@d+1
  1817  028D  160A  118A  23DE  120A  118A  	fcall	_I2C_Master_Write
  1818                           
  1819                           ;MAINMASTER.c: 270:             I2C_Master_Stop();
  1820  0292  160A  118A  23D5  120A  118A  	fcall	_I2C_Master_Stop
  1821  0297                     l3457:
  1822                           
  1823                           ;MAINMASTER.c: 271:             _delay((unsigned long)((200)*(8000000/4000.0)));
  1824  0297  3003               	movlw	3
  1825  0298  1683               	bsf	3,5	;RP0=1, select bank1
  1826  0299  1303               	bcf	3,6	;RP1=0, select bank1
  1827  029A  00AF               	movwf	(??_main^(0+128)+2)
  1828  029B  3008               	movlw	8
  1829  029C  00AE               	movwf	(??_main^(0+128)+1)
  1830  029D  3076               	movlw	118
  1831  029E  00AD               	movwf	??_main^(0+128)
  1832  029F                     u4047:
  1833  029F  0BAD               	decfsz	??_main^(0+128),f
  1834  02A0  2A9F               	goto	u4047
  1835  02A1  0BAE               	decfsz	(??_main^(0+128)+1),f
  1836  02A2  2A9F               	goto	u4047
  1837  02A3  0BAF               	decfsz	(??_main^(0+128)+2),f
  1838  02A4  2A9F               	goto	u4047
  1839  02A5  0000               	nop
  1840  02A6                     l3459:
  1841                           
  1842                           ;MAINMASTER.c: 273:             I2C_Master_Start();
  1843  02A6  160A  118A  23CC  120A  118A  	fcall	_I2C_Master_Start
  1844  02AB                     l3461:
  1845                           
  1846                           ;MAINMASTER.c: 274:             I2C_Master_Write(0x51);
  1847  02AB  3051               	movlw	81
  1848  02AC  00F3               	movwf	I2C_Master_Write@d
  1849  02AD  3000               	movlw	0
  1850  02AE  00F4               	movwf	I2C_Master_Write@d+1
  1851  02AF  160A  118A  23DE  120A  118A  	fcall	_I2C_Master_Write
  1852  02B4                     l3463:
  1853                           
  1854                           ;MAINMASTER.c: 275:             temp_luz1 = I2C_Master_Read(0);
  1855  02B4  3000               	movlw	0
  1856  02B5  00F3               	movwf	I2C_Master_Read@a
  1857  02B6  00F4               	movwf	I2C_Master_Read@a+1
  1858  02B7  160A  118A  2540  120A  118A  	fcall	_I2C_Master_Read
  1859  02BC  0873               	movf	?_I2C_Master_Read,w
  1860  02BD  1683               	bsf	3,5	;RP0=1, select bank1
  1861  02BE  1303               	bcf	3,6	;RP1=0, select bank1
  1862  02BF  00AD               	movwf	??_main^(0+128)
  1863  02C0  082D               	movf	??_main^(0+128),w
  1864  02C1  1283               	bcf	3,5	;RP0=0, select bank0
  1865  02C2  1303               	bcf	3,6	;RP1=0, select bank0
  1866  02C3  00E8               	movwf	_temp_luz1
  1867  02C4                     l3465:
  1868                           
  1869                           ;MAINMASTER.c: 276:             I2C_Master_Stop();
  1870  02C4  160A  118A  23D5  120A  118A  	fcall	_I2C_Master_Stop
  1871  02C9                     l3467:
  1872                           
  1873                           ;MAINMASTER.c: 277:             _delay((unsigned long)((200)*(8000000/4000.0)));
  1874  02C9  3003               	movlw	3
  1875  02CA  1683               	bsf	3,5	;RP0=1, select bank1
  1876  02CB  1303               	bcf	3,6	;RP1=0, select bank1
  1877  02CC  00AF               	movwf	(??_main^(0+128)+2)
  1878  02CD  3008               	movlw	8
  1879  02CE  00AE               	movwf	(??_main^(0+128)+1)
  1880  02CF  3076               	movlw	118
  1881  02D0  00AD               	movwf	??_main^(0+128)
  1882  02D1                     u4057:
  1883  02D1  0BAD               	decfsz	??_main^(0+128),f
  1884  02D2  2AD1               	goto	u4057
  1885  02D3  0BAE               	decfsz	(??_main^(0+128)+1),f
  1886  02D4  2AD1               	goto	u4057
  1887  02D5  0BAF               	decfsz	(??_main^(0+128)+2),f
  1888  02D6  2AD1               	goto	u4057
  1889  02D7  0000               	nop
  1890                           
  1891                           ;MAINMASTER.c: 279:             I2C_Master_Start();
  1892  02D8  160A  118A  23CC  120A  118A  	fcall	_I2C_Master_Start
  1893                           
  1894                           ;MAINMASTER.c: 280:             I2C_Master_Write(0x50);
  1895  02DD  3050               	movlw	80
  1896  02DE  00F3               	movwf	I2C_Master_Write@d
  1897  02DF  3000               	movlw	0
  1898  02E0  00F4               	movwf	I2C_Master_Write@d+1
  1899  02E1  160A  118A  23DE  120A  118A  	fcall	_I2C_Master_Write
  1900                           
  1901                           ;MAINMASTER.c: 281:             I2C_Master_Write(0b00100000);
  1902  02E6  3020               	movlw	32
  1903  02E7  00F3               	movwf	I2C_Master_Write@d
  1904  02E8  3000               	movlw	0
  1905  02E9  00F4               	movwf	I2C_Master_Write@d+1
  1906  02EA  160A  118A  23DE  120A  118A  	fcall	_I2C_Master_Write
  1907                           
  1908                           ;MAINMASTER.c: 282:             I2C_Master_Stop();
  1909  02EF  160A  118A  23D5  120A  118A  	fcall	_I2C_Master_Stop
  1910  02F4                     l3469:
  1911                           
  1912                           ;MAINMASTER.c: 283:             _delay((unsigned long)((200)*(8000000/4000.0)));
  1913  02F4  3003               	movlw	3
  1914  02F5  1683               	bsf	3,5	;RP0=1, select bank1
  1915  02F6  1303               	bcf	3,6	;RP1=0, select bank1
  1916  02F7  00AF               	movwf	(??_main^(0+128)+2)
  1917  02F8  3008               	movlw	8
  1918  02F9  00AE               	movwf	(??_main^(0+128)+1)
  1919  02FA  3076               	movlw	118
  1920  02FB  00AD               	movwf	??_main^(0+128)
  1921  02FC                     u4067:
  1922  02FC  0BAD               	decfsz	??_main^(0+128),f
  1923  02FD  2AFC               	goto	u4067
  1924  02FE  0BAE               	decfsz	(??_main^(0+128)+1),f
  1925  02FF  2AFC               	goto	u4067
  1926  0300  0BAF               	decfsz	(??_main^(0+128)+2),f
  1927  0301  2AFC               	goto	u4067
  1928  0302  0000               	nop
  1929  0303                     l3471:
  1930                           
  1931                           ;MAINMASTER.c: 285:             I2C_Master_Start();
  1932  0303  160A  118A  23CC  120A  118A  	fcall	_I2C_Master_Start
  1933  0308                     l3473:
  1934                           
  1935                           ;MAINMASTER.c: 286:             I2C_Master_Write(0x51);
  1936  0308  3051               	movlw	81
  1937  0309  00F3               	movwf	I2C_Master_Write@d
  1938  030A  3000               	movlw	0
  1939  030B  00F4               	movwf	I2C_Master_Write@d+1
  1940  030C  160A  118A  23DE  120A  118A  	fcall	_I2C_Master_Write
  1941  0311                     l3475:
  1942                           
  1943                           ;MAINMASTER.c: 287:             temp_luz2 = I2C_Master_Read(0);
  1944  0311  3000               	movlw	0
  1945  0312  00F3               	movwf	I2C_Master_Read@a
  1946  0313  00F4               	movwf	I2C_Master_Read@a+1
  1947  0314  160A  118A  2540  120A  118A  	fcall	_I2C_Master_Read
  1948  0319  0873               	movf	?_I2C_Master_Read,w
  1949  031A  1683               	bsf	3,5	;RP0=1, select bank1
  1950  031B  1303               	bcf	3,6	;RP1=0, select bank1
  1951  031C  00AD               	movwf	??_main^(0+128)
  1952  031D  082D               	movf	??_main^(0+128),w
  1953  031E  1283               	bcf	3,5	;RP0=0, select bank0
  1954  031F  1303               	bcf	3,6	;RP1=0, select bank0
  1955  0320  00E7               	movwf	_temp_luz2
  1956  0321                     l3477:
  1957                           
  1958                           ;MAINMASTER.c: 288:             I2C_Master_Stop();
  1959  0321  160A  118A  23D5  120A  118A  	fcall	_I2C_Master_Stop
  1960  0326                     l3479:
  1961                           
  1962                           ;MAINMASTER.c: 289:             _delay((unsigned long)((200)*(8000000/4000.0)));
  1963  0326  3003               	movlw	3
  1964  0327  1683               	bsf	3,5	;RP0=1, select bank1
  1965  0328  1303               	bcf	3,6	;RP1=0, select bank1
  1966  0329  00AF               	movwf	(??_main^(0+128)+2)
  1967  032A  3008               	movlw	8
  1968  032B  00AE               	movwf	(??_main^(0+128)+1)
  1969  032C  3076               	movlw	118
  1970  032D  00AD               	movwf	??_main^(0+128)
  1971  032E                     u4077:
  1972  032E  0BAD               	decfsz	??_main^(0+128),f
  1973  032F  2B2E               	goto	u4077
  1974  0330  0BAE               	decfsz	(??_main^(0+128)+1),f
  1975  0331  2B2E               	goto	u4077
  1976  0332  0BAF               	decfsz	(??_main^(0+128)+2),f
  1977  0333  2B2E               	goto	u4077
  1978  0334  0000               	nop
  1979  0335                     l3481:
  1980                           
  1981                           ;MAINMASTER.c: 291:             bandera_info = 0;
  1982  0335  1683               	bsf	3,5	;RP0=1, select bank1
  1983  0336  1303               	bcf	3,6	;RP1=0, select bank1
  1984  0337  01A8               	clrf	_bandera_info^(0+128)
  1985  0338                     l3483:
  1986                           
  1987                           ;MAINMASTER.c: 296:         if (bandera_lcd1) {
  1988  0338  1283               	bcf	3,5	;RP0=0, select bank0
  1989  0339  1303               	bcf	3,6	;RP1=0, select bank0
  1990  033A  0864               	movf	_bandera_lcd1,w
  1991  033B  1903               	btfsc	3,2
  1992  033C  2B3E               	goto	u3921
  1993  033D  2B3F               	goto	u3920
  1994  033E                     u3921:
  1995  033E  2B50               	goto	l3491
  1996  033F                     u3920:
  1997  033F                     l3485:
  1998                           
  1999                           ;MAINMASTER.c: 297:             Lcd_Clear();
  2000  033F  120A  158A  2005  120A  118A  	fcall	_Lcd_Clear
  2001  0344                     l3487:
  2002                           
  2003                           ;MAINMASTER.c: 298:             bandera_lcd = bandera_lcd ^ 1;
  2004  0344  1283               	bcf	3,5	;RP0=0, select bank0
  2005  0345  1303               	bcf	3,6	;RP1=0, select bank0
  2006  0346  0865               	movf	_bandera_lcd,w
  2007  0347  3A01               	xorlw	1
  2008  0348  1683               	bsf	3,5	;RP0=1, select bank1
  2009  0349  1303               	bcf	3,6	;RP1=0, select bank1
  2010  034A  00AD               	movwf	??_main^(0+128)
  2011  034B  082D               	movf	??_main^(0+128),w
  2012  034C  1283               	bcf	3,5	;RP0=0, select bank0
  2013  034D  1303               	bcf	3,6	;RP1=0, select bank0
  2014  034E  00E5               	movwf	_bandera_lcd
  2015  034F                     l3489:
  2016                           
  2017                           ;MAINMASTER.c: 299:             bandera_lcd1 = 0;
  2018  034F  01E4               	clrf	_bandera_lcd1
  2019  0350                     l3491:
  2020                           
  2021                           ;MAINMASTER.c: 302:         if (bandera_lcd) {
  2022  0350  0865               	movf	_bandera_lcd,w
  2023  0351  1903               	btfsc	3,2
  2024  0352  2B54               	goto	u3931
  2025  0353  2B55               	goto	u3930
  2026  0354                     u3931:
  2027  0354  2C07               	goto	l3505
  2028  0355                     u3930:
  2029  0355                     l3493:
  2030                           
  2031                           ;MAINMASTER.c: 304:             Lcd_Set_Cursor(1, 1);
  2032  0355  01F7               	clrf	Lcd_Set_Cursor@b
  2033  0356  0AF7               	incf	Lcd_Set_Cursor@b,f
  2034  0357  3001               	movlw	1
  2035  0358  160A  118A  246E  120A  118A  	fcall	_Lcd_Set_Cursor
  2036  035D                     l3495:
  2037                           
  2038                           ;MAINMASTER.c: 305:             Lcd_Write_String(" LUZ2 VRS");
  2039  035D  300F               	movlw	(low ((STR_1-__stringbase)| (0+32768)))& (0+255)
  2040  035E  160A  118A  2494  120A  118A  	fcall	_Lcd_Write_String
  2041  0363                     l3497:
  2042                           
  2043                           ;MAINMASTER.c: 306:             Lcd_Set_Cursor(2, 1);
  2044  0363  01F7               	clrf	Lcd_Set_Cursor@b
  2045  0364  0AF7               	incf	Lcd_Set_Cursor@b,f
  2046  0365  3002               	movlw	2
  2047  0366  160A  118A  246E  120A  118A  	fcall	_Lcd_Set_Cursor
  2048                           
  2049                           ;MAINMASTER.c: 307:             Lcd_Write_String(" ");
  2050  036B  301D               	movlw	(low (((STR_3+1)-__stringbase)| (0+32768)))& (0+255)
  2051  036C  160A  118A  2494  120A  118A  	fcall	_Lcd_Write_String
  2052                           
  2053                           ;MAINMASTER.c: 308:             Lcd_Write_Char(int_string(BTD_CENTENA(luz2)));
  2054  0371  1283               	bcf	3,5	;RP0=0, select bank0
  2055  0372  1303               	bcf	3,6	;RP1=0, select bank0
  2056  0373  086B               	movf	_luz2,w
  2057  0374  1683               	bsf	3,5	;RP0=1, select bank1
  2058  0375  1303               	bcf	3,6	;RP1=0, select bank1
  2059  0376  00AD               	movwf	??_main^(0+128)
  2060  0377  01AE               	clrf	(??_main^(0+128)+1)
  2061  0378  082D               	movf	??_main^(0+128),w
  2062  0379  1283               	bcf	3,5	;RP0=0, select bank0
  2063  037A  1303               	bcf	3,6	;RP1=0, select bank0
  2064  037B  00A4               	movwf	BTD_CENTENA@valor
  2065  037C  1683               	bsf	3,5	;RP0=1, select bank1
  2066  037D  1303               	bcf	3,6	;RP1=0, select bank1
  2067  037E  082E               	movf	(??_main+1)^(0+128),w
  2068  037F  1283               	bcf	3,5	;RP0=0, select bank0
  2069  0380  1303               	bcf	3,6	;RP1=0, select bank0
  2070  0381  00A5               	movwf	BTD_CENTENA@valor+1
  2071  0382  160A  118A  23FF  120A  118A  	fcall	_BTD_CENTENA
  2072  0387  1283               	bcf	3,5	;RP0=0, select bank0
  2073  0388  1303               	bcf	3,6	;RP1=0, select bank0
  2074  0389  0825               	movf	?_BTD_CENTENA+1,w
  2075  038A  00AB               	movwf	int_string@valor+1
  2076  038B  0824               	movf	?_BTD_CENTENA,w
  2077  038C  00AA               	movwf	int_string@valor
  2078  038D  120A  158A  214C  120A  118A  	fcall	_int_string
  2079  0392  1283               	bcf	3,5	;RP0=0, select bank0
  2080  0393  1303               	bcf	3,6	;RP1=0, select bank0
  2081  0394  082A               	movf	?_int_string,w
  2082  0395  160A  118A  2433  120A  118A  	fcall	_Lcd_Write_Char
  2083                           
  2084                           ;MAINMASTER.c: 309:             Lcd_Write_Char(int_string(BTD_DECIMAL(luz2)));
  2085  039A  1283               	bcf	3,5	;RP0=0, select bank0
  2086  039B  1303               	bcf	3,6	;RP1=0, select bank0
  2087  039C  086B               	movf	_luz2,w
  2088  039D  1683               	bsf	3,5	;RP0=1, select bank1
  2089  039E  1303               	bcf	3,6	;RP1=0, select bank1
  2090  039F  00AD               	movwf	??_main^(0+128)
  2091  03A0  01AE               	clrf	(??_main^(0+128)+1)
  2092  03A1  082D               	movf	??_main^(0+128),w
  2093  03A2  1283               	bcf	3,5	;RP0=0, select bank0
  2094  03A3  1303               	bcf	3,6	;RP1=0, select bank0
  2095  03A4  00A4               	movwf	BTD_DECIMAL@valor1
  2096  03A5  1683               	bsf	3,5	;RP0=1, select bank1
  2097  03A6  1303               	bcf	3,6	;RP1=0, select bank1
  2098  03A7  082E               	movf	(??_main+1)^(0+128),w
  2099  03A8  1283               	bcf	3,5	;RP0=0, select bank0
  2100  03A9  1303               	bcf	3,6	;RP1=0, select bank0
  2101  03AA  00A5               	movwf	BTD_DECIMAL@valor1+1
  2102  03AB  160A  118A  24E6  120A  118A  	fcall	_BTD_DECIMAL
  2103  03B0  1283               	bcf	3,5	;RP0=0, select bank0
  2104  03B1  1303               	bcf	3,6	;RP1=0, select bank0
  2105  03B2  0825               	movf	?_BTD_DECIMAL+1,w
  2106  03B3  00AB               	movwf	int_string@valor+1
  2107  03B4  0824               	movf	?_BTD_DECIMAL,w
  2108  03B5  00AA               	movwf	int_string@valor
  2109  03B6  120A  158A  214C  120A  118A  	fcall	_int_string
  2110  03BB  1283               	bcf	3,5	;RP0=0, select bank0
  2111  03BC  1303               	bcf	3,6	;RP1=0, select bank0
  2112  03BD  082A               	movf	?_int_string,w
  2113  03BE  160A  118A  2433  120A  118A  	fcall	_Lcd_Write_Char
  2114                           
  2115                           ;MAINMASTER.c: 310:             Lcd_Write_Char(int_string(BTD_UNIDAD(luz2)));
  2116  03C3  1283               	bcf	3,5	;RP0=0, select bank0
  2117  03C4  1303               	bcf	3,6	;RP1=0, select bank0
  2118  03C5  086B               	movf	_luz2,w
  2119  03C6  1683               	bsf	3,5	;RP0=1, select bank1
  2120  03C7  1303               	bcf	3,6	;RP1=0, select bank1
  2121  03C8  00AD               	movwf	??_main^(0+128)
  2122  03C9  01AE               	clrf	(??_main^(0+128)+1)
  2123  03CA  082D               	movf	??_main^(0+128),w
  2124  03CB  1283               	bcf	3,5	;RP0=0, select bank0
  2125  03CC  1303               	bcf	3,6	;RP1=0, select bank0
  2126  03CD  00A2               	movwf	BTD_UNIDAD@valor2
  2127  03CE  1683               	bsf	3,5	;RP0=1, select bank1
  2128  03CF  1303               	bcf	3,6	;RP1=0, select bank1
  2129  03D0  082E               	movf	(??_main+1)^(0+128),w
  2130  03D1  1283               	bcf	3,5	;RP0=0, select bank0
  2131  03D2  1303               	bcf	3,6	;RP1=0, select bank0
  2132  03D3  00A3               	movwf	BTD_UNIDAD@valor2+1
  2133  03D4  160A  118A  2513  120A  118A  	fcall	_BTD_UNIDAD
  2134  03D9  1283               	bcf	3,5	;RP0=0, select bank0
  2135  03DA  1303               	bcf	3,6	;RP1=0, select bank0
  2136  03DB  0823               	movf	?_BTD_UNIDAD+1,w
  2137  03DC  00AB               	movwf	int_string@valor+1
  2138  03DD  0822               	movf	?_BTD_UNIDAD,w
  2139  03DE  00AA               	movwf	int_string@valor
  2140  03DF  120A  158A  214C  120A  118A  	fcall	_int_string
  2141  03E4  1283               	bcf	3,5	;RP0=0, select bank0
  2142  03E5  1303               	bcf	3,6	;RP1=0, select bank0
  2143  03E6  082A               	movf	?_int_string,w
  2144  03E7  160A  118A  2433  120A  118A  	fcall	_Lcd_Write_Char
  2145                           
  2146                           ;MAINMASTER.c: 311:             Lcd_Write_String("% ");
  2147  03EC  301C               	movlw	(low ((STR_3-__stringbase)| (0+32768)))& (0+255)
  2148  03ED  160A  118A  2494  120A  118A  	fcall	_Lcd_Write_String
  2149  03F2                     l3499:
  2150                           
  2151                           ;MAINMASTER.c: 313:             Lcd_Write_Char(bandera_ventilador);
  2152  03F2  0879               	movf	_bandera_ventilador,w
  2153  03F3  160A  118A  2433  120A  118A  	fcall	_Lcd_Write_Char
  2154  03F8                     l3501:
  2155                           
  2156                           ;MAINMASTER.c: 314:             Lcd_Write_Char(bandera_resistencia);
  2157  03F8  0878               	movf	_bandera_resistencia,w
  2158  03F9  160A  118A  2433  120A  118A  	fcall	_Lcd_Write_Char
  2159  03FE                     l3503:
  2160                           
  2161                           ;MAINMASTER.c: 315:             Lcd_Write_Char(bandera_servo);
  2162  03FE  1683               	bsf	3,5	;RP0=1, select bank1
  2163  03FF  1303               	bcf	3,6	;RP1=0, select bank1
  2164  0400  082B               	movf	_bandera_servo^(0+128),w
  2165  0401  160A  118A  2433  120A  118A  	fcall	_Lcd_Write_Char
  2166                           
  2167                           ;MAINMASTER.c: 318:         } else if (!bandera_lcd) {
  2168  0406  2DAA               	goto	l3513
  2169  0407                     l3505:
  2170  0407  0865               	movf	_bandera_lcd,w
  2171  0408  1D03               	btfss	3,2
  2172  0409  2C0B               	goto	u3941
  2173  040A  2C0C               	goto	u3940
  2174  040B                     u3941:
  2175  040B  2DAA               	goto	l3513
  2176  040C                     u3940:
  2177  040C                     l3507:
  2178                           
  2179                           ;MAINMASTER.c: 320:             Lcd_Set_Cursor(1, 1);
  2180  040C  01F7               	clrf	Lcd_Set_Cursor@b
  2181  040D  0AF7               	incf	Lcd_Set_Cursor@b,f
  2182  040E  3001               	movlw	1
  2183  040F  160A  118A  246E  120A  118A  	fcall	_Lcd_Set_Cursor
  2184  0414                     l3509:
  2185                           
  2186                           ;MAINMASTER.c: 321:             Lcd_Write_String(" T1   T2   L1");
  2187  0414  3001               	movlw	(low ((STR_4-__stringbase)| (0+32768)))& (0+255)
  2188  0415  160A  118A  2494  120A  118A  	fcall	_Lcd_Write_String
  2189  041A                     l3511:
  2190                           
  2191                           ;MAINMASTER.c: 322:             Lcd_Set_Cursor(2, 0);
  2192  041A  01F7               	clrf	Lcd_Set_Cursor@b
  2193  041B  3002               	movlw	2
  2194  041C  160A  118A  246E  120A  118A  	fcall	_Lcd_Set_Cursor
  2195                           
  2196                           ;MAINMASTER.c: 323:             Lcd_Write_String(" ");
  2197  0421  301D               	movlw	(low (((STR_3+1)-__stringbase)| (0+32768)))& (0+255)
  2198  0422  160A  118A  2494  120A  118A  	fcall	_Lcd_Write_String
  2199                           
  2200                           ;MAINMASTER.c: 324:             Lcd_Write_Char(int_string(BTD_CENTENA(temperatura1)));
  2201  0427  1283               	bcf	3,5	;RP0=0, select bank0
  2202  0428  1303               	bcf	3,6	;RP1=0, select bank0
  2203  0429  086E               	movf	_temperatura1,w
  2204  042A  1683               	bsf	3,5	;RP0=1, select bank1
  2205  042B  1303               	bcf	3,6	;RP1=0, select bank1
  2206  042C  00AD               	movwf	??_main^(0+128)
  2207  042D  01AE               	clrf	(??_main^(0+128)+1)
  2208  042E  082D               	movf	??_main^(0+128),w
  2209  042F  1283               	bcf	3,5	;RP0=0, select bank0
  2210  0430  1303               	bcf	3,6	;RP1=0, select bank0
  2211  0431  00A4               	movwf	BTD_CENTENA@valor
  2212  0432  1683               	bsf	3,5	;RP0=1, select bank1
  2213  0433  1303               	bcf	3,6	;RP1=0, select bank1
  2214  0434  082E               	movf	(??_main+1)^(0+128),w
  2215  0435  1283               	bcf	3,5	;RP0=0, select bank0
  2216  0436  1303               	bcf	3,6	;RP1=0, select bank0
  2217  0437  00A5               	movwf	BTD_CENTENA@valor+1
  2218  0438  160A  118A  23FF  120A  118A  	fcall	_BTD_CENTENA
  2219  043D  1283               	bcf	3,5	;RP0=0, select bank0
  2220  043E  1303               	bcf	3,6	;RP1=0, select bank0
  2221  043F  0825               	movf	?_BTD_CENTENA+1,w
  2222  0440  00AB               	movwf	int_string@valor+1
  2223  0441  0824               	movf	?_BTD_CENTENA,w
  2224  0442  00AA               	movwf	int_string@valor
  2225  0443  120A  158A  214C  120A  118A  	fcall	_int_string
  2226  0448  1283               	bcf	3,5	;RP0=0, select bank0
  2227  0449  1303               	bcf	3,6	;RP1=0, select bank0
  2228  044A  082A               	movf	?_int_string,w
  2229  044B  160A  118A  2433  120A  118A  	fcall	_Lcd_Write_Char
  2230                           
  2231                           ;MAINMASTER.c: 325:             Lcd_Write_Char(int_string(BTD_DECIMAL(temperatura1)));
  2232  0450  1283               	bcf	3,5	;RP0=0, select bank0
  2233  0451  1303               	bcf	3,6	;RP1=0, select bank0
  2234  0452  086E               	movf	_temperatura1,w
  2235  0453  1683               	bsf	3,5	;RP0=1, select bank1
  2236  0454  1303               	bcf	3,6	;RP1=0, select bank1
  2237  0455  00AD               	movwf	??_main^(0+128)
  2238  0456  01AE               	clrf	(??_main^(0+128)+1)
  2239  0457  082D               	movf	??_main^(0+128),w
  2240  0458  1283               	bcf	3,5	;RP0=0, select bank0
  2241  0459  1303               	bcf	3,6	;RP1=0, select bank0
  2242  045A  00A4               	movwf	BTD_DECIMAL@valor1
  2243  045B  1683               	bsf	3,5	;RP0=1, select bank1
  2244  045C  1303               	bcf	3,6	;RP1=0, select bank1
  2245  045D  082E               	movf	(??_main+1)^(0+128),w
  2246  045E  1283               	bcf	3,5	;RP0=0, select bank0
  2247  045F  1303               	bcf	3,6	;RP1=0, select bank0
  2248  0460  00A5               	movwf	BTD_DECIMAL@valor1+1
  2249  0461  160A  118A  24E6  120A  118A  	fcall	_BTD_DECIMAL
  2250  0466  1283               	bcf	3,5	;RP0=0, select bank0
  2251  0467  1303               	bcf	3,6	;RP1=0, select bank0
  2252  0468  0825               	movf	?_BTD_DECIMAL+1,w
  2253  0469  00AB               	movwf	int_string@valor+1
  2254  046A  0824               	movf	?_BTD_DECIMAL,w
  2255  046B  00AA               	movwf	int_string@valor
  2256  046C  120A  158A  214C  120A  118A  	fcall	_int_string
  2257  0471  1283               	bcf	3,5	;RP0=0, select bank0
  2258  0472  1303               	bcf	3,6	;RP1=0, select bank0
  2259  0473  082A               	movf	?_int_string,w
  2260  0474  160A  118A  2433  120A  118A  	fcall	_Lcd_Write_Char
  2261                           
  2262                           ;MAINMASTER.c: 326:             Lcd_Write_Char(int_string(BTD_UNIDAD(temperatura1)));
  2263  0479  1283               	bcf	3,5	;RP0=0, select bank0
  2264  047A  1303               	bcf	3,6	;RP1=0, select bank0
  2265  047B  086E               	movf	_temperatura1,w
  2266  047C  1683               	bsf	3,5	;RP0=1, select bank1
  2267  047D  1303               	bcf	3,6	;RP1=0, select bank1
  2268  047E  00AD               	movwf	??_main^(0+128)
  2269  047F  01AE               	clrf	(??_main^(0+128)+1)
  2270  0480  082D               	movf	??_main^(0+128),w
  2271  0481  1283               	bcf	3,5	;RP0=0, select bank0
  2272  0482  1303               	bcf	3,6	;RP1=0, select bank0
  2273  0483  00A2               	movwf	BTD_UNIDAD@valor2
  2274  0484  1683               	bsf	3,5	;RP0=1, select bank1
  2275  0485  1303               	bcf	3,6	;RP1=0, select bank1
  2276  0486  082E               	movf	(??_main+1)^(0+128),w
  2277  0487  1283               	bcf	3,5	;RP0=0, select bank0
  2278  0488  1303               	bcf	3,6	;RP1=0, select bank0
  2279  0489  00A3               	movwf	BTD_UNIDAD@valor2+1
  2280  048A  160A  118A  2513  120A  118A  	fcall	_BTD_UNIDAD
  2281  048F  1283               	bcf	3,5	;RP0=0, select bank0
  2282  0490  1303               	bcf	3,6	;RP1=0, select bank0
  2283  0491  0823               	movf	?_BTD_UNIDAD+1,w
  2284  0492  00AB               	movwf	int_string@valor+1
  2285  0493  0822               	movf	?_BTD_UNIDAD,w
  2286  0494  00AA               	movwf	int_string@valor
  2287  0495  120A  158A  214C  120A  118A  	fcall	_int_string
  2288  049A  1283               	bcf	3,5	;RP0=0, select bank0
  2289  049B  1303               	bcf	3,6	;RP1=0, select bank0
  2290  049C  082A               	movf	?_int_string,w
  2291  049D  160A  118A  2433  120A  118A  	fcall	_Lcd_Write_Char
  2292                           
  2293                           ;MAINMASTER.c: 327:             Lcd_Write_String("C ");
  2294  04A2  301F               	movlw	(low ((STR_6-__stringbase)| (0+32768)))& (0+255)
  2295  04A3  160A  118A  2494  120A  118A  	fcall	_Lcd_Write_String
  2296                           
  2297                           ;MAINMASTER.c: 328:             Lcd_Write_Char(int_string(BTD_CENTENA(temperatura2)));
  2298  04A8  1283               	bcf	3,5	;RP0=0, select bank0
  2299  04A9  1303               	bcf	3,6	;RP1=0, select bank0
  2300  04AA  086D               	movf	_temperatura2,w
  2301  04AB  1683               	bsf	3,5	;RP0=1, select bank1
  2302  04AC  1303               	bcf	3,6	;RP1=0, select bank1
  2303  04AD  00AD               	movwf	??_main^(0+128)
  2304  04AE  01AE               	clrf	(??_main^(0+128)+1)
  2305  04AF  082D               	movf	??_main^(0+128),w
  2306  04B0  1283               	bcf	3,5	;RP0=0, select bank0
  2307  04B1  1303               	bcf	3,6	;RP1=0, select bank0
  2308  04B2  00A4               	movwf	BTD_CENTENA@valor
  2309  04B3  1683               	bsf	3,5	;RP0=1, select bank1
  2310  04B4  1303               	bcf	3,6	;RP1=0, select bank1
  2311  04B5  082E               	movf	(??_main+1)^(0+128),w
  2312  04B6  1283               	bcf	3,5	;RP0=0, select bank0
  2313  04B7  1303               	bcf	3,6	;RP1=0, select bank0
  2314  04B8  00A5               	movwf	BTD_CENTENA@valor+1
  2315  04B9  160A  118A  23FF  120A  118A  	fcall	_BTD_CENTENA
  2316  04BE  1283               	bcf	3,5	;RP0=0, select bank0
  2317  04BF  1303               	bcf	3,6	;RP1=0, select bank0
  2318  04C0  0825               	movf	?_BTD_CENTENA+1,w
  2319  04C1  00AB               	movwf	int_string@valor+1
  2320  04C2  0824               	movf	?_BTD_CENTENA,w
  2321  04C3  00AA               	movwf	int_string@valor
  2322  04C4  120A  158A  214C  120A  118A  	fcall	_int_string
  2323  04C9  1283               	bcf	3,5	;RP0=0, select bank0
  2324  04CA  1303               	bcf	3,6	;RP1=0, select bank0
  2325  04CB  082A               	movf	?_int_string,w
  2326  04CC  160A  118A  2433  120A  118A  	fcall	_Lcd_Write_Char
  2327                           
  2328                           ;MAINMASTER.c: 329:             Lcd_Write_Char(int_string(BTD_DECIMAL(temperatura2)));
  2329  04D1  1283               	bcf	3,5	;RP0=0, select bank0
  2330  04D2  1303               	bcf	3,6	;RP1=0, select bank0
  2331  04D3  086D               	movf	_temperatura2,w
  2332  04D4  1683               	bsf	3,5	;RP0=1, select bank1
  2333  04D5  1303               	bcf	3,6	;RP1=0, select bank1
  2334  04D6  00AD               	movwf	??_main^(0+128)
  2335  04D7  01AE               	clrf	(??_main^(0+128)+1)
  2336  04D8  082D               	movf	??_main^(0+128),w
  2337  04D9  1283               	bcf	3,5	;RP0=0, select bank0
  2338  04DA  1303               	bcf	3,6	;RP1=0, select bank0
  2339  04DB  00A4               	movwf	BTD_DECIMAL@valor1
  2340  04DC  1683               	bsf	3,5	;RP0=1, select bank1
  2341  04DD  1303               	bcf	3,6	;RP1=0, select bank1
  2342  04DE  082E               	movf	(??_main+1)^(0+128),w
  2343  04DF  1283               	bcf	3,5	;RP0=0, select bank0
  2344  04E0  1303               	bcf	3,6	;RP1=0, select bank0
  2345  04E1  00A5               	movwf	BTD_DECIMAL@valor1+1
  2346  04E2  160A  118A  24E6  120A  118A  	fcall	_BTD_DECIMAL
  2347  04E7  1283               	bcf	3,5	;RP0=0, select bank0
  2348  04E8  1303               	bcf	3,6	;RP1=0, select bank0
  2349  04E9  0825               	movf	?_BTD_DECIMAL+1,w
  2350  04EA  00AB               	movwf	int_string@valor+1
  2351  04EB  0824               	movf	?_BTD_DECIMAL,w
  2352  04EC  00AA               	movwf	int_string@valor
  2353  04ED  120A  158A  214C  120A  118A  	fcall	_int_string
  2354  04F2  1283               	bcf	3,5	;RP0=0, select bank0
  2355  04F3  1303               	bcf	3,6	;RP1=0, select bank0
  2356  04F4  082A               	movf	?_int_string,w
  2357  04F5  160A  118A  2433  120A  118A  	fcall	_Lcd_Write_Char
  2358                           
  2359                           ;MAINMASTER.c: 330:             Lcd_Write_Char(int_string(BTD_UNIDAD(temperatura2)));
  2360  04FA  1283               	bcf	3,5	;RP0=0, select bank0
  2361  04FB  1303               	bcf	3,6	;RP1=0, select bank0
  2362  04FC  086D               	movf	_temperatura2,w
  2363  04FD  1683               	bsf	3,5	;RP0=1, select bank1
  2364  04FE  1303               	bcf	3,6	;RP1=0, select bank1
  2365  04FF  00AD               	movwf	??_main^(0+128)
  2366  0500  01AE               	clrf	(??_main^(0+128)+1)
  2367  0501  082D               	movf	??_main^(0+128),w
  2368  0502  1283               	bcf	3,5	;RP0=0, select bank0
  2369  0503  1303               	bcf	3,6	;RP1=0, select bank0
  2370  0504  00A2               	movwf	BTD_UNIDAD@valor2
  2371  0505  1683               	bsf	3,5	;RP0=1, select bank1
  2372  0506  1303               	bcf	3,6	;RP1=0, select bank1
  2373  0507  082E               	movf	(??_main+1)^(0+128),w
  2374  0508  1283               	bcf	3,5	;RP0=0, select bank0
  2375  0509  1303               	bcf	3,6	;RP1=0, select bank0
  2376  050A  00A3               	movwf	BTD_UNIDAD@valor2+1
  2377  050B  160A  118A  2513  120A  118A  	fcall	_BTD_UNIDAD
  2378  0510  1283               	bcf	3,5	;RP0=0, select bank0
  2379  0511  1303               	bcf	3,6	;RP1=0, select bank0
  2380  0512  0823               	movf	?_BTD_UNIDAD+1,w
  2381  0513  00AB               	movwf	int_string@valor+1
  2382  0514  0822               	movf	?_BTD_UNIDAD,w
  2383  0515  00AA               	movwf	int_string@valor
  2384  0516  120A  158A  214C  120A  118A  	fcall	_int_string
  2385  051B  1283               	bcf	3,5	;RP0=0, select bank0
  2386  051C  1303               	bcf	3,6	;RP1=0, select bank0
  2387  051D  082A               	movf	?_int_string,w
  2388  051E  160A  118A  2433  120A  118A  	fcall	_Lcd_Write_Char
  2389                           
  2390                           ;MAINMASTER.c: 331:             Lcd_Write_String("C ");
  2391  0523  301F               	movlw	(low ((STR_6-__stringbase)| (0+32768)))& (0+255)
  2392  0524  160A  118A  2494  120A  118A  	fcall	_Lcd_Write_String
  2393                           
  2394                           ;MAINMASTER.c: 332:             Lcd_Write_Char(int_string(BTD_CENTENA(luz1)));
  2395  0529  1283               	bcf	3,5	;RP0=0, select bank0
  2396  052A  1303               	bcf	3,6	;RP1=0, select bank0
  2397  052B  086C               	movf	_luz1,w
  2398  052C  1683               	bsf	3,5	;RP0=1, select bank1
  2399  052D  1303               	bcf	3,6	;RP1=0, select bank1
  2400  052E  00AD               	movwf	??_main^(0+128)
  2401  052F  01AE               	clrf	(??_main^(0+128)+1)
  2402  0530  082D               	movf	??_main^(0+128),w
  2403  0531  1283               	bcf	3,5	;RP0=0, select bank0
  2404  0532  1303               	bcf	3,6	;RP1=0, select bank0
  2405  0533  00A4               	movwf	BTD_CENTENA@valor
  2406  0534  1683               	bsf	3,5	;RP0=1, select bank1
  2407  0535  1303               	bcf	3,6	;RP1=0, select bank1
  2408  0536  082E               	movf	(??_main+1)^(0+128),w
  2409  0537  1283               	bcf	3,5	;RP0=0, select bank0
  2410  0538  1303               	bcf	3,6	;RP1=0, select bank0
  2411  0539  00A5               	movwf	BTD_CENTENA@valor+1
  2412  053A  160A  118A  23FF  120A  118A  	fcall	_BTD_CENTENA
  2413  053F  1283               	bcf	3,5	;RP0=0, select bank0
  2414  0540  1303               	bcf	3,6	;RP1=0, select bank0
  2415  0541  0825               	movf	?_BTD_CENTENA+1,w
  2416  0542  00AB               	movwf	int_string@valor+1
  2417  0543  0824               	movf	?_BTD_CENTENA,w
  2418  0544  00AA               	movwf	int_string@valor
  2419  0545  120A  158A  214C  120A  118A  	fcall	_int_string
  2420  054A  1283               	bcf	3,5	;RP0=0, select bank0
  2421  054B  1303               	bcf	3,6	;RP1=0, select bank0
  2422  054C  082A               	movf	?_int_string,w
  2423  054D  160A  118A  2433  120A  118A  	fcall	_Lcd_Write_Char
  2424                           
  2425                           ;MAINMASTER.c: 333:             Lcd_Write_Char(int_string(BTD_DECIMAL(luz1)));
  2426  0552  1283               	bcf	3,5	;RP0=0, select bank0
  2427  0553  1303               	bcf	3,6	;RP1=0, select bank0
  2428  0554  086C               	movf	_luz1,w
  2429  0555  1683               	bsf	3,5	;RP0=1, select bank1
  2430  0556  1303               	bcf	3,6	;RP1=0, select bank1
  2431  0557  00AD               	movwf	??_main^(0+128)
  2432  0558  01AE               	clrf	(??_main^(0+128)+1)
  2433  0559  082D               	movf	??_main^(0+128),w
  2434  055A  1283               	bcf	3,5	;RP0=0, select bank0
  2435  055B  1303               	bcf	3,6	;RP1=0, select bank0
  2436  055C  00A4               	movwf	BTD_DECIMAL@valor1
  2437  055D  1683               	bsf	3,5	;RP0=1, select bank1
  2438  055E  1303               	bcf	3,6	;RP1=0, select bank1
  2439  055F  082E               	movf	(??_main+1)^(0+128),w
  2440  0560  1283               	bcf	3,5	;RP0=0, select bank0
  2441  0561  1303               	bcf	3,6	;RP1=0, select bank0
  2442  0562  00A5               	movwf	BTD_DECIMAL@valor1+1
  2443  0563  160A  118A  24E6  120A  118A  	fcall	_BTD_DECIMAL
  2444  0568  1283               	bcf	3,5	;RP0=0, select bank0
  2445  0569  1303               	bcf	3,6	;RP1=0, select bank0
  2446  056A  0825               	movf	?_BTD_DECIMAL+1,w
  2447  056B  00AB               	movwf	int_string@valor+1
  2448  056C  0824               	movf	?_BTD_DECIMAL,w
  2449  056D  00AA               	movwf	int_string@valor
  2450  056E  120A  158A  214C  120A  118A  	fcall	_int_string
  2451  0573  1283               	bcf	3,5	;RP0=0, select bank0
  2452  0574  1303               	bcf	3,6	;RP1=0, select bank0
  2453  0575  082A               	movf	?_int_string,w
  2454  0576  160A  118A  2433  120A  118A  	fcall	_Lcd_Write_Char
  2455                           
  2456                           ;MAINMASTER.c: 334:             Lcd_Write_Char(int_string(BTD_UNIDAD(luz1)));
  2457  057B  1283               	bcf	3,5	;RP0=0, select bank0
  2458  057C  1303               	bcf	3,6	;RP1=0, select bank0
  2459  057D  086C               	movf	_luz1,w
  2460  057E  1683               	bsf	3,5	;RP0=1, select bank1
  2461  057F  1303               	bcf	3,6	;RP1=0, select bank1
  2462  0580  00AD               	movwf	??_main^(0+128)
  2463  0581  01AE               	clrf	(??_main^(0+128)+1)
  2464  0582  082D               	movf	??_main^(0+128),w
  2465  0583  1283               	bcf	3,5	;RP0=0, select bank0
  2466  0584  1303               	bcf	3,6	;RP1=0, select bank0
  2467  0585  00A2               	movwf	BTD_UNIDAD@valor2
  2468  0586  1683               	bsf	3,5	;RP0=1, select bank1
  2469  0587  1303               	bcf	3,6	;RP1=0, select bank1
  2470  0588  082E               	movf	(??_main+1)^(0+128),w
  2471  0589  1283               	bcf	3,5	;RP0=0, select bank0
  2472  058A  1303               	bcf	3,6	;RP1=0, select bank0
  2473  058B  00A3               	movwf	BTD_UNIDAD@valor2+1
  2474  058C  160A  118A  2513  120A  118A  	fcall	_BTD_UNIDAD
  2475  0591  1283               	bcf	3,5	;RP0=0, select bank0
  2476  0592  1303               	bcf	3,6	;RP1=0, select bank0
  2477  0593  0823               	movf	?_BTD_UNIDAD+1,w
  2478  0594  00AB               	movwf	int_string@valor+1
  2479  0595  0822               	movf	?_BTD_UNIDAD,w
  2480  0596  00AA               	movwf	int_string@valor
  2481  0597  120A  158A  214C  120A  118A  	fcall	_int_string
  2482  059C  1283               	bcf	3,5	;RP0=0, select bank0
  2483  059D  1303               	bcf	3,6	;RP1=0, select bank0
  2484  059E  082A               	movf	?_int_string,w
  2485  059F  160A  118A  2433  120A  118A  	fcall	_Lcd_Write_Char
  2486                           
  2487                           ;MAINMASTER.c: 335:             Lcd_Write_String("%");
  2488  05A4  3022               	movlw	(low ((STR_8-__stringbase)| (0+32768)))& (0+255)
  2489  05A5  160A  118A  2494  120A  118A  	fcall	_Lcd_Write_String
  2490  05AA                     l3513:
  2491                           
  2492                           ;MAINMASTER.c: 338:         if (bandera_serial) {
  2493  05AA  1283               	bcf	3,5	;RP0=0, select bank0
  2494  05AB  1303               	bcf	3,6	;RP1=0, select bank0
  2495  05AC  0863               	movf	_bandera_serial,w
  2496  05AD  1903               	btfsc	3,2
  2497  05AE  2DB2               	goto	u3951
  2498  05AF  120A  158A  2A0A   	goto	u3950
  2499  05B2                     u3951:
  2500  05B2  120A  158A  2C1D   	goto	l3543
  2501                           
  2502                           	psect	text1
  2503  084C                     __ptext1:	
  2504 ;; *************** function _setup *****************
  2505 ;; Defined at:
  2506 ;;		line 405 in file "MAINMASTER.c"
  2507 ;; Parameters:    Size  Location     Type
  2508 ;;		None
  2509 ;; Auto vars:     Size  Location     Type
  2510 ;;		None
  2511 ;; Return value:  Size  Location     Type
  2512 ;;                  1    wreg      void 
  2513 ;; Registers used:
  2514 ;;		wreg, status,2, status,0, pclath, cstack
  2515 ;; Tracked objects:
  2516 ;;		On entry : 0/0
  2517 ;;		On exit  : 0/0
  2518 ;;		Unchanged: 0/0
  2519 ;; Data sizes:     COMMON   BANK0   BANK1   BANK3   BANK2
  2520 ;;      Params:         0       0       0       0       0
  2521 ;;      Locals:         0       0       0       0       0
  2522 ;;      Temps:          0       0       0       0       0
  2523 ;;      Totals:         0       0       0       0       0
  2524 ;;Total ram usage:        0 bytes
  2525 ;; Hardware stack levels used:    1
  2526 ;; Hardware stack levels required when called:    3
  2527 ;; This function calls:
  2528 ;;		_I2C_Master_Init
  2529 ;; This function is called by:
  2530 ;;		_main
  2531 ;; This function uses a non-reentrant model
  2532 ;;
  2533                           
  2534                           
  2535                           ;psect for function _setup
  2536  084C                     _setup:
  2537  084C                     l3227:	
  2538                           ;incstack = 0
  2539                           ; Regs used in _setup: [wreg+status,2+status,0+pclath+cstack]
  2540                           
  2541                           
  2542                           ;MAINMASTER.c: 409:     OSCCONbits.SCS = 1;
  2543  084C  1683               	bsf	3,5	;RP0=1, select bank1
  2544  084D  1303               	bcf	3,6	;RP1=0, select bank1
  2545  084E  140F               	bsf	15,0	;volatile
  2546                           
  2547                           ;MAINMASTER.c: 410:     OSCCONbits.IRCF2 = 1;
  2548  084F  170F               	bsf	15,6	;volatile
  2549                           
  2550                           ;MAINMASTER.c: 411:     OSCCONbits.IRCF1 = 1;
  2551  0850  168F               	bsf	15,5	;volatile
  2552                           
  2553                           ;MAINMASTER.c: 412:     OSCCONbits.IRCF0 = 1;
  2554  0851  160F               	bsf	15,4	;volatile
  2555  0852                     l3229:
  2556                           
  2557                           ;MAINMASTER.c: 415:     ANSEL = 0;
  2558  0852  1683               	bsf	3,5	;RP0=1, select bank3
  2559  0853  1703               	bsf	3,6	;RP1=1, select bank3
  2560  0854  0188               	clrf	8	;volatile
  2561                           
  2562                           ;MAINMASTER.c: 416:     ANSELH = 0;
  2563  0855  0189               	clrf	9	;volatile
  2564                           
  2565                           ;MAINMASTER.c: 417:     TRISB = 0X00;
  2566  0856  1683               	bsf	3,5	;RP0=1, select bank1
  2567  0857  1303               	bcf	3,6	;RP1=0, select bank1
  2568  0858  0186               	clrf	6	;volatile
  2569                           
  2570                           ;MAINMASTER.c: 418:     TRISD = 0X00;
  2571  0859  0188               	clrf	8	;volatile
  2572  085A                     l3231:
  2573                           
  2574                           ;MAINMASTER.c: 419:     TRISE0 = 0;
  2575  085A  1009               	bcf	9,0	;volatile
  2576  085B                     l3233:
  2577                           
  2578                           ;MAINMASTER.c: 420:     TRISE1 = 0;
  2579  085B  1089               	bcf	9,1	;volatile
  2580  085C                     l3235:
  2581                           
  2582                           ;MAINMASTER.c: 421:     TRISE2 = 0X00;
  2583  085C  1109               	bcf	9,2	;volatile
  2584                           
  2585                           ;MAINMASTER.c: 422:     PORTB = 0X00;
  2586  085D  1283               	bcf	3,5	;RP0=0, select bank0
  2587  085E  1303               	bcf	3,6	;RP1=0, select bank0
  2588  085F  0186               	clrf	6	;volatile
  2589                           
  2590                           ;MAINMASTER.c: 423:     PORTD = 0X00;
  2591  0860  0188               	clrf	8	;volatile
  2592  0861                     l3237:
  2593                           
  2594                           ;MAINMASTER.c: 424:     RE0 = 0;
  2595  0861  1009               	bcf	9,0	;volatile
  2596  0862                     l3239:
  2597                           
  2598                           ;MAINMASTER.c: 428:     INTCONbits.GIE = 1;
  2599  0862  178B               	bsf	11,7	;volatile
  2600  0863                     l3241:
  2601                           
  2602                           ;MAINMASTER.c: 429:     INTCONbits.PEIE = 1;
  2603  0863  170B               	bsf	11,6	;volatile
  2604                           
  2605                           ;MAINMASTER.c: 433:     SPBRGH = 0;
  2606  0864  1683               	bsf	3,5	;RP0=1, select bank1
  2607  0865  1303               	bcf	3,6	;RP1=0, select bank1
  2608  0866  019A               	clrf	26	;volatile
  2609  0867                     l3243:
  2610                           
  2611                           ;MAINMASTER.c: 434:     SPBRG = 12;
  2612  0867  300C               	movlw	12
  2613  0868  0099               	movwf	25	;volatile
  2614  0869                     l3245:
  2615                           
  2616                           ;MAINMASTER.c: 435:     BRGH = 0;
  2617  0869  1118               	bcf	24,2	;volatile
  2618  086A                     l3247:
  2619                           
  2620                           ;MAINMASTER.c: 436:     BRG16 = 0;
  2621  086A  1683               	bsf	3,5	;RP0=1, select bank3
  2622  086B  1703               	bsf	3,6	;RP1=1, select bank3
  2623  086C  1187               	bcf	7,3	;volatile
  2624  086D                     l3249:
  2625                           
  2626                           ;MAINMASTER.c: 438:     TXSTAbits.SYNC = 0;
  2627  086D  1683               	bsf	3,5	;RP0=1, select bank1
  2628  086E  1303               	bcf	3,6	;RP1=0, select bank1
  2629  086F  1218               	bcf	24,4	;volatile
  2630  0870                     l3251:
  2631                           
  2632                           ;MAINMASTER.c: 439:     RCSTAbits.SPEN = 1;
  2633  0870  1283               	bcf	3,5	;RP0=0, select bank0
  2634  0871  1303               	bcf	3,6	;RP1=0, select bank0
  2635  0872  1798               	bsf	24,7	;volatile
  2636  0873                     l3253:
  2637                           
  2638                           ;MAINMASTER.c: 440:     TXSTAbits.TXEN = 1;
  2639  0873  1683               	bsf	3,5	;RP0=1, select bank1
  2640  0874  1303               	bcf	3,6	;RP1=0, select bank1
  2641  0875  1698               	bsf	24,5	;volatile
  2642  0876                     l3255:
  2643                           
  2644                           ;MAINMASTER.c: 441:     RCSTAbits.CREN = 1;
  2645  0876  1283               	bcf	3,5	;RP0=0, select bank0
  2646  0877  1303               	bcf	3,6	;RP1=0, select bank0
  2647  0878  1618               	bsf	24,4	;volatile
  2648  0879                     l3257:
  2649                           
  2650                           ;MAINMASTER.c: 443:     PIE1bits.RCIE = 1;
  2651  0879  1683               	bsf	3,5	;RP0=1, select bank1
  2652  087A  1303               	bcf	3,6	;RP1=0, select bank1
  2653  087B  168C               	bsf	12,5	;volatile
  2654  087C                     l3259:
  2655                           
  2656                           ;MAINMASTER.c: 446:     T1CONbits.T1CKPS1 = 1;
  2657  087C  1283               	bcf	3,5	;RP0=0, select bank0
  2658  087D  1303               	bcf	3,6	;RP1=0, select bank0
  2659  087E  1690               	bsf	16,5	;volatile
  2660  087F                     l3261:
  2661                           
  2662                           ;MAINMASTER.c: 447:     T1CONbits.T1CKPS0 = 1;
  2663  087F  1610               	bsf	16,4	;volatile
  2664  0880                     l3263:
  2665                           
  2666                           ;MAINMASTER.c: 448:     T1CONbits.T1OSCEN = 1;
  2667  0880  1590               	bsf	16,3	;volatile
  2668  0881                     l3265:
  2669                           
  2670                           ;MAINMASTER.c: 449:     T1CONbits.T1SYNC = 1;
  2671  0881  1510               	bsf	16,2	;volatile
  2672  0882                     l3267:
  2673                           
  2674                           ;MAINMASTER.c: 450:     T1CONbits.TMR1CS = 0;
  2675  0882  1090               	bcf	16,1	;volatile
  2676  0883                     l3269:
  2677                           
  2678                           ;MAINMASTER.c: 451:     T1CONbits.TMR1ON = 1;
  2679  0883  1410               	bsf	16,0	;volatile
  2680  0884                     l3271:
  2681                           
  2682                           ;MAINMASTER.c: 452:     PIE1bits.TMR1IE = 1;
  2683  0884  1683               	bsf	3,5	;RP0=1, select bank1
  2684  0885  1303               	bcf	3,6	;RP1=0, select bank1
  2685  0886  140C               	bsf	12,0	;volatile
  2686  0887                     l3273:
  2687                           
  2688                           ;MAINMASTER.c: 454:     TMR1H = 0x3B;
  2689  0887  303B               	movlw	59
  2690  0888  1283               	bcf	3,5	;RP0=0, select bank0
  2691  0889  1303               	bcf	3,6	;RP1=0, select bank0
  2692  088A  008F               	movwf	15	;volatile
  2693  088B                     l3275:
  2694                           
  2695                           ;MAINMASTER.c: 455:     TMR1L = 0xE0;
  2696  088B  30E0               	movlw	224
  2697  088C  008E               	movwf	14	;volatile
  2698  088D                     l3277:
  2699                           
  2700                           ;MAINMASTER.c: 458:     I2C_Master_Init(100000);
  2701  088D  3000               	movlw	0
  2702  088E  00B0               	movwf	I2C_Master_Init@c+3
  2703  088F  3001               	movlw	1
  2704  0890  00AF               	movwf	I2C_Master_Init@c+2
  2705  0891  3086               	movlw	134
  2706  0892  00AE               	movwf	I2C_Master_Init@c+1
  2707  0893  30A0               	movlw	160
  2708  0894  00AD               	movwf	I2C_Master_Init@c
  2709  0895  120A  158A  2012  120A  158A  	fcall	_I2C_Master_Init
  2710  089A                     l177:
  2711  089A  0008               	return
  2712  089B                     __end_of_setup:
  2713                           
  2714                           	psect	text2
  2715  0812                     __ptext2:	
  2716 ;; *************** function _I2C_Master_Init *****************
  2717 ;; Defined at:
  2718 ;;		line 16 in file "../Proyecto1slv2.X/I2C.c"
  2719 ;; Parameters:    Size  Location     Type
  2720 ;;  c               4   13[BANK0 ] const unsigned long 
  2721 ;; Auto vars:     Size  Location     Type
  2722 ;;		None
  2723 ;; Return value:  Size  Location     Type
  2724 ;;                  1    wreg      void 
  2725 ;; Registers used:
  2726 ;;		wreg, status,2, status,0, pclath, cstack
  2727 ;; Tracked objects:
  2728 ;;		On entry : 0/0
  2729 ;;		On exit  : 0/0
  2730 ;;		Unchanged: 0/0
  2731 ;; Data sizes:     COMMON   BANK0   BANK1   BANK3   BANK2
  2732 ;;      Params:         0       4       0       0       0
  2733 ;;      Locals:         0       0       0       0       0
  2734 ;;      Temps:          4       0       0       0       0
  2735 ;;      Totals:         4       4       0       0       0
  2736 ;;Total ram usage:        8 bytes
  2737 ;; Hardware stack levels used:    1
  2738 ;; Hardware stack levels required when called:    2
  2739 ;; This function calls:
  2740 ;;		___lldiv
  2741 ;; This function is called by:
  2742 ;;		_setup
  2743 ;; This function uses a non-reentrant model
  2744 ;;
  2745                           
  2746                           
  2747                           ;psect for function _I2C_Master_Init
  2748  0812                     _I2C_Master_Init:
  2749  0812                     l3173:	
  2750                           ;incstack = 0
  2751                           ; Regs used in _I2C_Master_Init: [wreg+status,2+status,0+pclath+cstack]
  2752                           
  2753                           
  2754                           ;../Proyecto1slv2.X/I2C.c: 16: void I2C_Master_Init(const unsigned long c);../Proyecto1s
      +                          lv2.X/I2C.c: 17: {;../Proyecto1slv2.X/I2C.c: 18:     SSPCON = 0b00101000;
  2755  0812  3028               	movlw	40
  2756  0813  1283               	bcf	3,5	;RP0=0, select bank0
  2757  0814  1303               	bcf	3,6	;RP1=0, select bank0
  2758  0815  0094               	movwf	20	;volatile
  2759  0816                     l3175:
  2760                           
  2761                           ;../Proyecto1slv2.X/I2C.c: 19:     SSPCON2 = 0;
  2762  0816  1683               	bsf	3,5	;RP0=1, select bank1
  2763  0817  1303               	bcf	3,6	;RP1=0, select bank1
  2764  0818  0191               	clrf	17	;volatile
  2765  0819                     l3177:
  2766                           
  2767                           ;../Proyecto1slv2.X/I2C.c: 20:     SSPADD = (8000000/(4*c))-1;
  2768  0819  1283               	bcf	3,5	;RP0=0, select bank0
  2769  081A  1303               	bcf	3,6	;RP1=0, select bank0
  2770  081B  082D               	movf	I2C_Master_Init@c,w
  2771  081C  00F4               	movwf	??_I2C_Master_Init
  2772  081D  082E               	movf	I2C_Master_Init@c+1,w
  2773  081E  00F5               	movwf	??_I2C_Master_Init+1
  2774  081F  082F               	movf	I2C_Master_Init@c+2,w
  2775  0820  00F6               	movwf	??_I2C_Master_Init+2
  2776  0821  0830               	movf	I2C_Master_Init@c+3,w
  2777  0822  00F7               	movwf	??_I2C_Master_Init+3
  2778  0823  3002               	movlw	2
  2779  0824                     u3605:
  2780  0824  1003               	clrc
  2781  0825  0DF4               	rlf	??_I2C_Master_Init,f
  2782  0826  0DF5               	rlf	??_I2C_Master_Init+1,f
  2783  0827  0DF6               	rlf	??_I2C_Master_Init+2,f
  2784  0828  0DF7               	rlf	??_I2C_Master_Init+3,f
  2785  0829                     u3600:
  2786  0829  3EFF               	addlw	-1
  2787  082A  1D03               	skipz
  2788  082B  2824               	goto	u3605
  2789  082C  0877               	movf	??_I2C_Master_Init+3,w
  2790  082D  00A3               	movwf	___lldiv@divisor+3
  2791  082E  0876               	movf	??_I2C_Master_Init+2,w
  2792  082F  00A2               	movwf	___lldiv@divisor+2
  2793  0830  0875               	movf	??_I2C_Master_Init+1,w
  2794  0831  00A1               	movwf	___lldiv@divisor+1
  2795  0832  0874               	movf	??_I2C_Master_Init,w
  2796  0833  00A0               	movwf	___lldiv@divisor
  2797  0834  3000               	movlw	0
  2798  0835  00A7               	movwf	___lldiv@dividend+3
  2799  0836  307A               	movlw	122
  2800  0837  00A6               	movwf	___lldiv@dividend+2
  2801  0838  3012               	movlw	18
  2802  0839  00A5               	movwf	___lldiv@dividend+1
  2803  083A  3000               	movlw	0
  2804  083B  00A4               	movwf	___lldiv@dividend
  2805  083C  120A  118A  2756  120A  158A  	fcall	___lldiv
  2806  0841  1283               	bcf	3,5	;RP0=0, select bank0
  2807  0842  1303               	bcf	3,6	;RP1=0, select bank0
  2808  0843  0820               	movf	?___lldiv,w
  2809  0844  3EFF               	addlw	255
  2810  0845  1683               	bsf	3,5	;RP0=1, select bank1
  2811  0846  1303               	bcf	3,6	;RP1=0, select bank1
  2812  0847  0093               	movwf	19	;volatile
  2813  0848                     l3179:
  2814                           
  2815                           ;../Proyecto1slv2.X/I2C.c: 21:     SSPSTAT = 0;
  2816  0848  0194               	clrf	20	;volatile
  2817  0849                     l3181:
  2818                           
  2819                           ;../Proyecto1slv2.X/I2C.c: 22:     TRISCbits.TRISC3 = 1;
  2820  0849  1587               	bsf	7,3	;volatile
  2821  084A                     l3183:
  2822                           
  2823                           ;../Proyecto1slv2.X/I2C.c: 23:     TRISCbits.TRISC4 = 1;
  2824  084A  1607               	bsf	7,4	;volatile
  2825  084B                     l206:
  2826  084B  0008               	return
  2827  084C                     __end_of_I2C_Master_Init:
  2828                           
  2829                           	psect	text3
  2830  0756                     __ptext3:	
  2831 ;; *************** function ___lldiv *****************
  2832 ;; Defined at:
  2833 ;;		line 5 in file "C:\Program Files\Microchip\xc8\v2.31\pic\sources\c90\common\__lldiv.c"
  2834 ;; Parameters:    Size  Location     Type
  2835 ;;  divisor         4    0[BANK0 ] unsigned long 
  2836 ;;  dividend        4    4[BANK0 ] unsigned long 
  2837 ;; Auto vars:     Size  Location     Type
  2838 ;;  quotient        4    8[BANK0 ] unsigned long 
  2839 ;;  counter         1   12[BANK0 ] unsigned char 
  2840 ;; Return value:  Size  Location     Type
  2841 ;;                  4    0[BANK0 ] unsigned long 
  2842 ;; Registers used:
  2843 ;;		wreg, status,2, status,0
  2844 ;; Tracked objects:
  2845 ;;		On entry : 0/0
  2846 ;;		On exit  : 0/0
  2847 ;;		Unchanged: 0/0
  2848 ;; Data sizes:     COMMON   BANK0   BANK1   BANK3   BANK2
  2849 ;;      Params:         0       8       0       0       0
  2850 ;;      Locals:         0       5       0       0       0
  2851 ;;      Temps:          1       0       0       0       0
  2852 ;;      Totals:         1      13       0       0       0
  2853 ;;Total ram usage:       14 bytes
  2854 ;; Hardware stack levels used:    1
  2855 ;; Hardware stack levels required when called:    1
  2856 ;; This function calls:
  2857 ;;		Nothing
  2858 ;; This function is called by:
  2859 ;;		_I2C_Master_Init
  2860 ;; This function uses a non-reentrant model
  2861 ;;
  2862                           
  2863                           
  2864                           ;psect for function ___lldiv
  2865  0756                     ___lldiv:
  2866  0756                     l3127:	
  2867                           ;incstack = 0
  2868                           ; Regs used in ___lldiv: [wreg+status,2+status,0]
  2869                           
  2870  0756  3000               	movlw	0
  2871  0757  1283               	bcf	3,5	;RP0=0, select bank0
  2872  0758  1303               	bcf	3,6	;RP1=0, select bank0
  2873  0759  00AB               	movwf	___lldiv@quotient+3
  2874  075A  3000               	movlw	0
  2875  075B  00AA               	movwf	___lldiv@quotient+2
  2876  075C  3000               	movlw	0
  2877  075D  00A9               	movwf	___lldiv@quotient+1
  2878  075E  3000               	movlw	0
  2879  075F  00A8               	movwf	___lldiv@quotient
  2880  0760  0823               	movf	___lldiv@divisor+3,w
  2881  0761  0422               	iorwf	___lldiv@divisor+2,w
  2882  0762  0421               	iorwf	___lldiv@divisor+1,w
  2883  0763  0420               	iorwf	___lldiv@divisor,w
  2884  0764  1903               	skipnz
  2885  0765  2F67               	goto	u3531
  2886  0766  2F68               	goto	u3530
  2887  0767                     u3531:
  2888  0767  2FB5               	goto	l3147
  2889  0768                     u3530:
  2890  0768                     l3129:
  2891  0768  01AC               	clrf	___lldiv@counter
  2892  0769  0AAC               	incf	___lldiv@counter,f
  2893  076A  2F78               	goto	l3133
  2894  076B                     l3131:
  2895  076B  3001               	movlw	1
  2896  076C  00F3               	movwf	??___lldiv
  2897  076D                     u3545:
  2898  076D  1003               	clrc
  2899  076E  0DA0               	rlf	___lldiv@divisor,f
  2900  076F  0DA1               	rlf	___lldiv@divisor+1,f
  2901  0770  0DA2               	rlf	___lldiv@divisor+2,f
  2902  0771  0DA3               	rlf	___lldiv@divisor+3,f
  2903  0772  0BF3               	decfsz	??___lldiv,f
  2904  0773  2F6D               	goto	u3545
  2905  0774  3001               	movlw	1
  2906  0775  00F3               	movwf	??___lldiv
  2907  0776  0873               	movf	??___lldiv,w
  2908  0777  07AC               	addwf	___lldiv@counter,f
  2909  0778                     l3133:
  2910  0778  1FA3               	btfss	___lldiv@divisor+3,7
  2911  0779  2F7B               	goto	u3551
  2912  077A  2F7C               	goto	u3550
  2913  077B                     u3551:
  2914  077B  2F6B               	goto	l3131
  2915  077C                     u3550:
  2916  077C                     l3135:
  2917  077C  3001               	movlw	1
  2918  077D  00F3               	movwf	??___lldiv
  2919  077E                     u3565:
  2920  077E  1003               	clrc
  2921  077F  0DA8               	rlf	___lldiv@quotient,f
  2922  0780  0DA9               	rlf	___lldiv@quotient+1,f
  2923  0781  0DAA               	rlf	___lldiv@quotient+2,f
  2924  0782  0DAB               	rlf	___lldiv@quotient+3,f
  2925  0783  0BF3               	decfsz	??___lldiv,f
  2926  0784  2F7E               	goto	u3565
  2927  0785                     l3137:
  2928  0785  0823               	movf	___lldiv@divisor+3,w
  2929  0786  0227               	subwf	___lldiv@dividend+3,w
  2930  0787  1D03               	skipz
  2931  0788  2F93               	goto	u3575
  2932  0789  0822               	movf	___lldiv@divisor+2,w
  2933  078A  0226               	subwf	___lldiv@dividend+2,w
  2934  078B  1D03               	skipz
  2935  078C  2F93               	goto	u3575
  2936  078D  0821               	movf	___lldiv@divisor+1,w
  2937  078E  0225               	subwf	___lldiv@dividend+1,w
  2938  078F  1D03               	skipz
  2939  0790  2F93               	goto	u3575
  2940  0791  0820               	movf	___lldiv@divisor,w
  2941  0792  0224               	subwf	___lldiv@dividend,w
  2942  0793                     u3575:
  2943  0793  1C03               	skipc
  2944  0794  2F96               	goto	u3571
  2945  0795  2F97               	goto	u3570
  2946  0796                     u3571:
  2947  0796  2FA6               	goto	l3143
  2948  0797                     u3570:
  2949  0797                     l3139:
  2950  0797  0820               	movf	___lldiv@divisor,w
  2951  0798  02A4               	subwf	___lldiv@dividend,f
  2952  0799  0821               	movf	___lldiv@divisor+1,w
  2953  079A  1C03               	skipc
  2954  079B  0F21               	incfsz	___lldiv@divisor+1,w
  2955  079C  02A5               	subwf	___lldiv@dividend+1,f
  2956  079D  0822               	movf	___lldiv@divisor+2,w
  2957  079E  1C03               	skipc
  2958  079F  0F22               	incfsz	___lldiv@divisor+2,w
  2959  07A0  02A6               	subwf	___lldiv@dividend+2,f
  2960  07A1  0823               	movf	___lldiv@divisor+3,w
  2961  07A2  1C03               	skipc
  2962  07A3  0F23               	incfsz	___lldiv@divisor+3,w
  2963  07A4  02A7               	subwf	___lldiv@dividend+3,f
  2964  07A5                     l3141:
  2965  07A5  1428               	bsf	___lldiv@quotient,0
  2966  07A6                     l3143:
  2967  07A6  3001               	movlw	1
  2968  07A7                     u3585:
  2969  07A7  1003               	clrc
  2970  07A8  0CA3               	rrf	___lldiv@divisor+3,f
  2971  07A9  0CA2               	rrf	___lldiv@divisor+2,f
  2972  07AA  0CA1               	rrf	___lldiv@divisor+1,f
  2973  07AB  0CA0               	rrf	___lldiv@divisor,f
  2974  07AC  3EFF               	addlw	-1
  2975  07AD  1D03               	skipz
  2976  07AE  2FA7               	goto	u3585
  2977  07AF                     l3145:
  2978  07AF  3001               	movlw	1
  2979  07B0  02AC               	subwf	___lldiv@counter,f
  2980  07B1  1D03               	btfss	3,2
  2981  07B2  2FB4               	goto	u3591
  2982  07B3  2FB5               	goto	u3590
  2983  07B4                     u3591:
  2984  07B4  2F7C               	goto	l3135
  2985  07B5                     u3590:
  2986  07B5                     l3147:
  2987  07B5  082B               	movf	___lldiv@quotient+3,w
  2988  07B6  00A3               	movwf	?___lldiv+3
  2989  07B7  082A               	movf	___lldiv@quotient+2,w
  2990  07B8  00A2               	movwf	?___lldiv+2
  2991  07B9  0829               	movf	___lldiv@quotient+1,w
  2992  07BA  00A1               	movwf	?___lldiv+1
  2993  07BB  0828               	movf	___lldiv@quotient,w
  2994  07BC  00A0               	movwf	?___lldiv
  2995  07BD                     l495:
  2996  07BD  0008               	return
  2997  07BE                     __end_of___lldiv:
  2998                           
  2999                           	psect	text4
  3000  144D                     __ptext4:	
  3001 ;; *************** function _print *****************
  3002 ;; Defined at:
  3003 ;;		line 16 in file "../Proyecto1slv2.X/PRINT_SERIAL.c"
  3004 ;; Parameters:    Size  Location     Type
  3005 ;;  palabra         1    wreg     PTR unsigned char 
  3006 ;;		 -> STR_9(3), 
  3007 ;; Auto vars:     Size  Location     Type
  3008 ;;  palabra         1    4[COMMON] PTR unsigned char 
  3009 ;;		 -> STR_9(3), 
  3010 ;; Return value:  Size  Location     Type
  3011 ;;                  1    wreg      void 
  3012 ;; Registers used:
  3013 ;;		wreg, fsr0l, fsr0h, status,2, status,0, pclath
  3014 ;; Tracked objects:
  3015 ;;		On entry : 0/0
  3016 ;;		On exit  : 0/0
  3017 ;;		Unchanged: 0/0
  3018 ;; Data sizes:     COMMON   BANK0   BANK1   BANK3   BANK2
  3019 ;;      Params:         0       0       0       0       0
  3020 ;;      Locals:         1       0       0       0       0
  3021 ;;      Temps:          1       0       0       0       0
  3022 ;;      Totals:         2       0       0       0       0
  3023 ;;Total ram usage:        2 bytes
  3024 ;; Hardware stack levels used:    2
  3025 ;; Hardware stack levels required when called:    1
  3026 ;; This function calls:
  3027 ;;		Nothing
  3028 ;; This function is called by:
  3029 ;;		_main
  3030 ;; This function uses a non-reentrant model
  3031 ;;
  3032                           
  3033                           
  3034                           ;psect for function _print
  3035  144D                     _print:
  3036                           
  3037                           ;incstack = 0
  3038                           ; Regs used in _print: [wreg-fsr0h+status,2+status,0+pclath]
  3039                           ;print@palabra stored from wreg
  3040  144D  00F4               	movwf	print@palabra
  3041  144E                     l2443:
  3042                           
  3043                           ;../Proyecto1slv2.X/PRINT_SERIAL.c: 17:     while((*palabra) != '\0'){
  3044  144E  2C61               	goto	l2449
  3045  144F                     l244:
  3046  144F  1283               	bcf	3,5	;RP0=0, select bank0
  3047  1450  1303               	bcf	3,6	;RP1=0, select bank0
  3048  1451  1E0C               	btfss	12,4	;volatile
  3049  1452  2C54               	goto	u2191
  3050  1453  2C55               	goto	u2190
  3051  1454                     u2191:
  3052  1454  2C4F               	goto	l244
  3053  1455                     u2190:
  3054  1455                     l2445:
  3055                           
  3056                           ;../Proyecto1slv2.X/PRINT_SERIAL.c: 19:         TXREG = (*palabra);
  3057  1455  0874               	movf	print@palabra,w
  3058  1456  0084               	movwf	4
  3059  1457  160A  118A  2000  160A  118A  	fcall	stringdir
  3060  145C  0099               	movwf	25	;volatile
  3061  145D                     l2447:
  3062                           
  3063                           ;../Proyecto1slv2.X/PRINT_SERIAL.c: 20:         *palabra++;
  3064  145D  3001               	movlw	1
  3065  145E  00F3               	movwf	??_print
  3066  145F  0873               	movf	??_print,w
  3067  1460  07F4               	addwf	print@palabra,f
  3068  1461                     l2449:
  3069                           
  3070                           ;../Proyecto1slv2.X/PRINT_SERIAL.c: 17:     while((*palabra) != '\0'){
  3071  1461  0874               	movf	print@palabra,w
  3072  1462  0084               	movwf	4
  3073  1463  160A  118A  2000  160A  118A  	fcall	stringdir
  3074  1468  3A00               	xorlw	0
  3075  1469  1D03               	skipz
  3076  146A  2C6C               	goto	u2201
  3077  146B  2C6D               	goto	u2200
  3078  146C                     u2201:
  3079  146C  2C4F               	goto	l244
  3080  146D                     u2200:
  3081  146D                     l248:
  3082  146D  0008               	return
  3083  146E                     __end_of_print:
  3084                           
  3085                           	psect	text5
  3086  094C                     __ptext5:	
  3087 ;; *************** function _int_string *****************
  3088 ;; Defined at:
  3089 ;;		line 39 in file "../Proyecto1slv2.X/PRINT_SERIAL.c"
  3090 ;; Parameters:    Size  Location     Type
  3091 ;;  valor           2   10[BANK0 ] int 
  3092 ;; Auto vars:     Size  Location     Type
  3093 ;;		None
  3094 ;; Return value:  Size  Location     Type
  3095 ;;                  2   10[BANK0 ] int 
  3096 ;; Registers used:
  3097 ;;		wreg, fsr0l, fsr0h, status,2, status,0
  3098 ;; Tracked objects:
  3099 ;;		On entry : 0/0
  3100 ;;		On exit  : 0/0
  3101 ;;		Unchanged: 0/0
  3102 ;; Data sizes:     COMMON   BANK0   BANK1   BANK3   BANK2
  3103 ;;      Params:         0       2       0       0       0
  3104 ;;      Locals:         0       0       0       0       0
  3105 ;;      Temps:          0       0       0       0       0
  3106 ;;      Totals:         0       2       0       0       0
  3107 ;;Total ram usage:        2 bytes
  3108 ;; Hardware stack levels used:    1
  3109 ;; Hardware stack levels required when called:    1
  3110 ;; This function calls:
  3111 ;;		Nothing
  3112 ;; This function is called by:
  3113 ;;		_main
  3114 ;; This function uses a non-reentrant model
  3115 ;;
  3116                           
  3117                           
  3118                           ;psect for function _int_string
  3119  094C                     _int_string:
  3120  094C                     l2357:	
  3121                           ;incstack = 0
  3122                           ; Regs used in _int_string: [wreg-fsr0h+status,2+status,0]
  3123                           
  3124                           
  3125                           ;../Proyecto1slv2.X/PRINT_SERIAL.c: 41:     switch (valor){
  3126  094C  297F               	goto	l2421
  3127  094D                     l2359:
  3128  094D  3030               	movlw	48
  3129  094E  00AA               	movwf	?_int_string
  3130  094F  3000               	movlw	0
  3131  0950  00AB               	movwf	?_int_string+1
  3132  0951  29A6               	goto	l268
  3133  0952                     l2365:
  3134  0952  3031               	movlw	49
  3135  0953  00AA               	movwf	?_int_string
  3136  0954  3000               	movlw	0
  3137  0955  00AB               	movwf	?_int_string+1
  3138  0956  29A6               	goto	l268
  3139  0957                     l2371:
  3140  0957  3032               	movlw	50
  3141  0958  00AA               	movwf	?_int_string
  3142  0959  3000               	movlw	0
  3143  095A  00AB               	movwf	?_int_string+1
  3144  095B  29A6               	goto	l268
  3145  095C                     l2377:
  3146  095C  3033               	movlw	51
  3147  095D  00AA               	movwf	?_int_string
  3148  095E  3000               	movlw	0
  3149  095F  00AB               	movwf	?_int_string+1
  3150  0960  29A6               	goto	l268
  3151  0961                     l2383:
  3152  0961  3034               	movlw	52
  3153  0962  00AA               	movwf	?_int_string
  3154  0963  3000               	movlw	0
  3155  0964  00AB               	movwf	?_int_string+1
  3156  0965  29A6               	goto	l268
  3157  0966                     l2389:
  3158  0966  3035               	movlw	53
  3159  0967  00AA               	movwf	?_int_string
  3160  0968  3000               	movlw	0
  3161  0969  00AB               	movwf	?_int_string+1
  3162  096A  29A6               	goto	l268
  3163  096B                     l2395:
  3164  096B  3036               	movlw	54
  3165  096C  00AA               	movwf	?_int_string
  3166  096D  3000               	movlw	0
  3167  096E  00AB               	movwf	?_int_string+1
  3168  096F  29A6               	goto	l268
  3169  0970                     l2401:
  3170  0970  3037               	movlw	55
  3171  0971  00AA               	movwf	?_int_string
  3172  0972  3000               	movlw	0
  3173  0973  00AB               	movwf	?_int_string+1
  3174  0974  29A6               	goto	l268
  3175  0975                     l2407:
  3176  0975  3038               	movlw	56
  3177  0976  00AA               	movwf	?_int_string
  3178  0977  3000               	movlw	0
  3179  0978  00AB               	movwf	?_int_string+1
  3180  0979  29A6               	goto	l268
  3181  097A                     l2413:
  3182  097A  3039               	movlw	57
  3183  097B  00AA               	movwf	?_int_string
  3184  097C  3000               	movlw	0
  3185  097D  00AB               	movwf	?_int_string+1
  3186  097E  29A6               	goto	l268
  3187  097F                     l2421:
  3188                           
  3189                           ; Switch on 2 bytes has been partitioned into a top level switch of size 1, and 1 sub-sw
      +                          itches
  3190                           ; Switch size 1, requested type "simple"
  3191                           ; Number of cases is 1, Range of values is 0 to 0
  3192                           ; switch strategies available:
  3193                           ; Name         Instructions Cycles
  3194                           ; simple_byte            4     3 (average)
  3195                           ; direct_byte           11     8 (fixed)
  3196                           ; jumptable            260     6 (fixed)
  3197                           ;	Chosen strategy is simple_byte
  3198  097F  1283               	bcf	3,5	;RP0=0, select bank0
  3199  0980  1303               	bcf	3,6	;RP1=0, select bank0
  3200  0981  082B               	movf	int_string@valor+1,w
  3201  0982  3A00               	xorlw	0	; case 0
  3202  0983  1903               	skipnz
  3203  0984  2986               	goto	l3597
  3204  0985  29A6               	goto	l268
  3205  0986                     l3597:
  3206                           
  3207                           ; Switch size 1, requested type "simple"
  3208                           ; Number of cases is 10, Range of values is 0 to 9
  3209                           ; switch strategies available:
  3210                           ; Name         Instructions Cycles
  3211                           ; simple_byte           31    16 (average)
  3212                           ; direct_byte           38     8 (fixed)
  3213                           ; jumptable            260     6 (fixed)
  3214                           ;	Chosen strategy is simple_byte
  3215  0986  082A               	movf	int_string@valor,w
  3216  0987  3A00               	xorlw	0	; case 0
  3217  0988  1903               	skipnz
  3218  0989  294D               	goto	l2359
  3219  098A  3A01               	xorlw	1	; case 1
  3220  098B  1903               	skipnz
  3221  098C  2952               	goto	l2365
  3222  098D  3A03               	xorlw	3	; case 2
  3223  098E  1903               	skipnz
  3224  098F  2957               	goto	l2371
  3225  0990  3A01               	xorlw	1	; case 3
  3226  0991  1903               	skipnz
  3227  0992  295C               	goto	l2377
  3228  0993  3A07               	xorlw	7	; case 4
  3229  0994  1903               	skipnz
  3230  0995  2961               	goto	l2383
  3231  0996  3A01               	xorlw	1	; case 5
  3232  0997  1903               	skipnz
  3233  0998  2966               	goto	l2389
  3234  0999  3A03               	xorlw	3	; case 6
  3235  099A  1903               	skipnz
  3236  099B  296B               	goto	l2395
  3237  099C  3A01               	xorlw	1	; case 7
  3238  099D  1903               	skipnz
  3239  099E  2970               	goto	l2401
  3240  099F  3A0F               	xorlw	15	; case 8
  3241  09A0  1903               	skipnz
  3242  09A1  2975               	goto	l2407
  3243  09A2  3A01               	xorlw	1	; case 9
  3244  09A3  1903               	skipnz
  3245  09A4  297A               	goto	l2413
  3246  09A5  29A6               	goto	l268
  3247  09A6                     l268:
  3248  09A6  0008               	return
  3249  09A7                     __end_of_int_string:
  3250                           
  3251                           	psect	text6
  3252  13E8                     __ptext6:	
  3253 ;; *************** function _enviar_letra *****************
  3254 ;; Defined at:
  3255 ;;		line 34 in file "../Proyecto1slv2.X/PRINT_SERIAL.c"
  3256 ;; Parameters:    Size  Location     Type
  3257 ;;  letra           1    wreg     unsigned char 
  3258 ;; Auto vars:     Size  Location     Type
  3259 ;;  letra           1    3[COMMON] unsigned char 
  3260 ;; Return value:  Size  Location     Type
  3261 ;;                  1    wreg      void 
  3262 ;; Registers used:
  3263 ;;		wreg
  3264 ;; Tracked objects:
  3265 ;;		On entry : 0/0
  3266 ;;		On exit  : 0/0
  3267 ;;		Unchanged: 0/0
  3268 ;; Data sizes:     COMMON   BANK0   BANK1   BANK3   BANK2
  3269 ;;      Params:         0       0       0       0       0
  3270 ;;      Locals:         1       0       0       0       0
  3271 ;;      Temps:          0       0       0       0       0
  3272 ;;      Totals:         1       0       0       0       0
  3273 ;;Total ram usage:        1 bytes
  3274 ;; Hardware stack levels used:    1
  3275 ;; Hardware stack levels required when called:    1
  3276 ;; This function calls:
  3277 ;;		Nothing
  3278 ;; This function is called by:
  3279 ;;		_main
  3280 ;;		_println
  3281 ;; This function uses a non-reentrant model
  3282 ;;
  3283                           
  3284                           
  3285                           ;psect for function _enviar_letra
  3286  13E8                     _enviar_letra:
  3287                           
  3288                           ;incstack = 0
  3289                           ; Regs used in _enviar_letra: [wreg]
  3290                           ;enviar_letra@letra stored from wreg
  3291  13E8  00F3               	movwf	enviar_letra@letra
  3292  13E9                     l2439:
  3293  13E9                     l260:	
  3294                           ;../Proyecto1slv2.X/PRINT_SERIAL.c: 35:     while(!TXIF);
  3295                           
  3296  13E9  1283               	bcf	3,5	;RP0=0, select bank0
  3297  13EA  1303               	bcf	3,6	;RP1=0, select bank0
  3298  13EB  1E0C               	btfss	12,4	;volatile
  3299  13EC  2BEE               	goto	u2181
  3300  13ED  2BEF               	goto	u2180
  3301  13EE                     u2181:
  3302  13EE  2BE9               	goto	l260
  3303  13EF                     u2180:
  3304  13EF                     l2441:
  3305                           
  3306                           ;../Proyecto1slv2.X/PRINT_SERIAL.c: 36:     TXREG = letra;
  3307  13EF  0873               	movf	enviar_letra@letra,w
  3308  13F0  0099               	movwf	25	;volatile
  3309  13F1                     l263:
  3310  13F1  0008               	return
  3311  13F2                     __end_of_enviar_letra:
  3312                           
  3313                           	psect	text7
  3314  05B5                     __ptext7:	
  3315 ;; *************** function ___xxtofl *****************
  3316 ;; Defined at:
  3317 ;;		line 10 in file "C:\Program Files\Microchip\xc8\v2.31\pic\sources\c90\common\xxtofl.c"
  3318 ;; Parameters:    Size  Location     Type
  3319 ;;  sign            1    wreg     unsigned char 
  3320 ;;  val             4    3[COMMON] long 
  3321 ;; Auto vars:     Size  Location     Type
  3322 ;;  sign            1    4[BANK0 ] unsigned char 
  3323 ;;  arg             4    6[BANK0 ] unsigned long 
  3324 ;;  exp             1    5[BANK0 ] unsigned char 
  3325 ;; Return value:  Size  Location     Type
  3326 ;;                  4    3[COMMON] unsigned char 
  3327 ;; Registers used:
  3328 ;;		wreg, status,2, status,0
  3329 ;; Tracked objects:
  3330 ;;		On entry : 0/0
  3331 ;;		On exit  : 0/0
  3332 ;;		Unchanged: 0/0
  3333 ;; Data sizes:     COMMON   BANK0   BANK1   BANK3   BANK2
  3334 ;;      Params:         4       0       0       0       0
  3335 ;;      Locals:         0       6       0       0       0
  3336 ;;      Temps:          0       4       0       0       0
  3337 ;;      Totals:         4      10       0       0       0
  3338 ;;Total ram usage:       14 bytes
  3339 ;; Hardware stack levels used:    1
  3340 ;; Hardware stack levels required when called:    1
  3341 ;; This function calls:
  3342 ;;		Nothing
  3343 ;; This function is called by:
  3344 ;;		_main
  3345 ;; This function uses a non-reentrant model
  3346 ;;
  3347                           
  3348                           
  3349                           ;psect for function ___xxtofl
  3350  05B5                     ___xxtofl:
  3351                           
  3352                           ;incstack = 0
  3353                           ; Regs used in ___xxtofl: [wreg+status,2+status,0]
  3354                           ;___xxtofl@sign stored from wreg
  3355  05B5  1283               	bcf	3,5	;RP0=0, select bank0
  3356  05B6  1303               	bcf	3,6	;RP1=0, select bank0
  3357  05B7  00A4               	movwf	___xxtofl@sign
  3358  05B8                     l3361:
  3359  05B8  0824               	movf	___xxtofl@sign,w
  3360  05B9  1903               	btfsc	3,2
  3361  05BA  2DBC               	goto	u3771
  3362  05BB  2DBD               	goto	u3770
  3363  05BC                     u3771:
  3364  05BC  2DD1               	goto	l3367
  3365  05BD                     u3770:
  3366  05BD                     l3363:
  3367  05BD  1FF6               	btfss	___xxtofl@val+3,7
  3368  05BE  2DC0               	goto	u3781
  3369  05BF  2DC1               	goto	u3780
  3370  05C0                     u3781:
  3371  05C0  2DD1               	goto	l3367
  3372  05C1                     u3780:
  3373  05C1                     l3365:
  3374  05C1  0973               	comf	___xxtofl@val,w
  3375  05C2  00A6               	movwf	___xxtofl@arg
  3376  05C3  0974               	comf	___xxtofl@val+1,w
  3377  05C4  00A7               	movwf	___xxtofl@arg+1
  3378  05C5  0975               	comf	___xxtofl@val+2,w
  3379  05C6  00A8               	movwf	___xxtofl@arg+2
  3380  05C7  0976               	comf	___xxtofl@val+3,w
  3381  05C8  00A9               	movwf	___xxtofl@arg+3
  3382  05C9  0AA6               	incf	___xxtofl@arg,f
  3383  05CA  1903               	skipnz
  3384  05CB  0AA7               	incf	___xxtofl@arg+1,f
  3385  05CC  1903               	skipnz
  3386  05CD  0AA8               	incf	___xxtofl@arg+2,f
  3387  05CE  1903               	skipnz
  3388  05CF  0AA9               	incf	___xxtofl@arg+3,f
  3389  05D0  2DD9               	goto	l892
  3390  05D1                     l3367:
  3391  05D1  0876               	movf	___xxtofl@val+3,w
  3392  05D2  00A9               	movwf	___xxtofl@arg+3
  3393  05D3  0875               	movf	___xxtofl@val+2,w
  3394  05D4  00A8               	movwf	___xxtofl@arg+2
  3395  05D5  0874               	movf	___xxtofl@val+1,w
  3396  05D6  00A7               	movwf	___xxtofl@arg+1
  3397  05D7  0873               	movf	___xxtofl@val,w
  3398  05D8  00A6               	movwf	___xxtofl@arg
  3399  05D9                     l892:
  3400  05D9  0876               	movf	___xxtofl@val+3,w
  3401  05DA  0475               	iorwf	___xxtofl@val+2,w
  3402  05DB  0474               	iorwf	___xxtofl@val+1,w
  3403  05DC  0473               	iorwf	___xxtofl@val,w
  3404  05DD  1D03               	skipz
  3405  05DE  2DE0               	goto	u3791
  3406  05DF  2DE1               	goto	u3790
  3407  05E0                     u3791:
  3408  05E0  2DEA               	goto	l3373
  3409  05E1                     u3790:
  3410  05E1                     l3369:
  3411  05E1  3000               	movlw	0
  3412  05E2  00F6               	movwf	?___xxtofl+3
  3413  05E3  3000               	movlw	0
  3414  05E4  00F5               	movwf	?___xxtofl+2
  3415  05E5  3000               	movlw	0
  3416  05E6  00F4               	movwf	?___xxtofl+1
  3417  05E7  3000               	movlw	0
  3418  05E8  00F3               	movwf	?___xxtofl
  3419  05E9  2E70               	goto	l894
  3420  05EA                     l3373:
  3421  05EA  3096               	movlw	150
  3422  05EB  00A0               	movwf	??___xxtofl
  3423  05EC  0820               	movf	??___xxtofl,w
  3424  05ED  00A5               	movwf	___xxtofl@exp
  3425  05EE  2DFC               	goto	l3377
  3426  05EF                     l3375:
  3427  05EF  3001               	movlw	1
  3428  05F0  00A0               	movwf	??___xxtofl
  3429  05F1  0820               	movf	??___xxtofl,w
  3430  05F2  07A5               	addwf	___xxtofl@exp,f
  3431  05F3  3001               	movlw	1
  3432  05F4                     u3805:
  3433  05F4  1003               	clrc
  3434  05F5  0CA9               	rrf	___xxtofl@arg+3,f
  3435  05F6  0CA8               	rrf	___xxtofl@arg+2,f
  3436  05F7  0CA7               	rrf	___xxtofl@arg+1,f
  3437  05F8  0CA6               	rrf	___xxtofl@arg,f
  3438  05F9  3EFF               	addlw	-1
  3439  05FA  1D03               	skipz
  3440  05FB  2DF4               	goto	u3805
  3441  05FC                     l3377:
  3442  05FC  30FE               	movlw	254
  3443  05FD  0529               	andwf	___xxtofl@arg+3,w
  3444  05FE  1D03               	btfss	3,2
  3445  05FF  2E01               	goto	u3811
  3446  0600  2E02               	goto	u3810
  3447  0601                     u3811:
  3448  0601  2DEF               	goto	l3375
  3449  0602                     u3810:
  3450  0602  2E1E               	goto	l898
  3451  0603                     l3379:
  3452  0603  3001               	movlw	1
  3453  0604  00A0               	movwf	??___xxtofl
  3454  0605  0820               	movf	??___xxtofl,w
  3455  0606  07A5               	addwf	___xxtofl@exp,f
  3456  0607                     l3381:
  3457  0607  3001               	movlw	1
  3458  0608  07A6               	addwf	___xxtofl@arg,f
  3459  0609  3000               	movlw	0
  3460  060A  1803               	skipnc
  3461  060B  3001               	movlw	1
  3462  060C  07A7               	addwf	___xxtofl@arg+1,f
  3463  060D  3000               	movlw	0
  3464  060E  1803               	skipnc
  3465  060F  3001               	movlw	1
  3466  0610  07A8               	addwf	___xxtofl@arg+2,f
  3467  0611  3000               	movlw	0
  3468  0612  1803               	skipnc
  3469  0613  3001               	movlw	1
  3470  0614  07A9               	addwf	___xxtofl@arg+3,f
  3471  0615                     l3383:
  3472  0615  3001               	movlw	1
  3473  0616                     u3825:
  3474  0616  1003               	clrc
  3475  0617  0CA9               	rrf	___xxtofl@arg+3,f
  3476  0618  0CA8               	rrf	___xxtofl@arg+2,f
  3477  0619  0CA7               	rrf	___xxtofl@arg+1,f
  3478  061A  0CA6               	rrf	___xxtofl@arg,f
  3479  061B  3EFF               	addlw	-1
  3480  061C  1D03               	skipz
  3481  061D  2E16               	goto	u3825
  3482  061E                     l898:
  3483  061E  30FF               	movlw	255
  3484  061F  0529               	andwf	___xxtofl@arg+3,w
  3485  0620  1D03               	btfss	3,2
  3486  0621  2E23               	goto	u3831
  3487  0622  2E24               	goto	u3830
  3488  0623                     u3831:
  3489  0623  2E03               	goto	l3379
  3490  0624                     u3830:
  3491  0624  2E30               	goto	l3387
  3492  0625                     l3385:
  3493  0625  3001               	movlw	1
  3494  0626  02A5               	subwf	___xxtofl@exp,f
  3495  0627  3001               	movlw	1
  3496  0628  00A0               	movwf	??___xxtofl
  3497  0629                     u3845:
  3498  0629  1003               	clrc
  3499  062A  0DA6               	rlf	___xxtofl@arg,f
  3500  062B  0DA7               	rlf	___xxtofl@arg+1,f
  3501  062C  0DA8               	rlf	___xxtofl@arg+2,f
  3502  062D  0DA9               	rlf	___xxtofl@arg+3,f
  3503  062E  0BA0               	decfsz	??___xxtofl,f
  3504  062F  2E29               	goto	u3845
  3505  0630                     l3387:
  3506  0630  1BA8               	btfsc	___xxtofl@arg+2,7
  3507  0631  2E33               	goto	u3851
  3508  0632  2E34               	goto	u3850
  3509  0633                     u3851:
  3510  0633  2E3A               	goto	l905
  3511  0634                     u3850:
  3512  0634                     l3389:
  3513  0634  3002               	movlw	2
  3514  0635  0225               	subwf	___xxtofl@exp,w
  3515  0636  1803               	skipnc
  3516  0637  2E39               	goto	u3861
  3517  0638  2E3A               	goto	u3860
  3518  0639                     u3861:
  3519  0639  2E25               	goto	l3385
  3520  063A                     u3860:
  3521  063A                     l905:
  3522  063A  1825               	btfsc	___xxtofl@exp,0
  3523  063B  2E3D               	goto	u3871
  3524  063C  2E3E               	goto	u3870
  3525  063D                     u3871:
  3526  063D  2E46               	goto	l906
  3527  063E                     u3870:
  3528  063E                     l3391:
  3529  063E  30FF               	movlw	255
  3530  063F  05A6               	andwf	___xxtofl@arg,f
  3531  0640  30FF               	movlw	255
  3532  0641  05A7               	andwf	___xxtofl@arg+1,f
  3533  0642  307F               	movlw	127
  3534  0643  05A8               	andwf	___xxtofl@arg+2,f
  3535  0644  30FF               	movlw	255
  3536  0645  05A9               	andwf	___xxtofl@arg+3,f
  3537  0646                     l906:
  3538  0646  1003               	clrc
  3539  0647  0CA5               	rrf	___xxtofl@exp,f
  3540  0648                     l3393:
  3541  0648  0825               	movf	___xxtofl@exp,w
  3542  0649  00A0               	movwf	??___xxtofl
  3543  064A  01A1               	clrf	??___xxtofl+1
  3544  064B  01A2               	clrf	??___xxtofl+2
  3545  064C  01A3               	clrf	??___xxtofl+3
  3546  064D  3018               	movlw	24
  3547  064E                     u3885:
  3548  064E  1003               	clrc
  3549  064F  0DA0               	rlf	??___xxtofl,f
  3550  0650  0DA1               	rlf	??___xxtofl+1,f
  3551  0651  0DA2               	rlf	??___xxtofl+2,f
  3552  0652  0DA3               	rlf	??___xxtofl+3,f
  3553  0653                     u3880:
  3554  0653  3EFF               	addlw	-1
  3555  0654  1D03               	skipz
  3556  0655  2E4E               	goto	u3885
  3557  0656  0820               	movf	??___xxtofl,w
  3558  0657  04A6               	iorwf	___xxtofl@arg,f
  3559  0658  0821               	movf	??___xxtofl+1,w
  3560  0659  04A7               	iorwf	___xxtofl@arg+1,f
  3561  065A  0822               	movf	??___xxtofl+2,w
  3562  065B  04A8               	iorwf	___xxtofl@arg+2,f
  3563  065C  0823               	movf	??___xxtofl+3,w
  3564  065D  04A9               	iorwf	___xxtofl@arg+3,f
  3565  065E                     l3395:
  3566  065E  0824               	movf	___xxtofl@sign,w
  3567  065F  1903               	btfsc	3,2
  3568  0660  2E62               	goto	u3891
  3569  0661  2E63               	goto	u3890
  3570  0662                     u3891:
  3571  0662  2E68               	goto	l3401
  3572  0663                     u3890:
  3573  0663                     l3397:
  3574  0663  1FF6               	btfss	___xxtofl@val+3,7
  3575  0664  2E66               	goto	u3901
  3576  0665  2E67               	goto	u3900
  3577  0666                     u3901:
  3578  0666  2E68               	goto	l3401
  3579  0667                     u3900:
  3580  0667                     l3399:
  3581  0667  17A9               	bsf	___xxtofl@arg+3,7
  3582  0668                     l3401:
  3583  0668  0829               	movf	___xxtofl@arg+3,w
  3584  0669  00F6               	movwf	?___xxtofl+3
  3585  066A  0828               	movf	___xxtofl@arg+2,w
  3586  066B  00F5               	movwf	?___xxtofl+2
  3587  066C  0827               	movf	___xxtofl@arg+1,w
  3588  066D  00F4               	movwf	?___xxtofl+1
  3589  066E  0826               	movf	___xxtofl@arg,w
  3590  066F  00F3               	movwf	?___xxtofl
  3591  0670                     l894:
  3592  0670  0008               	return
  3593  0671                     __end_of___xxtofl:
  3594                           
  3595                           	psect	text8
  3596  0671                     __ptext8:	
  3597 ;; *************** function ___fltol *****************
  3598 ;; Defined at:
  3599 ;;		line 43 in file "C:\Program Files\Microchip\xc8\v2.31\pic\sources\c90\common\fltol.c"
  3600 ;; Parameters:    Size  Location     Type
  3601 ;;  f1              4   56[BANK0 ] unsigned char 
  3602 ;; Auto vars:     Size  Location     Type
  3603 ;;  exp1            1   66[BANK0 ] unsigned char 
  3604 ;;  sign1           1   65[BANK0 ] unsigned char 
  3605 ;; Return value:  Size  Location     Type
  3606 ;;                  4   56[BANK0 ] long 
  3607 ;; Registers used:
  3608 ;;		wreg, status,2, status,0
  3609 ;; Tracked objects:
  3610 ;;		On entry : 0/0
  3611 ;;		On exit  : 0/0
  3612 ;;		Unchanged: 0/0
  3613 ;; Data sizes:     COMMON   BANK0   BANK1   BANK3   BANK2
  3614 ;;      Params:         0       4       0       0       0
  3615 ;;      Locals:         0       2       0       0       0
  3616 ;;      Temps:          0       5       0       0       0
  3617 ;;      Totals:         0      11       0       0       0
  3618 ;;Total ram usage:       11 bytes
  3619 ;; Hardware stack levels used:    1
  3620 ;; Hardware stack levels required when called:    1
  3621 ;; This function calls:
  3622 ;;		Nothing
  3623 ;; This function is called by:
  3624 ;;		_main
  3625 ;; This function uses a non-reentrant model
  3626 ;;
  3627                           
  3628                           
  3629                           ;psect for function ___fltol
  3630  0671                     ___fltol:
  3631  0671                     l2451:	
  3632                           ;incstack = 0
  3633                           ; Regs used in ___fltol: [wreg+status,2+status,0]
  3634                           
  3635  0671  1003               	clrc
  3636  0672  1283               	bcf	3,5	;RP0=0, select bank0
  3637  0673  1303               	bcf	3,6	;RP1=0, select bank0
  3638  0674  0D5A               	rlf	___fltol@f1+2,w
  3639  0675  0D5B               	rlf	___fltol@f1+3,w
  3640  0676  00DC               	movwf	??___fltol
  3641  0677  085C               	movf	??___fltol,w
  3642  0678  00E2               	movwf	___fltol@exp1
  3643  0679  0862               	movf	___fltol@exp1,w
  3644  067A  1D03               	btfss	3,2
  3645  067B  2E7D               	goto	u2211
  3646  067C  2E7E               	goto	u2210
  3647  067D                     u2211:
  3648  067D  2E87               	goto	l2457
  3649  067E                     u2210:
  3650  067E                     l2453:
  3651  067E  3000               	movlw	0
  3652  067F  00DB               	movwf	?___fltol+3
  3653  0680  3000               	movlw	0
  3654  0681  00DA               	movwf	?___fltol+2
  3655  0682  3000               	movlw	0
  3656  0683  00D9               	movwf	?___fltol+1
  3657  0684  3000               	movlw	0
  3658  0685  00D8               	movwf	?___fltol
  3659  0686  2EEC               	goto	l645
  3660  0687                     l2457:
  3661  0687  0858               	movf	___fltol@f1,w
  3662  0688  00DC               	movwf	??___fltol
  3663  0689  0859               	movf	___fltol@f1+1,w
  3664  068A  00DD               	movwf	??___fltol+1
  3665  068B  085A               	movf	___fltol@f1+2,w
  3666  068C  00DE               	movwf	??___fltol+2
  3667  068D  085B               	movf	___fltol@f1+3,w
  3668  068E  00DF               	movwf	??___fltol+3
  3669  068F  301F               	movlw	31
  3670  0690                     u2225:
  3671  0690  1003               	clrc
  3672  0691  0CDF               	rrf	??___fltol+3,f
  3673  0692  0CDE               	rrf	??___fltol+2,f
  3674  0693  0CDD               	rrf	??___fltol+1,f
  3675  0694  0CDC               	rrf	??___fltol,f
  3676  0695                     u2220:
  3677  0695  3EFF               	addlw	-1
  3678  0696  1D03               	skipz
  3679  0697  2E90               	goto	u2225
  3680  0698  085C               	movf	??___fltol,w
  3681  0699  00E0               	movwf	??___fltol+4
  3682  069A  0860               	movf	??___fltol+4,w
  3683  069B  00E1               	movwf	___fltol@sign1
  3684  069C                     l2459:
  3685  069C  17DA               	bsf	___fltol@f1+2,7
  3686  069D                     l2461:
  3687  069D  30FF               	movlw	255
  3688  069E  05D8               	andwf	___fltol@f1,f
  3689  069F  30FF               	movlw	255
  3690  06A0  05D9               	andwf	___fltol@f1+1,f
  3691  06A1  30FF               	movlw	255
  3692  06A2  05DA               	andwf	___fltol@f1+2,f
  3693  06A3  3000               	movlw	0
  3694  06A4  05DB               	andwf	___fltol@f1+3,f
  3695  06A5                     l2463:
  3696  06A5  3096               	movlw	150
  3697  06A6  02E2               	subwf	___fltol@exp1,f
  3698  06A7                     l2465:
  3699  06A7  1FE2               	btfss	___fltol@exp1,7
  3700  06A8  2EAA               	goto	u2231
  3701  06A9  2EAB               	goto	u2230
  3702  06AA                     u2231:
  3703  06AA  2EC5               	goto	l2475
  3704  06AB                     u2230:
  3705  06AB                     l2467:
  3706  06AB  0862               	movf	___fltol@exp1,w
  3707  06AC  3A80               	xorlw	128
  3708  06AD  3E97               	addlw	151
  3709  06AE  1803               	skipnc
  3710  06AF  2EB1               	goto	u2241
  3711  06B0  2EB2               	goto	u2240
  3712  06B1                     u2241:
  3713  06B1  2EB3               	goto	l2473
  3714  06B2                     u2240:
  3715  06B2  2E7E               	goto	l2453
  3716  06B3                     l2473:
  3717  06B3  3001               	movlw	1
  3718  06B4                     u2255:
  3719  06B4  1003               	clrc
  3720  06B5  0CDB               	rrf	___fltol@f1+3,f
  3721  06B6  0CDA               	rrf	___fltol@f1+2,f
  3722  06B7  0CD9               	rrf	___fltol@f1+1,f
  3723  06B8  0CD8               	rrf	___fltol@f1,f
  3724  06B9  3EFF               	addlw	-1
  3725  06BA  1D03               	skipz
  3726  06BB  2EB4               	goto	u2255
  3727  06BC  3001               	movlw	1
  3728  06BD  00DC               	movwf	??___fltol
  3729  06BE  085C               	movf	??___fltol,w
  3730  06BF  07E2               	addwf	___fltol@exp1,f
  3731  06C0  1D03               	btfss	3,2
  3732  06C1  2EC3               	goto	u2261
  3733  06C2  2EC4               	goto	u2260
  3734  06C3                     u2261:
  3735  06C3  2EB3               	goto	l2473
  3736  06C4                     u2260:
  3737  06C4  2EDC               	goto	l2483
  3738  06C5                     l2475:
  3739  06C5  3020               	movlw	32
  3740  06C6  0262               	subwf	___fltol@exp1,w
  3741  06C7  1C03               	skipc
  3742  06C8  2ECA               	goto	u2271
  3743  06C9  2ECB               	goto	u2270
  3744  06CA                     u2271:
  3745  06CA  2ED7               	goto	l652
  3746  06CB                     u2270:
  3747  06CB  2E7E               	goto	l2453
  3748  06CC                     l2481:
  3749  06CC  3001               	movlw	1
  3750  06CD  00DC               	movwf	??___fltol
  3751  06CE                     u2285:
  3752  06CE  1003               	clrc
  3753  06CF  0DD8               	rlf	___fltol@f1,f
  3754  06D0  0DD9               	rlf	___fltol@f1+1,f
  3755  06D1  0DDA               	rlf	___fltol@f1+2,f
  3756  06D2  0DDB               	rlf	___fltol@f1+3,f
  3757  06D3  0BDC               	decfsz	??___fltol,f
  3758  06D4  2ECE               	goto	u2285
  3759  06D5  3001               	movlw	1
  3760  06D6  02E2               	subwf	___fltol@exp1,f
  3761  06D7                     l652:
  3762  06D7  0862               	movf	___fltol@exp1,w
  3763  06D8  1D03               	btfss	3,2
  3764  06D9  2EDB               	goto	u2291
  3765  06DA  2EDC               	goto	u2290
  3766  06DB                     u2291:
  3767  06DB  2ECC               	goto	l2481
  3768  06DC                     u2290:
  3769  06DC                     l2483:
  3770  06DC  0861               	movf	___fltol@sign1,w
  3771  06DD  1903               	btfsc	3,2
  3772  06DE  2EE0               	goto	u2301
  3773  06DF  2EE1               	goto	u2300
  3774  06E0                     u2301:
  3775  06E0  2EEC               	goto	l655
  3776  06E1                     u2300:
  3777  06E1                     l2485:
  3778  06E1  09D8               	comf	___fltol@f1,f
  3779  06E2  09D9               	comf	___fltol@f1+1,f
  3780  06E3  09DA               	comf	___fltol@f1+2,f
  3781  06E4  09DB               	comf	___fltol@f1+3,f
  3782  06E5  0AD8               	incf	___fltol@f1,f
  3783  06E6  1903               	skipnz
  3784  06E7  0AD9               	incf	___fltol@f1+1,f
  3785  06E8  1903               	skipnz
  3786  06E9  0ADA               	incf	___fltol@f1+2,f
  3787  06EA  1903               	skipnz
  3788  06EB  0ADB               	incf	___fltol@f1+3,f
  3789  06EC                     l655:
  3790  06EC                     l645:
  3791  06EC  0008               	return
  3792  06ED                     __end_of___fltol:
  3793                           
  3794                           	psect	text9
  3795  0C9F                     __ptext9:	
  3796 ;; *************** function ___flmul *****************
  3797 ;; Defined at:
  3798 ;;		line 8 in file "C:\Program Files\Microchip\xc8\v2.31\pic\sources\c90\common\sprcmul.c"
  3799 ;; Parameters:    Size  Location     Type
  3800 ;;  b               4   10[BANK0 ] long 
  3801 ;;  a               4   14[BANK0 ] long 
  3802 ;; Auto vars:     Size  Location     Type
  3803 ;;  prod            4   30[BANK0 ] struct .
  3804 ;;  grs             4   24[BANK0 ] unsigned long 
  3805 ;;  temp            2   34[BANK0 ] struct .
  3806 ;;  bexp            1   29[BANK0 ] unsigned char 
  3807 ;;  aexp            1   28[BANK0 ] unsigned char 
  3808 ;;  sign            1   23[BANK0 ] unsigned char 
  3809 ;; Return value:  Size  Location     Type
  3810 ;;                  4   10[BANK0 ] unsigned char 
  3811 ;; Registers used:
  3812 ;;		wreg, status,2, status,0, btemp+1, pclath, cstack
  3813 ;; Tracked objects:
  3814 ;;		On entry : 0/0
  3815 ;;		On exit  : 0/0
  3816 ;;		Unchanged: 0/0
  3817 ;; Data sizes:     COMMON   BANK0   BANK1   BANK3   BANK2
  3818 ;;      Params:         0       8       0       0       0
  3819 ;;      Locals:         0      13       0       0       0
  3820 ;;      Temps:          0       5       0       0       0
  3821 ;;      Totals:         0      26       0       0       0
  3822 ;;Total ram usage:       26 bytes
  3823 ;; Hardware stack levels used:    1
  3824 ;; Hardware stack levels required when called:    2
  3825 ;; This function calls:
  3826 ;;		__Umul8_16
  3827 ;; This function is called by:
  3828 ;;		_main
  3829 ;; This function uses a non-reentrant model
  3830 ;;
  3831                           
  3832                           
  3833                           ;psect for function ___flmul
  3834  0C9F                     ___flmul:
  3835  0C9F                     l2681:	
  3836                           ;incstack = 0
  3837                           ; Regs used in ___flmul: [wreg+status,2+status,0+btemp+1+pclath+cstack]
  3838                           
  3839  0C9F  1283               	bcf	3,5	;RP0=0, select bank0
  3840  0CA0  1303               	bcf	3,6	;RP1=0, select bank0
  3841  0CA1  082D               	movf	___flmul@b+3,w
  3842  0CA2  3980               	andlw	128
  3843  0CA3  00B2               	movwf	??___flmul
  3844  0CA4  0832               	movf	??___flmul,w
  3845  0CA5  00B7               	movwf	___flmul@sign
  3846  0CA6                     l2683:
  3847  0CA6  082D               	movf	___flmul@b+3,w
  3848  0CA7  00B2               	movwf	??___flmul
  3849  0CA8  0732               	addwf	??___flmul,w
  3850  0CA9  00B3               	movwf	??___flmul+1
  3851  0CAA  0833               	movf	??___flmul+1,w
  3852  0CAB  00BD               	movwf	___flmul@bexp
  3853  0CAC                     l2685:
  3854  0CAC  1FAC               	btfss	___flmul@b+2,7
  3855  0CAD  2CAF               	goto	u2771
  3856  0CAE  2CB0               	goto	u2770
  3857  0CAF                     u2771:
  3858  0CAF  2CB1               	goto	l2689
  3859  0CB0                     u2770:
  3860  0CB0                     l2687:
  3861  0CB0  143D               	bsf	___flmul@bexp,0
  3862  0CB1                     l2689:
  3863  0CB1  083D               	movf	___flmul@bexp,w
  3864  0CB2  1903               	btfsc	3,2
  3865  0CB3  2CB5               	goto	u2781
  3866  0CB4  2CB6               	goto	u2780
  3867  0CB5                     u2781:
  3868  0CB5  2CC5               	goto	l2697
  3869  0CB6                     u2780:
  3870  0CB6                     l2691:
  3871  0CB6  0A3D               	incf	___flmul@bexp,w
  3872  0CB7  1D03               	btfss	3,2
  3873  0CB8  2CBA               	goto	u2791
  3874  0CB9  2CBB               	goto	u2790
  3875  0CBA                     u2791:
  3876  0CBA  2CC3               	goto	l2695
  3877  0CBB                     u2790:
  3878  0CBB                     l2693:
  3879  0CBB  3000               	movlw	0
  3880  0CBC  00AD               	movwf	___flmul@b+3
  3881  0CBD  3000               	movlw	0
  3882  0CBE  00AC               	movwf	___flmul@b+2
  3883  0CBF  3000               	movlw	0
  3884  0CC0  00AB               	movwf	___flmul@b+1
  3885  0CC1  3000               	movlw	0
  3886  0CC2  00AA               	movwf	___flmul@b
  3887  0CC3                     l2695:
  3888  0CC3  17AC               	bsf	___flmul@b+2,7
  3889  0CC4  2CCD               	goto	l2699
  3890  0CC5                     l2697:
  3891  0CC5  3000               	movlw	0
  3892  0CC6  00AD               	movwf	___flmul@b+3
  3893  0CC7  3000               	movlw	0
  3894  0CC8  00AC               	movwf	___flmul@b+2
  3895  0CC9  3000               	movlw	0
  3896  0CCA  00AB               	movwf	___flmul@b+1
  3897  0CCB  3000               	movlw	0
  3898  0CCC  00AA               	movwf	___flmul@b
  3899  0CCD                     l2699:
  3900  0CCD  0831               	movf	___flmul@a+3,w
  3901  0CCE  3980               	andlw	128
  3902  0CCF  00B2               	movwf	??___flmul
  3903  0CD0  0832               	movf	??___flmul,w
  3904  0CD1  06B7               	xorwf	___flmul@sign,f
  3905  0CD2                     l2701:
  3906  0CD2  0831               	movf	___flmul@a+3,w
  3907  0CD3  00B2               	movwf	??___flmul
  3908  0CD4  0732               	addwf	??___flmul,w
  3909  0CD5  00B3               	movwf	??___flmul+1
  3910  0CD6  0833               	movf	??___flmul+1,w
  3911  0CD7  00BC               	movwf	___flmul@aexp
  3912  0CD8                     l2703:
  3913  0CD8  1FB0               	btfss	___flmul@a+2,7
  3914  0CD9  2CDB               	goto	u2801
  3915  0CDA  2CDC               	goto	u2800
  3916  0CDB                     u2801:
  3917  0CDB  2CDD               	goto	l2707
  3918  0CDC                     u2800:
  3919  0CDC                     l2705:
  3920  0CDC  143C               	bsf	___flmul@aexp,0
  3921  0CDD                     l2707:
  3922  0CDD  083C               	movf	___flmul@aexp,w
  3923  0CDE  1903               	btfsc	3,2
  3924  0CDF  2CE1               	goto	u2811
  3925  0CE0  2CE2               	goto	u2810
  3926  0CE1                     u2811:
  3927  0CE1  2CF1               	goto	l2715
  3928  0CE2                     u2810:
  3929  0CE2                     l2709:
  3930  0CE2  0A3C               	incf	___flmul@aexp,w
  3931  0CE3  1D03               	btfss	3,2
  3932  0CE4  2CE6               	goto	u2821
  3933  0CE5  2CE7               	goto	u2820
  3934  0CE6                     u2821:
  3935  0CE6  2CEF               	goto	l2713
  3936  0CE7                     u2820:
  3937  0CE7                     l2711:
  3938  0CE7  3000               	movlw	0
  3939  0CE8  00B1               	movwf	___flmul@a+3
  3940  0CE9  3000               	movlw	0
  3941  0CEA  00B0               	movwf	___flmul@a+2
  3942  0CEB  3000               	movlw	0
  3943  0CEC  00AF               	movwf	___flmul@a+1
  3944  0CED  3000               	movlw	0
  3945  0CEE  00AE               	movwf	___flmul@a
  3946  0CEF                     l2713:
  3947  0CEF  17B0               	bsf	___flmul@a+2,7
  3948  0CF0  2CF9               	goto	l2717
  3949  0CF1                     l2715:
  3950  0CF1  3000               	movlw	0
  3951  0CF2  00B1               	movwf	___flmul@a+3
  3952  0CF3  3000               	movlw	0
  3953  0CF4  00B0               	movwf	___flmul@a+2
  3954  0CF5  3000               	movlw	0
  3955  0CF6  00AF               	movwf	___flmul@a+1
  3956  0CF7  3000               	movlw	0
  3957  0CF8  00AE               	movwf	___flmul@a
  3958  0CF9                     l2717:
  3959  0CF9  083C               	movf	___flmul@aexp,w
  3960  0CFA  1903               	btfsc	3,2
  3961  0CFB  2CFD               	goto	u2831
  3962  0CFC  2CFE               	goto	u2830
  3963  0CFD                     u2831:
  3964  0CFD  2D03               	goto	l2721
  3965  0CFE                     u2830:
  3966  0CFE                     l2719:
  3967  0CFE  083D               	movf	___flmul@bexp,w
  3968  0CFF  1D03               	btfss	3,2
  3969  0D00  2D02               	goto	u2841
  3970  0D01  2D03               	goto	u2840
  3971  0D02                     u2841:
  3972  0D02  2D0C               	goto	l2725
  3973  0D03                     u2840:
  3974  0D03                     l2721:
  3975  0D03  3000               	movlw	0
  3976  0D04  00AD               	movwf	?___flmul+3
  3977  0D05  3000               	movlw	0
  3978  0D06  00AC               	movwf	?___flmul+2
  3979  0D07  3000               	movlw	0
  3980  0D08  00AB               	movwf	?___flmul+1
  3981  0D09  3000               	movlw	0
  3982  0D0A  00AA               	movwf	?___flmul
  3983  0D0B  2FFF               	goto	l848
  3984  0D0C                     l2725:
  3985  0D0C  082A               	movf	___flmul@b,w
  3986  0D0D  00B2               	movwf	??___flmul
  3987  0D0E  0832               	movf	??___flmul,w
  3988  0D0F  00F3               	movwf	__Umul8_16@multiplicand
  3989  0D10  0830               	movf	___flmul@a+2,w
  3990  0D11  160A  118A  24BD  120A  158A  	fcall	__Umul8_16
  3991  0D16  0874               	movf	?__Umul8_16+1,w
  3992  0D17  1283               	bcf	3,5	;RP0=0, select bank0
  3993  0D18  1303               	bcf	3,6	;RP1=0, select bank0
  3994  0D19  00C3               	movwf	___flmul@temp+1
  3995  0D1A  0873               	movf	?__Umul8_16,w
  3996  0D1B  00C2               	movwf	___flmul@temp
  3997  0D1C                     l2727:
  3998  0D1C  0842               	movf	___flmul@temp,w
  3999  0D1D  00B2               	movwf	??___flmul
  4000  0D1E  01B3               	clrf	??___flmul+1
  4001  0D1F  01B4               	clrf	??___flmul+2
  4002  0D20  01B5               	clrf	??___flmul+3
  4003  0D21  0835               	movf	??___flmul+3,w
  4004  0D22  00BB               	movwf	___flmul@grs+3
  4005  0D23  0834               	movf	??___flmul+2,w
  4006  0D24  00BA               	movwf	___flmul@grs+2
  4007  0D25  0833               	movf	??___flmul+1,w
  4008  0D26  00B9               	movwf	___flmul@grs+1
  4009  0D27  0832               	movf	??___flmul,w
  4010  0D28  00B8               	movwf	___flmul@grs
  4011  0D29                     l2729:
  4012  0D29  0843               	movf	___flmul@temp+1,w
  4013  0D2A  00B2               	movwf	??___flmul
  4014  0D2B  01B3               	clrf	??___flmul+1
  4015  0D2C  01B4               	clrf	??___flmul+2
  4016  0D2D  01B5               	clrf	??___flmul+3
  4017  0D2E  0835               	movf	??___flmul+3,w
  4018  0D2F  00C1               	movwf	___flmul@prod+3
  4019  0D30  0834               	movf	??___flmul+2,w
  4020  0D31  00C0               	movwf	___flmul@prod+2
  4021  0D32  0833               	movf	??___flmul+1,w
  4022  0D33  00BF               	movwf	___flmul@prod+1
  4023  0D34  0832               	movf	??___flmul,w
  4024  0D35  00BE               	movwf	___flmul@prod
  4025  0D36  082B               	movf	___flmul@b+1,w
  4026  0D37  00B2               	movwf	??___flmul
  4027  0D38  0832               	movf	??___flmul,w
  4028  0D39  00F3               	movwf	__Umul8_16@multiplicand
  4029  0D3A  082F               	movf	___flmul@a+1,w
  4030  0D3B  160A  118A  24BD  120A  158A  	fcall	__Umul8_16
  4031  0D40  0874               	movf	?__Umul8_16+1,w
  4032  0D41  1283               	bcf	3,5	;RP0=0, select bank0
  4033  0D42  1303               	bcf	3,6	;RP1=0, select bank0
  4034  0D43  00C3               	movwf	___flmul@temp+1
  4035  0D44  0873               	movf	?__Umul8_16,w
  4036  0D45  00C2               	movwf	___flmul@temp
  4037  0D46                     l2731:
  4038  0D46  0842               	movf	___flmul@temp,w
  4039  0D47  00B2               	movwf	??___flmul
  4040  0D48  01B3               	clrf	??___flmul+1
  4041  0D49  01B4               	clrf	??___flmul+2
  4042  0D4A  01B5               	clrf	??___flmul+3
  4043  0D4B  0832               	movf	??___flmul,w
  4044  0D4C  07B8               	addwf	___flmul@grs,f
  4045  0D4D  0833               	movf	??___flmul+1,w
  4046  0D4E  1103               	clrz
  4047  0D4F  1803               	skipnc
  4048  0D50  3E01               	addlw	1
  4049  0D51  1903               	skipnz
  4050  0D52  2D54               	goto	u2851
  4051  0D53  07B9               	addwf	___flmul@grs+1,f
  4052  0D54                     u2851:
  4053  0D54  0834               	movf	??___flmul+2,w
  4054  0D55  1103               	clrz
  4055  0D56  1803               	skipnc
  4056  0D57  3E01               	addlw	1
  4057  0D58  1903               	skipnz
  4058  0D59  2D5B               	goto	u2852
  4059  0D5A  07BA               	addwf	___flmul@grs+2,f
  4060  0D5B                     u2852:
  4061  0D5B  0835               	movf	??___flmul+3,w
  4062  0D5C  1103               	clrz
  4063  0D5D  1803               	skipnc
  4064  0D5E  3E01               	addlw	1
  4065  0D5F  1903               	skipnz
  4066  0D60  2D62               	goto	u2853
  4067  0D61  07BB               	addwf	___flmul@grs+3,f
  4068  0D62                     u2853:
  4069  0D62                     l2733:
  4070  0D62  0843               	movf	___flmul@temp+1,w
  4071  0D63  00B2               	movwf	??___flmul
  4072  0D64  01B3               	clrf	??___flmul+1
  4073  0D65  01B4               	clrf	??___flmul+2
  4074  0D66  01B5               	clrf	??___flmul+3
  4075  0D67  0832               	movf	??___flmul,w
  4076  0D68  07BE               	addwf	___flmul@prod,f
  4077  0D69  0833               	movf	??___flmul+1,w
  4078  0D6A  1103               	clrz
  4079  0D6B  1803               	skipnc
  4080  0D6C  3E01               	addlw	1
  4081  0D6D  1903               	skipnz
  4082  0D6E  2D70               	goto	u2861
  4083  0D6F  07BF               	addwf	___flmul@prod+1,f
  4084  0D70                     u2861:
  4085  0D70  0834               	movf	??___flmul+2,w
  4086  0D71  1103               	clrz
  4087  0D72  1803               	skipnc
  4088  0D73  3E01               	addlw	1
  4089  0D74  1903               	skipnz
  4090  0D75  2D77               	goto	u2862
  4091  0D76  07C0               	addwf	___flmul@prod+2,f
  4092  0D77                     u2862:
  4093  0D77  0835               	movf	??___flmul+3,w
  4094  0D78  1103               	clrz
  4095  0D79  1803               	skipnc
  4096  0D7A  3E01               	addlw	1
  4097  0D7B  1903               	skipnz
  4098  0D7C  2D7E               	goto	u2863
  4099  0D7D  07C1               	addwf	___flmul@prod+3,f
  4100  0D7E                     u2863:
  4101  0D7E  082C               	movf	___flmul@b+2,w
  4102  0D7F  00B2               	movwf	??___flmul
  4103  0D80  0832               	movf	??___flmul,w
  4104  0D81  00F3               	movwf	__Umul8_16@multiplicand
  4105  0D82  082E               	movf	___flmul@a,w
  4106  0D83  160A  118A  24BD  120A  158A  	fcall	__Umul8_16
  4107  0D88  0874               	movf	?__Umul8_16+1,w
  4108  0D89  1283               	bcf	3,5	;RP0=0, select bank0
  4109  0D8A  1303               	bcf	3,6	;RP1=0, select bank0
  4110  0D8B  00C3               	movwf	___flmul@temp+1
  4111  0D8C  0873               	movf	?__Umul8_16,w
  4112  0D8D  00C2               	movwf	___flmul@temp
  4113  0D8E                     l2735:
  4114  0D8E  0842               	movf	___flmul@temp,w
  4115  0D8F  00B2               	movwf	??___flmul
  4116  0D90  01B3               	clrf	??___flmul+1
  4117  0D91  01B4               	clrf	??___flmul+2
  4118  0D92  01B5               	clrf	??___flmul+3
  4119  0D93  0832               	movf	??___flmul,w
  4120  0D94  07B8               	addwf	___flmul@grs,f
  4121  0D95  0833               	movf	??___flmul+1,w
  4122  0D96  1103               	clrz
  4123  0D97  1803               	skipnc
  4124  0D98  3E01               	addlw	1
  4125  0D99  1903               	skipnz
  4126  0D9A  2D9C               	goto	u2871
  4127  0D9B  07B9               	addwf	___flmul@grs+1,f
  4128  0D9C                     u2871:
  4129  0D9C  0834               	movf	??___flmul+2,w
  4130  0D9D  1103               	clrz
  4131  0D9E  1803               	skipnc
  4132  0D9F  3E01               	addlw	1
  4133  0DA0  1903               	skipnz
  4134  0DA1  2DA3               	goto	u2872
  4135  0DA2  07BA               	addwf	___flmul@grs+2,f
  4136  0DA3                     u2872:
  4137  0DA3  0835               	movf	??___flmul+3,w
  4138  0DA4  1103               	clrz
  4139  0DA5  1803               	skipnc
  4140  0DA6  3E01               	addlw	1
  4141  0DA7  1903               	skipnz
  4142  0DA8  2DAA               	goto	u2873
  4143  0DA9  07BB               	addwf	___flmul@grs+3,f
  4144  0DAA                     u2873:
  4145  0DAA                     l2737:
  4146  0DAA  0843               	movf	___flmul@temp+1,w
  4147  0DAB  00B2               	movwf	??___flmul
  4148  0DAC  01B3               	clrf	??___flmul+1
  4149  0DAD  01B4               	clrf	??___flmul+2
  4150  0DAE  01B5               	clrf	??___flmul+3
  4151  0DAF  0832               	movf	??___flmul,w
  4152  0DB0  07BE               	addwf	___flmul@prod,f
  4153  0DB1  0833               	movf	??___flmul+1,w
  4154  0DB2  1103               	clrz
  4155  0DB3  1803               	skipnc
  4156  0DB4  3E01               	addlw	1
  4157  0DB5  1903               	skipnz
  4158  0DB6  2DB8               	goto	u2881
  4159  0DB7  07BF               	addwf	___flmul@prod+1,f
  4160  0DB8                     u2881:
  4161  0DB8  0834               	movf	??___flmul+2,w
  4162  0DB9  1103               	clrz
  4163  0DBA  1803               	skipnc
  4164  0DBB  3E01               	addlw	1
  4165  0DBC  1903               	skipnz
  4166  0DBD  2DBF               	goto	u2882
  4167  0DBE  07C0               	addwf	___flmul@prod+2,f
  4168  0DBF                     u2882:
  4169  0DBF  0835               	movf	??___flmul+3,w
  4170  0DC0  1103               	clrz
  4171  0DC1  1803               	skipnc
  4172  0DC2  3E01               	addlw	1
  4173  0DC3  1903               	skipnz
  4174  0DC4  2DC6               	goto	u2883
  4175  0DC5  07C1               	addwf	___flmul@prod+3,f
  4176  0DC6                     u2883:
  4177  0DC6                     l2739:
  4178  0DC6  3008               	movlw	8
  4179  0DC7  00B2               	movwf	??___flmul
  4180  0DC8                     u2895:
  4181  0DC8  1003               	clrc
  4182  0DC9  0DB8               	rlf	___flmul@grs,f
  4183  0DCA  0DB9               	rlf	___flmul@grs+1,f
  4184  0DCB  0DBA               	rlf	___flmul@grs+2,f
  4185  0DCC  0DBB               	rlf	___flmul@grs+3,f
  4186  0DCD  0BB2               	decfsz	??___flmul,f
  4187  0DCE  2DC8               	goto	u2895
  4188  0DCF                     l2741:
  4189  0DCF  082B               	movf	___flmul@b+1,w
  4190  0DD0  00B2               	movwf	??___flmul
  4191  0DD1  0832               	movf	??___flmul,w
  4192  0DD2  00F3               	movwf	__Umul8_16@multiplicand
  4193  0DD3  082E               	movf	___flmul@a,w
  4194  0DD4  160A  118A  24BD  120A  158A  	fcall	__Umul8_16
  4195  0DD9  0874               	movf	?__Umul8_16+1,w
  4196  0DDA  1283               	bcf	3,5	;RP0=0, select bank0
  4197  0DDB  1303               	bcf	3,6	;RP1=0, select bank0
  4198  0DDC  00C3               	movwf	___flmul@temp+1
  4199  0DDD  0873               	movf	?__Umul8_16,w
  4200  0DDE  00C2               	movwf	___flmul@temp
  4201  0DDF                     l2743:
  4202  0DDF  0842               	movf	___flmul@temp,w
  4203  0DE0  00B2               	movwf	??___flmul
  4204  0DE1  0843               	movf	___flmul@temp+1,w
  4205  0DE2  00B3               	movwf	??___flmul+1
  4206  0DE3  01B4               	clrf	??___flmul+2
  4207  0DE4  01B5               	clrf	??___flmul+3
  4208  0DE5  0832               	movf	??___flmul,w
  4209  0DE6  07B8               	addwf	___flmul@grs,f
  4210  0DE7  0833               	movf	??___flmul+1,w
  4211  0DE8  1103               	clrz
  4212  0DE9  1803               	skipnc
  4213  0DEA  3E01               	addlw	1
  4214  0DEB  1903               	skipnz
  4215  0DEC  2DEE               	goto	u2901
  4216  0DED  07B9               	addwf	___flmul@grs+1,f
  4217  0DEE                     u2901:
  4218  0DEE  0834               	movf	??___flmul+2,w
  4219  0DEF  1103               	clrz
  4220  0DF0  1803               	skipnc
  4221  0DF1  3E01               	addlw	1
  4222  0DF2  1903               	skipnz
  4223  0DF3  2DF5               	goto	u2902
  4224  0DF4  07BA               	addwf	___flmul@grs+2,f
  4225  0DF5                     u2902:
  4226  0DF5  0835               	movf	??___flmul+3,w
  4227  0DF6  1103               	clrz
  4228  0DF7  1803               	skipnc
  4229  0DF8  3E01               	addlw	1
  4230  0DF9  1903               	skipnz
  4231  0DFA  2DFC               	goto	u2903
  4232  0DFB  07BB               	addwf	___flmul@grs+3,f
  4233  0DFC                     u2903:
  4234  0DFC                     l2745:
  4235  0DFC  082A               	movf	___flmul@b,w
  4236  0DFD  00B2               	movwf	??___flmul
  4237  0DFE  0832               	movf	??___flmul,w
  4238  0DFF  00F3               	movwf	__Umul8_16@multiplicand
  4239  0E00  082F               	movf	___flmul@a+1,w
  4240  0E01  160A  118A  24BD  120A  158A  	fcall	__Umul8_16
  4241  0E06  0874               	movf	?__Umul8_16+1,w
  4242  0E07  1283               	bcf	3,5	;RP0=0, select bank0
  4243  0E08  1303               	bcf	3,6	;RP1=0, select bank0
  4244  0E09  00C3               	movwf	___flmul@temp+1
  4245  0E0A  0873               	movf	?__Umul8_16,w
  4246  0E0B  00C2               	movwf	___flmul@temp
  4247  0E0C                     l2747:
  4248  0E0C  0842               	movf	___flmul@temp,w
  4249  0E0D  00B2               	movwf	??___flmul
  4250  0E0E  0843               	movf	___flmul@temp+1,w
  4251  0E0F  00B3               	movwf	??___flmul+1
  4252  0E10  01B4               	clrf	??___flmul+2
  4253  0E11  01B5               	clrf	??___flmul+3
  4254  0E12  0832               	movf	??___flmul,w
  4255  0E13  07B8               	addwf	___flmul@grs,f
  4256  0E14  0833               	movf	??___flmul+1,w
  4257  0E15  1103               	clrz
  4258  0E16  1803               	skipnc
  4259  0E17  3E01               	addlw	1
  4260  0E18  1903               	skipnz
  4261  0E19  2E1B               	goto	u2911
  4262  0E1A  07B9               	addwf	___flmul@grs+1,f
  4263  0E1B                     u2911:
  4264  0E1B  0834               	movf	??___flmul+2,w
  4265  0E1C  1103               	clrz
  4266  0E1D  1803               	skipnc
  4267  0E1E  3E01               	addlw	1
  4268  0E1F  1903               	skipnz
  4269  0E20  2E22               	goto	u2912
  4270  0E21  07BA               	addwf	___flmul@grs+2,f
  4271  0E22                     u2912:
  4272  0E22  0835               	movf	??___flmul+3,w
  4273  0E23  1103               	clrz
  4274  0E24  1803               	skipnc
  4275  0E25  3E01               	addlw	1
  4276  0E26  1903               	skipnz
  4277  0E27  2E29               	goto	u2913
  4278  0E28  07BB               	addwf	___flmul@grs+3,f
  4279  0E29                     u2913:
  4280  0E29                     l2749:
  4281  0E29  3008               	movlw	8
  4282  0E2A  00B2               	movwf	??___flmul
  4283  0E2B                     u2925:
  4284  0E2B  1003               	clrc
  4285  0E2C  0DB8               	rlf	___flmul@grs,f
  4286  0E2D  0DB9               	rlf	___flmul@grs+1,f
  4287  0E2E  0DBA               	rlf	___flmul@grs+2,f
  4288  0E2F  0DBB               	rlf	___flmul@grs+3,f
  4289  0E30  0BB2               	decfsz	??___flmul,f
  4290  0E31  2E2B               	goto	u2925
  4291  0E32  082A               	movf	___flmul@b,w
  4292  0E33  00B2               	movwf	??___flmul
  4293  0E34  0832               	movf	??___flmul,w
  4294  0E35  00F3               	movwf	__Umul8_16@multiplicand
  4295  0E36  082E               	movf	___flmul@a,w
  4296  0E37  160A  118A  24BD  120A  158A  	fcall	__Umul8_16
  4297  0E3C  0874               	movf	?__Umul8_16+1,w
  4298  0E3D  1283               	bcf	3,5	;RP0=0, select bank0
  4299  0E3E  1303               	bcf	3,6	;RP1=0, select bank0
  4300  0E3F  00C3               	movwf	___flmul@temp+1
  4301  0E40  0873               	movf	?__Umul8_16,w
  4302  0E41  00C2               	movwf	___flmul@temp
  4303  0E42                     l2751:
  4304  0E42  0842               	movf	___flmul@temp,w
  4305  0E43  00B2               	movwf	??___flmul
  4306  0E44  0843               	movf	___flmul@temp+1,w
  4307  0E45  00B3               	movwf	??___flmul+1
  4308  0E46  01B4               	clrf	??___flmul+2
  4309  0E47  01B5               	clrf	??___flmul+3
  4310  0E48  0832               	movf	??___flmul,w
  4311  0E49  07B8               	addwf	___flmul@grs,f
  4312  0E4A  0833               	movf	??___flmul+1,w
  4313  0E4B  1103               	clrz
  4314  0E4C  1803               	skipnc
  4315  0E4D  3E01               	addlw	1
  4316  0E4E  1903               	skipnz
  4317  0E4F  2E51               	goto	u2931
  4318  0E50  07B9               	addwf	___flmul@grs+1,f
  4319  0E51                     u2931:
  4320  0E51  0834               	movf	??___flmul+2,w
  4321  0E52  1103               	clrz
  4322  0E53  1803               	skipnc
  4323  0E54  3E01               	addlw	1
  4324  0E55  1903               	skipnz
  4325  0E56  2E58               	goto	u2932
  4326  0E57  07BA               	addwf	___flmul@grs+2,f
  4327  0E58                     u2932:
  4328  0E58  0835               	movf	??___flmul+3,w
  4329  0E59  1103               	clrz
  4330  0E5A  1803               	skipnc
  4331  0E5B  3E01               	addlw	1
  4332  0E5C  1903               	skipnz
  4333  0E5D  2E5F               	goto	u2933
  4334  0E5E  07BB               	addwf	___flmul@grs+3,f
  4335  0E5F                     u2933:
  4336  0E5F                     l2753:
  4337  0E5F  082B               	movf	___flmul@b+1,w
  4338  0E60  00B2               	movwf	??___flmul
  4339  0E61  0832               	movf	??___flmul,w
  4340  0E62  00F3               	movwf	__Umul8_16@multiplicand
  4341  0E63  0830               	movf	___flmul@a+2,w
  4342  0E64  160A  118A  24BD  120A  158A  	fcall	__Umul8_16
  4343  0E69  0874               	movf	?__Umul8_16+1,w
  4344  0E6A  1283               	bcf	3,5	;RP0=0, select bank0
  4345  0E6B  1303               	bcf	3,6	;RP1=0, select bank0
  4346  0E6C  00C3               	movwf	___flmul@temp+1
  4347  0E6D  0873               	movf	?__Umul8_16,w
  4348  0E6E  00C2               	movwf	___flmul@temp
  4349  0E6F  0842               	movf	___flmul@temp,w
  4350  0E70  00B2               	movwf	??___flmul
  4351  0E71  0843               	movf	___flmul@temp+1,w
  4352  0E72  00B3               	movwf	??___flmul+1
  4353  0E73  01B4               	clrf	??___flmul+2
  4354  0E74  01B5               	clrf	??___flmul+3
  4355  0E75  0832               	movf	??___flmul,w
  4356  0E76  07BE               	addwf	___flmul@prod,f
  4357  0E77  0833               	movf	??___flmul+1,w
  4358  0E78  1103               	clrz
  4359  0E79  1803               	skipnc
  4360  0E7A  3E01               	addlw	1
  4361  0E7B  1903               	skipnz
  4362  0E7C  2E7E               	goto	u2941
  4363  0E7D  07BF               	addwf	___flmul@prod+1,f
  4364  0E7E                     u2941:
  4365  0E7E  0834               	movf	??___flmul+2,w
  4366  0E7F  1103               	clrz
  4367  0E80  1803               	skipnc
  4368  0E81  3E01               	addlw	1
  4369  0E82  1903               	skipnz
  4370  0E83  2E85               	goto	u2942
  4371  0E84  07C0               	addwf	___flmul@prod+2,f
  4372  0E85                     u2942:
  4373  0E85  0835               	movf	??___flmul+3,w
  4374  0E86  1103               	clrz
  4375  0E87  1803               	skipnc
  4376  0E88  3E01               	addlw	1
  4377  0E89  1903               	skipnz
  4378  0E8A  2E8C               	goto	u2943
  4379  0E8B  07C1               	addwf	___flmul@prod+3,f
  4380  0E8C                     u2943:
  4381  0E8C                     l2755:
  4382  0E8C  082C               	movf	___flmul@b+2,w
  4383  0E8D  00B2               	movwf	??___flmul
  4384  0E8E  0832               	movf	??___flmul,w
  4385  0E8F  00F3               	movwf	__Umul8_16@multiplicand
  4386  0E90  082F               	movf	___flmul@a+1,w
  4387  0E91  160A  118A  24BD  120A  158A  	fcall	__Umul8_16
  4388  0E96  0874               	movf	?__Umul8_16+1,w
  4389  0E97  1283               	bcf	3,5	;RP0=0, select bank0
  4390  0E98  1303               	bcf	3,6	;RP1=0, select bank0
  4391  0E99  00C3               	movwf	___flmul@temp+1
  4392  0E9A  0873               	movf	?__Umul8_16,w
  4393  0E9B  00C2               	movwf	___flmul@temp
  4394  0E9C                     l2757:
  4395  0E9C  0842               	movf	___flmul@temp,w
  4396  0E9D  00B2               	movwf	??___flmul
  4397  0E9E  0843               	movf	___flmul@temp+1,w
  4398  0E9F  00B3               	movwf	??___flmul+1
  4399  0EA0  01B4               	clrf	??___flmul+2
  4400  0EA1  01B5               	clrf	??___flmul+3
  4401  0EA2  0832               	movf	??___flmul,w
  4402  0EA3  07BE               	addwf	___flmul@prod,f
  4403  0EA4  0833               	movf	??___flmul+1,w
  4404  0EA5  1103               	clrz
  4405  0EA6  1803               	skipnc
  4406  0EA7  3E01               	addlw	1
  4407  0EA8  1903               	skipnz
  4408  0EA9  2EAB               	goto	u2951
  4409  0EAA  07BF               	addwf	___flmul@prod+1,f
  4410  0EAB                     u2951:
  4411  0EAB  0834               	movf	??___flmul+2,w
  4412  0EAC  1103               	clrz
  4413  0EAD  1803               	skipnc
  4414  0EAE  3E01               	addlw	1
  4415  0EAF  1903               	skipnz
  4416  0EB0  2EB2               	goto	u2952
  4417  0EB1  07C0               	addwf	___flmul@prod+2,f
  4418  0EB2                     u2952:
  4419  0EB2  0835               	movf	??___flmul+3,w
  4420  0EB3  1103               	clrz
  4421  0EB4  1803               	skipnc
  4422  0EB5  3E01               	addlw	1
  4423  0EB6  1903               	skipnz
  4424  0EB7  2EB9               	goto	u2953
  4425  0EB8  07C1               	addwf	___flmul@prod+3,f
  4426  0EB9                     u2953:
  4427  0EB9  082C               	movf	___flmul@b+2,w
  4428  0EBA  00B2               	movwf	??___flmul
  4429  0EBB  0832               	movf	??___flmul,w
  4430  0EBC  00F3               	movwf	__Umul8_16@multiplicand
  4431  0EBD  0830               	movf	___flmul@a+2,w
  4432  0EBE  160A  118A  24BD  120A  158A  	fcall	__Umul8_16
  4433  0EC3  0874               	movf	?__Umul8_16+1,w
  4434  0EC4  1283               	bcf	3,5	;RP0=0, select bank0
  4435  0EC5  1303               	bcf	3,6	;RP1=0, select bank0
  4436  0EC6  00C3               	movwf	___flmul@temp+1
  4437  0EC7  0873               	movf	?__Umul8_16,w
  4438  0EC8  00C2               	movwf	___flmul@temp
  4439  0EC9                     l2759:
  4440  0EC9  0842               	movf	___flmul@temp,w
  4441  0ECA  00B2               	movwf	??___flmul
  4442  0ECB  0843               	movf	___flmul@temp+1,w
  4443  0ECC  00B3               	movwf	??___flmul+1
  4444  0ECD  01B4               	clrf	??___flmul+2
  4445  0ECE  01B5               	clrf	??___flmul+3
  4446  0ECF  3008               	movlw	8
  4447  0ED0                     u2965:
  4448  0ED0  1003               	clrc
  4449  0ED1  0DB2               	rlf	??___flmul,f
  4450  0ED2  0DB3               	rlf	??___flmul+1,f
  4451  0ED3  0DB4               	rlf	??___flmul+2,f
  4452  0ED4  0DB5               	rlf	??___flmul+3,f
  4453  0ED5                     u2960:
  4454  0ED5  3EFF               	addlw	-1
  4455  0ED6  1D03               	skipz
  4456  0ED7  2ED0               	goto	u2965
  4457  0ED8  0832               	movf	??___flmul,w
  4458  0ED9  07BE               	addwf	___flmul@prod,f
  4459  0EDA  0833               	movf	??___flmul+1,w
  4460  0EDB  1103               	clrz
  4461  0EDC  1803               	skipnc
  4462  0EDD  3E01               	addlw	1
  4463  0EDE  1903               	skipnz
  4464  0EDF  2EE1               	goto	u2971
  4465  0EE0  07BF               	addwf	___flmul@prod+1,f
  4466  0EE1                     u2971:
  4467  0EE1  0834               	movf	??___flmul+2,w
  4468  0EE2  1103               	clrz
  4469  0EE3  1803               	skipnc
  4470  0EE4  3E01               	addlw	1
  4471  0EE5  1903               	skipnz
  4472  0EE6  2EE8               	goto	u2972
  4473  0EE7  07C0               	addwf	___flmul@prod+2,f
  4474  0EE8                     u2972:
  4475  0EE8  0835               	movf	??___flmul+3,w
  4476  0EE9  1103               	clrz
  4477  0EEA  1803               	skipnc
  4478  0EEB  3E01               	addlw	1
  4479  0EEC  1903               	skipnz
  4480  0EED  2EEF               	goto	u2973
  4481  0EEE  07C1               	addwf	___flmul@prod+3,f
  4482  0EEF                     u2973:
  4483  0EEF                     l2761:
  4484  0EEF  0838               	movf	___flmul@grs,w
  4485  0EF0  00B2               	movwf	??___flmul
  4486  0EF1  0839               	movf	___flmul@grs+1,w
  4487  0EF2  00B3               	movwf	??___flmul+1
  4488  0EF3  083A               	movf	___flmul@grs+2,w
  4489  0EF4  00B4               	movwf	??___flmul+2
  4490  0EF5  083B               	movf	___flmul@grs+3,w
  4491  0EF6  00B5               	movwf	??___flmul+3
  4492  0EF7  3018               	movlw	24
  4493  0EF8                     u2985:
  4494  0EF8  1003               	clrc
  4495  0EF9  0CB5               	rrf	??___flmul+3,f
  4496  0EFA  0CB4               	rrf	??___flmul+2,f
  4497  0EFB  0CB3               	rrf	??___flmul+1,f
  4498  0EFC  0CB2               	rrf	??___flmul,f
  4499  0EFD                     u2980:
  4500  0EFD  3EFF               	addlw	-1
  4501  0EFE  1D03               	skipz
  4502  0EFF  2EF8               	goto	u2985
  4503  0F00  0832               	movf	??___flmul,w
  4504  0F01  07BE               	addwf	___flmul@prod,f
  4505  0F02  0833               	movf	??___flmul+1,w
  4506  0F03  1103               	clrz
  4507  0F04  1803               	skipnc
  4508  0F05  3E01               	addlw	1
  4509  0F06  1903               	skipnz
  4510  0F07  2F09               	goto	u2991
  4511  0F08  07BF               	addwf	___flmul@prod+1,f
  4512  0F09                     u2991:
  4513  0F09  0834               	movf	??___flmul+2,w
  4514  0F0A  1103               	clrz
  4515  0F0B  1803               	skipnc
  4516  0F0C  3E01               	addlw	1
  4517  0F0D  1903               	skipnz
  4518  0F0E  2F10               	goto	u2992
  4519  0F0F  07C0               	addwf	___flmul@prod+2,f
  4520  0F10                     u2992:
  4521  0F10  0835               	movf	??___flmul+3,w
  4522  0F11  1103               	clrz
  4523  0F12  1803               	skipnc
  4524  0F13  3E01               	addlw	1
  4525  0F14  1903               	skipnz
  4526  0F15  2F17               	goto	u2993
  4527  0F16  07C1               	addwf	___flmul@prod+3,f
  4528  0F17                     u2993:
  4529  0F17                     l2763:
  4530  0F17  3008               	movlw	8
  4531  0F18  00B2               	movwf	??___flmul
  4532  0F19                     u3005:
  4533  0F19  1003               	clrc
  4534  0F1A  0DB8               	rlf	___flmul@grs,f
  4535  0F1B  0DB9               	rlf	___flmul@grs+1,f
  4536  0F1C  0DBA               	rlf	___flmul@grs+2,f
  4537  0F1D  0DBB               	rlf	___flmul@grs+3,f
  4538  0F1E  0BB2               	decfsz	??___flmul,f
  4539  0F1F  2F19               	goto	u3005
  4540  0F20                     l2765:
  4541  0F20  083D               	movf	___flmul@bexp,w
  4542  0F21  073C               	addwf	___flmul@aexp,w
  4543  0F22  00B2               	movwf	??___flmul
  4544  0F23  01B3               	clrf	??___flmul+1
  4545  0F24  0DB3               	rlf	??___flmul+1,f
  4546  0F25  0832               	movf	??___flmul,w
  4547  0F26  3E82               	addlw	130
  4548  0F27  00C2               	movwf	___flmul@temp
  4549  0F28  0833               	movf	??___flmul+1,w
  4550  0F29  1803               	skipnc
  4551  0F2A  3E01               	addlw	1
  4552  0F2B  3EFF               	addlw	255
  4553  0F2C  00C3               	movwf	___flmul@temp+1
  4554  0F2D  2F4B               	goto	l2777
  4555  0F2E                     l2767:
  4556  0F2E  3001               	movlw	1
  4557  0F2F  00B2               	movwf	??___flmul
  4558  0F30                     u3015:
  4559  0F30  1003               	clrc
  4560  0F31  0DBE               	rlf	___flmul@prod,f
  4561  0F32  0DBF               	rlf	___flmul@prod+1,f
  4562  0F33  0DC0               	rlf	___flmul@prod+2,f
  4563  0F34  0DC1               	rlf	___flmul@prod+3,f
  4564  0F35  0BB2               	decfsz	??___flmul,f
  4565  0F36  2F30               	goto	u3015
  4566  0F37                     l2769:
  4567  0F37  1FBB               	btfss	___flmul@grs+3,7
  4568  0F38  2F3A               	goto	u3021
  4569  0F39  2F3B               	goto	u3020
  4570  0F3A                     u3021:
  4571  0F3A  2F3C               	goto	l2773
  4572  0F3B                     u3020:
  4573  0F3B                     l2771:
  4574  0F3B  143E               	bsf	___flmul@prod,0
  4575  0F3C                     l2773:
  4576  0F3C  3001               	movlw	1
  4577  0F3D  00B2               	movwf	??___flmul
  4578  0F3E                     u3035:
  4579  0F3E  1003               	clrc
  4580  0F3F  0DB8               	rlf	___flmul@grs,f
  4581  0F40  0DB9               	rlf	___flmul@grs+1,f
  4582  0F41  0DBA               	rlf	___flmul@grs+2,f
  4583  0F42  0DBB               	rlf	___flmul@grs+3,f
  4584  0F43  0BB2               	decfsz	??___flmul,f
  4585  0F44  2F3E               	goto	u3035
  4586  0F45                     l2775:
  4587  0F45  30FF               	movlw	255
  4588  0F46  07C2               	addwf	___flmul@temp,f
  4589  0F47  1803               	skipnc
  4590  0F48  0AC3               	incf	___flmul@temp+1,f
  4591  0F49  30FF               	movlw	255
  4592  0F4A  07C3               	addwf	___flmul@temp+1,f
  4593  0F4B                     l2777:
  4594  0F4B  1FC0               	btfss	___flmul@prod+2,7
  4595  0F4C  2F4E               	goto	u3041
  4596  0F4D  2F4F               	goto	u3040
  4597  0F4E                     u3041:
  4598  0F4E  2F2E               	goto	l2767
  4599  0F4F                     u3040:
  4600  0F4F                     l2779:
  4601  0F4F  01BC               	clrf	___flmul@aexp
  4602  0F50                     l2781:
  4603  0F50  1FBB               	btfss	___flmul@grs+3,7
  4604  0F51  2F53               	goto	u3051
  4605  0F52  2F54               	goto	u3050
  4606  0F53                     u3051:
  4607  0F53  2F70               	goto	l2789
  4608  0F54                     u3050:
  4609  0F54                     l2783:
  4610  0F54  30FF               	movlw	255
  4611  0F55  0538               	andwf	___flmul@grs,w
  4612  0F56  00B2               	movwf	??___flmul
  4613  0F57  30FF               	movlw	255
  4614  0F58  0539               	andwf	___flmul@grs+1,w
  4615  0F59  00B3               	movwf	??___flmul+1
  4616  0F5A  30FF               	movlw	255
  4617  0F5B  053A               	andwf	___flmul@grs+2,w
  4618  0F5C  00B4               	movwf	??___flmul+2
  4619  0F5D  307F               	movlw	127
  4620  0F5E  053B               	andwf	___flmul@grs+3,w
  4621  0F5F  00B5               	movwf	??___flmul+3
  4622  0F60  0835               	movf	??___flmul+3,w
  4623  0F61  0434               	iorwf	??___flmul+2,w
  4624  0F62  0433               	iorwf	??___flmul+1,w
  4625  0F63  0432               	iorwf	??___flmul,w
  4626  0F64  1903               	skipnz
  4627  0F65  2F67               	goto	u3061
  4628  0F66  2F68               	goto	u3060
  4629  0F67                     u3061:
  4630  0F67  2F6B               	goto	l854
  4631  0F68                     u3060:
  4632  0F68                     l2785:
  4633  0F68  01BC               	clrf	___flmul@aexp
  4634  0F69  0ABC               	incf	___flmul@aexp,f
  4635  0F6A  2F70               	goto	l2789
  4636  0F6B                     l854:
  4637  0F6B  1C3E               	btfss	___flmul@prod,0
  4638  0F6C  2F6E               	goto	u3071
  4639  0F6D  2F6F               	goto	u3070
  4640  0F6E                     u3071:
  4641  0F6E  2F70               	goto	l2789
  4642  0F6F                     u3070:
  4643  0F6F  2F68               	goto	l2785
  4644  0F70                     l2789:
  4645  0F70  083C               	movf	___flmul@aexp,w
  4646  0F71  1903               	btfsc	3,2
  4647  0F72  2F74               	goto	u3081
  4648  0F73  2F75               	goto	u3080
  4649  0F74                     u3081:
  4650  0F74  2FA6               	goto	l2799
  4651  0F75                     u3080:
  4652  0F75                     l2791:
  4653  0F75  3001               	movlw	1
  4654  0F76  07BE               	addwf	___flmul@prod,f
  4655  0F77  3000               	movlw	0
  4656  0F78  1803               	skipnc
  4657  0F79  3001               	movlw	1
  4658  0F7A  07BF               	addwf	___flmul@prod+1,f
  4659  0F7B  3000               	movlw	0
  4660  0F7C  1803               	skipnc
  4661  0F7D  3001               	movlw	1
  4662  0F7E  07C0               	addwf	___flmul@prod+2,f
  4663  0F7F  3000               	movlw	0
  4664  0F80  1803               	skipnc
  4665  0F81  3001               	movlw	1
  4666  0F82  07C1               	addwf	___flmul@prod+3,f
  4667  0F83                     l2793:
  4668  0F83  1C41               	btfss	___flmul@prod+3,0
  4669  0F84  2F86               	goto	u3091
  4670  0F85  2F87               	goto	u3090
  4671  0F86                     u3091:
  4672  0F86  2FA6               	goto	l2799
  4673  0F87                     u3090:
  4674  0F87                     l2795:
  4675  0F87  083E               	movf	___flmul@prod,w
  4676  0F88  00B2               	movwf	??___flmul
  4677  0F89  083F               	movf	___flmul@prod+1,w
  4678  0F8A  00B3               	movwf	??___flmul+1
  4679  0F8B  0840               	movf	___flmul@prod+2,w
  4680  0F8C  00B4               	movwf	??___flmul+2
  4681  0F8D  0841               	movf	___flmul@prod+3,w
  4682  0F8E  00B5               	movwf	??___flmul+3
  4683  0F8F  3001               	movlw	1
  4684  0F90  00B6               	movwf	??___flmul+4
  4685  0F91                     u3105:
  4686  0F91  0D35               	rlf	??___flmul+3,w
  4687  0F92  0CB5               	rrf	??___flmul+3,f
  4688  0F93  0CB4               	rrf	??___flmul+2,f
  4689  0F94  0CB3               	rrf	??___flmul+1,f
  4690  0F95  0CB2               	rrf	??___flmul,f
  4691  0F96                     u3100:
  4692  0F96  0BB6               	decfsz	??___flmul+4,f
  4693  0F97  2F91               	goto	u3105
  4694  0F98  0835               	movf	??___flmul+3,w
  4695  0F99  00C1               	movwf	___flmul@prod+3
  4696  0F9A  0834               	movf	??___flmul+2,w
  4697  0F9B  00C0               	movwf	___flmul@prod+2
  4698  0F9C  0833               	movf	??___flmul+1,w
  4699  0F9D  00BF               	movwf	___flmul@prod+1
  4700  0F9E  0832               	movf	??___flmul,w
  4701  0F9F  00BE               	movwf	___flmul@prod
  4702  0FA0                     l2797:
  4703  0FA0  3001               	movlw	1
  4704  0FA1  07C2               	addwf	___flmul@temp,f
  4705  0FA2  1803               	skipnc
  4706  0FA3  0AC3               	incf	___flmul@temp+1,f
  4707  0FA4  3000               	movlw	0
  4708  0FA5  07C3               	addwf	___flmul@temp+1,f
  4709  0FA6                     l2799:
  4710  0FA6  0843               	movf	___flmul@temp+1,w
  4711  0FA7  3A80               	xorlw	128
  4712  0FA8  00FF               	movwf	btemp+1
  4713  0FA9  3080               	movlw	128
  4714  0FAA  027F               	subwf	btemp+1,w
  4715  0FAB  1D03               	skipz
  4716  0FAC  2FAF               	goto	u3115
  4717  0FAD  30FF               	movlw	255
  4718  0FAE  0242               	subwf	___flmul@temp,w
  4719  0FAF                     u3115:
  4720  0FAF  1C03               	skipc
  4721  0FB0  2FB2               	goto	u3111
  4722  0FB1  2FB3               	goto	u3110
  4723  0FB2                     u3111:
  4724  0FB2  2FBE               	goto	l2803
  4725  0FB3                     u3110:
  4726  0FB3                     l2801:
  4727  0FB3  307F               	movlw	127
  4728  0FB4  1283               	bcf	3,5	;RP0=0, select bank0
  4729  0FB5  1303               	bcf	3,6	;RP1=0, select bank0
  4730  0FB6  00C1               	movwf	___flmul@prod+3
  4731  0FB7  3080               	movlw	128
  4732  0FB8  00C0               	movwf	___flmul@prod+2
  4733  0FB9  3000               	movlw	0
  4734  0FBA  00BF               	movwf	___flmul@prod+1
  4735  0FBB  3000               	movlw	0
  4736  0FBC  00BE               	movwf	___flmul@prod
  4737  0FBD  2FF3               	goto	l860
  4738  0FBE                     l2803:
  4739  0FBE  1283               	bcf	3,5	;RP0=0, select bank0
  4740  0FBF  1303               	bcf	3,6	;RP1=0, select bank0
  4741  0FC0  0843               	movf	___flmul@temp+1,w
  4742  0FC1  3A80               	xorlw	128
  4743  0FC2  00FF               	movwf	btemp+1
  4744  0FC3  3080               	movlw	128
  4745  0FC4  027F               	subwf	btemp+1,w
  4746  0FC5  1D03               	skipz
  4747  0FC6  2FC9               	goto	u3125
  4748  0FC7  3001               	movlw	1
  4749  0FC8  0242               	subwf	___flmul@temp,w
  4750  0FC9                     u3125:
  4751  0FC9  1803               	skipnc
  4752  0FCA  2FCC               	goto	u3121
  4753  0FCB  2FCD               	goto	u3120
  4754  0FCC                     u3121:
  4755  0FCC  2FD9               	goto	l2809
  4756  0FCD                     u3120:
  4757  0FCD                     l2805:
  4758  0FCD  3000               	movlw	0
  4759  0FCE  1283               	bcf	3,5	;RP0=0, select bank0
  4760  0FCF  1303               	bcf	3,6	;RP1=0, select bank0
  4761  0FD0  00C1               	movwf	___flmul@prod+3
  4762  0FD1  3000               	movlw	0
  4763  0FD2  00C0               	movwf	___flmul@prod+2
  4764  0FD3  3000               	movlw	0
  4765  0FD4  00BF               	movwf	___flmul@prod+1
  4766  0FD5  3000               	movlw	0
  4767  0FD6  00BE               	movwf	___flmul@prod
  4768  0FD7                     l2807:
  4769  0FD7  01B7               	clrf	___flmul@sign
  4770  0FD8  2FF3               	goto	l860
  4771  0FD9                     l2809:
  4772  0FD9  1283               	bcf	3,5	;RP0=0, select bank0
  4773  0FDA  1303               	bcf	3,6	;RP1=0, select bank0
  4774  0FDB  0842               	movf	___flmul@temp,w
  4775  0FDC  00B2               	movwf	??___flmul
  4776  0FDD  0832               	movf	??___flmul,w
  4777  0FDE  00BD               	movwf	___flmul@bexp
  4778  0FDF  30FF               	movlw	255
  4779  0FE0  05BE               	andwf	___flmul@prod,f
  4780  0FE1  30FF               	movlw	255
  4781  0FE2  05BF               	andwf	___flmul@prod+1,f
  4782  0FE3  307F               	movlw	127
  4783  0FE4  05C0               	andwf	___flmul@prod+2,f
  4784  0FE5  3000               	movlw	0
  4785  0FE6  05C1               	andwf	___flmul@prod+3,f
  4786  0FE7                     l2811:
  4787  0FE7  1C3D               	btfss	___flmul@bexp,0
  4788  0FE8  2FEA               	goto	u3131
  4789  0FE9  2FEB               	goto	u3130
  4790  0FEA                     u3131:
  4791  0FEA  2FEC               	goto	l2815
  4792  0FEB                     u3130:
  4793  0FEB                     l2813:
  4794  0FEB  17C0               	bsf	___flmul@prod+2,7
  4795  0FEC                     l2815:
  4796  0FEC  083D               	movf	___flmul@bexp,w
  4797  0FED  00B2               	movwf	??___flmul
  4798  0FEE  1003               	clrc
  4799  0FEF  0C32               	rrf	??___flmul,w
  4800  0FF0  00B3               	movwf	??___flmul+1
  4801  0FF1  0833               	movf	??___flmul+1,w
  4802  0FF2  00C1               	movwf	___flmul@prod+3
  4803  0FF3                     l860:
  4804  0FF3  0837               	movf	___flmul@sign,w
  4805  0FF4  00B2               	movwf	??___flmul
  4806  0FF5  0832               	movf	??___flmul,w
  4807  0FF6  04C1               	iorwf	___flmul@prod+3,f
  4808  0FF7                     l2817:
  4809  0FF7  0841               	movf	___flmul@prod+3,w
  4810  0FF8  00AD               	movwf	?___flmul+3
  4811  0FF9  0840               	movf	___flmul@prod+2,w
  4812  0FFA  00AC               	movwf	?___flmul+2
  4813  0FFB  083F               	movf	___flmul@prod+1,w
  4814  0FFC  00AB               	movwf	?___flmul+1
  4815  0FFD  083E               	movf	___flmul@prod,w
  4816  0FFE  00AA               	movwf	?___flmul
  4817  0FFF                     l848:
  4818  0FFF  0008               	return
  4819  1000                     __end_of___flmul:
  4820                           
  4821                           	psect	text10
  4822  14BD                     __ptext10:	
  4823 ;; *************** function __Umul8_16 *****************
  4824 ;; Defined at:
  4825 ;;		line 4 in file "C:\Program Files\Microchip\xc8\v2.31\pic\sources\c90\common\Umul8_16.c"
  4826 ;; Parameters:    Size  Location     Type
  4827 ;;  multiplier      1    wreg     unsigned char 
  4828 ;;  multiplicand    1    3[COMMON] unsigned char 
  4829 ;; Auto vars:     Size  Location     Type
  4830 ;;  multiplier      1    4[BANK0 ] unsigned char 
  4831 ;;  word_mpld       2    2[BANK0 ] unsigned int 
  4832 ;;  product         2    0[BANK0 ] unsigned int 
  4833 ;; Return value:  Size  Location     Type
  4834 ;;                  2    3[COMMON] unsigned int 
  4835 ;; Registers used:
  4836 ;;		wreg, status,2, status,0
  4837 ;; Tracked objects:
  4838 ;;		On entry : 0/0
  4839 ;;		On exit  : 0/0
  4840 ;;		Unchanged: 0/0
  4841 ;; Data sizes:     COMMON   BANK0   BANK1   BANK3   BANK2
  4842 ;;      Params:         2       0       0       0       0
  4843 ;;      Locals:         0       5       0       0       0
  4844 ;;      Temps:          2       0       0       0       0
  4845 ;;      Totals:         4       5       0       0       0
  4846 ;;Total ram usage:        9 bytes
  4847 ;; Hardware stack levels used:    1
  4848 ;; Hardware stack levels required when called:    1
  4849 ;; This function calls:
  4850 ;;		Nothing
  4851 ;; This function is called by:
  4852 ;;		___flmul
  4853 ;; This function uses a non-reentrant model
  4854 ;;
  4855                           
  4856                           
  4857                           ;psect for function __Umul8_16
  4858  14BD                     __Umul8_16:
  4859                           
  4860                           ;incstack = 0
  4861                           ; Regs used in __Umul8_16: [wreg+status,2+status,0]
  4862                           ;__Umul8_16@multiplier stored from wreg
  4863  14BD  1283               	bcf	3,5	;RP0=0, select bank0
  4864  14BE  1303               	bcf	3,6	;RP1=0, select bank0
  4865  14BF  00A4               	movwf	__Umul8_16@multiplier
  4866  14C0                     l2221:
  4867  14C0  01A0               	clrf	__Umul8_16@product
  4868  14C1  01A1               	clrf	__Umul8_16@product+1
  4869  14C2                     l2223:
  4870  14C2  0873               	movf	__Umul8_16@multiplicand,w
  4871  14C3  00F5               	movwf	??__Umul8_16
  4872  14C4  01F6               	clrf	??__Umul8_16+1
  4873  14C5  0875               	movf	??__Umul8_16,w
  4874  14C6  00A2               	movwf	__Umul8_16@word_mpld
  4875  14C7  0876               	movf	??__Umul8_16+1,w
  4876  14C8  00A3               	movwf	__Umul8_16@word_mpld+1
  4877  14C9                     l2225:
  4878  14C9  1C24               	btfss	__Umul8_16@multiplier,0
  4879  14CA  2CCC               	goto	u2101
  4880  14CB  2CCD               	goto	u2100
  4881  14CC                     u2101:
  4882  14CC  2CD3               	goto	l867
  4883  14CD                     u2100:
  4884  14CD                     l2227:
  4885  14CD  0822               	movf	__Umul8_16@word_mpld,w
  4886  14CE  07A0               	addwf	__Umul8_16@product,f
  4887  14CF  1803               	skipnc
  4888  14D0  0AA1               	incf	__Umul8_16@product+1,f
  4889  14D1  0823               	movf	__Umul8_16@word_mpld+1,w
  4890  14D2  07A1               	addwf	__Umul8_16@product+1,f
  4891  14D3                     l867:
  4892  14D3  3001               	movlw	1
  4893  14D4                     u2115:
  4894  14D4  1003               	clrc
  4895  14D5  0DA2               	rlf	__Umul8_16@word_mpld,f
  4896  14D6  0DA3               	rlf	__Umul8_16@word_mpld+1,f
  4897  14D7  3EFF               	addlw	-1
  4898  14D8  1D03               	skipz
  4899  14D9  2CD4               	goto	u2115
  4900  14DA  1003               	clrc
  4901  14DB  0CA4               	rrf	__Umul8_16@multiplier,f
  4902  14DC                     l2229:
  4903  14DC  0824               	movf	__Umul8_16@multiplier,w
  4904  14DD  1D03               	btfss	3,2
  4905  14DE  2CE0               	goto	u2121
  4906  14DF  2CE1               	goto	u2120
  4907  14E0                     u2121:
  4908  14E0  2CC9               	goto	l2225
  4909  14E1                     u2120:
  4910  14E1                     l2231:
  4911  14E1  0821               	movf	__Umul8_16@product+1,w
  4912  14E2  00F4               	movwf	?__Umul8_16+1
  4913  14E3  0820               	movf	__Umul8_16@product,w
  4914  14E4  00F3               	movwf	?__Umul8_16
  4915  14E5                     l869:
  4916  14E5  0008               	return
  4917  14E6                     __end_of__Umul8_16:
  4918                           
  4919                           	psect	text11
  4920  1578                     __ptext11:	
  4921 ;; *************** function ___fladd *****************
  4922 ;; Defined at:
  4923 ;;		line 10 in file "C:\Program Files\Microchip\xc8\v2.31\pic\sources\c90\common\sprcadd.c"
  4924 ;; Parameters:    Size  Location     Type
  4925 ;;  b               4   36[BANK0 ] unsigned int 
  4926 ;;  a               4   40[BANK0 ] unsigned int 
  4927 ;; Auto vars:     Size  Location     Type
  4928 ;;  grs             1   55[BANK0 ] unsigned char 
  4929 ;;  bexp            1   54[BANK0 ] unsigned char 
  4930 ;;  aexp            1   53[BANK0 ] unsigned char 
  4931 ;;  signs           1   52[BANK0 ] unsigned char 
  4932 ;; Return value:  Size  Location     Type
  4933 ;;                  4   36[BANK0 ] unsigned char 
  4934 ;; Registers used:
  4935 ;;		wreg, status,2, status,0, btemp+1
  4936 ;; Tracked objects:
  4937 ;;		On entry : 0/0
  4938 ;;		On exit  : 0/0
  4939 ;;		Unchanged: 0/0
  4940 ;; Data sizes:     COMMON   BANK0   BANK1   BANK3   BANK2
  4941 ;;      Params:         0       8       0       0       0
  4942 ;;      Locals:         0       4       0       0       0
  4943 ;;      Temps:          0       8       0       0       0
  4944 ;;      Totals:         0      20       0       0       0
  4945 ;;Total ram usage:       20 bytes
  4946 ;; Hardware stack levels used:    1
  4947 ;; Hardware stack levels required when called:    1
  4948 ;; This function calls:
  4949 ;;		Nothing
  4950 ;; This function is called by:
  4951 ;;		_main
  4952 ;; This function uses a non-reentrant model
  4953 ;;
  4954                           
  4955                           
  4956                           ;psect for function ___fladd
  4957  1578                     ___fladd:
  4958  1578                     l2487:	
  4959                           ;incstack = 0
  4960                           ; Regs used in ___fladd: [wreg+status,2+status,0+btemp+1]
  4961                           
  4962  1578  1283               	bcf	3,5	;RP0=0, select bank0
  4963  1579  1303               	bcf	3,6	;RP1=0, select bank0
  4964  157A  0847               	movf	___fladd@b+3,w
  4965  157B  3980               	andlw	128
  4966  157C  00CC               	movwf	??___fladd
  4967  157D  084C               	movf	??___fladd,w
  4968  157E  00D4               	movwf	___fladd@signs
  4969  157F                     l2489:
  4970  157F  0847               	movf	___fladd@b+3,w
  4971  1580  00CC               	movwf	??___fladd
  4972  1581  074C               	addwf	??___fladd,w
  4973  1582  00CD               	movwf	??___fladd+1
  4974  1583  084D               	movf	??___fladd+1,w
  4975  1584  00D6               	movwf	___fladd@bexp
  4976  1585                     l2491:
  4977  1585  1FC6               	btfss	___fladd@b+2,7
  4978  1586  2D88               	goto	u2311
  4979  1587  2D89               	goto	u2310
  4980  1588                     u2311:
  4981  1588  2D8A               	goto	l2495
  4982  1589                     u2310:
  4983  1589                     l2493:
  4984  1589  1456               	bsf	___fladd@bexp,0
  4985  158A                     l2495:
  4986  158A  0856               	movf	___fladd@bexp,w
  4987  158B  1903               	btfsc	3,2
  4988  158C  2D8E               	goto	u2321
  4989  158D  2D8F               	goto	u2320
  4990  158E                     u2321:
  4991  158E  2D9F               	goto	l2505
  4992  158F                     u2320:
  4993  158F                     l2497:
  4994  158F  0A56               	incf	___fladd@bexp,w
  4995  1590  1D03               	btfss	3,2
  4996  1591  2D93               	goto	u2331
  4997  1592  2D94               	goto	u2330
  4998  1593                     u2331:
  4999  1593  2D9C               	goto	l2501
  5000  1594                     u2330:
  5001  1594                     l2499:
  5002  1594  3000               	movlw	0
  5003  1595  00C7               	movwf	___fladd@b+3
  5004  1596  3000               	movlw	0
  5005  1597  00C6               	movwf	___fladd@b+2
  5006  1598  3000               	movlw	0
  5007  1599  00C5               	movwf	___fladd@b+1
  5008  159A  3000               	movlw	0
  5009  159B  00C4               	movwf	___fladd@b
  5010  159C                     l2501:
  5011  159C  17C6               	bsf	___fladd@b+2,7
  5012  159D                     l2503:
  5013  159D  01C7               	clrf	___fladd@b+3
  5014  159E  2DA7               	goto	l2507
  5015  159F                     l2505:
  5016  159F  3000               	movlw	0
  5017  15A0  00C7               	movwf	___fladd@b+3
  5018  15A1  3000               	movlw	0
  5019  15A2  00C6               	movwf	___fladd@b+2
  5020  15A3  3000               	movlw	0
  5021  15A4  00C5               	movwf	___fladd@b+1
  5022  15A5  3000               	movlw	0
  5023  15A6  00C4               	movwf	___fladd@b
  5024  15A7                     l2507:
  5025  15A7  084B               	movf	___fladd@a+3,w
  5026  15A8  3980               	andlw	128
  5027  15A9  00CC               	movwf	??___fladd
  5028  15AA  084C               	movf	??___fladd,w
  5029  15AB  00D5               	movwf	___fladd@aexp
  5030  15AC                     l2509:
  5031  15AC  0855               	movf	___fladd@aexp,w
  5032  15AD  0654               	xorwf	___fladd@signs,w
  5033  15AE  1903               	skipnz
  5034  15AF  2DB1               	goto	u2341
  5035  15B0  2DB2               	goto	u2340
  5036  15B1                     u2341:
  5037  15B1  2DB3               	goto	l2513
  5038  15B2                     u2340:
  5039  15B2                     l2511:
  5040  15B2  1754               	bsf	___fladd@signs,6
  5041  15B3                     l2513:
  5042  15B3  084B               	movf	___fladd@a+3,w
  5043  15B4  00CC               	movwf	??___fladd
  5044  15B5  074C               	addwf	??___fladd,w
  5045  15B6  00CD               	movwf	??___fladd+1
  5046  15B7  084D               	movf	??___fladd+1,w
  5047  15B8  00D5               	movwf	___fladd@aexp
  5048  15B9                     l2515:
  5049  15B9  1FCA               	btfss	___fladd@a+2,7
  5050  15BA  2DBC               	goto	u2351
  5051  15BB  2DBD               	goto	u2350
  5052  15BC                     u2351:
  5053  15BC  2DBE               	goto	l2519
  5054  15BD                     u2350:
  5055  15BD                     l2517:
  5056  15BD  1455               	bsf	___fladd@aexp,0
  5057  15BE                     l2519:
  5058  15BE  0855               	movf	___fladd@aexp,w
  5059  15BF  1903               	btfsc	3,2
  5060  15C0  2DC2               	goto	u2361
  5061  15C1  2DC3               	goto	u2360
  5062  15C2                     u2361:
  5063  15C2  2DD3               	goto	l2529
  5064  15C3                     u2360:
  5065  15C3                     l2521:
  5066  15C3  0A55               	incf	___fladd@aexp,w
  5067  15C4  1D03               	btfss	3,2
  5068  15C5  2DC7               	goto	u2371
  5069  15C6  2DC8               	goto	u2370
  5070  15C7                     u2371:
  5071  15C7  2DD0               	goto	l2525
  5072  15C8                     u2370:
  5073  15C8                     l2523:
  5074  15C8  3000               	movlw	0
  5075  15C9  00CB               	movwf	___fladd@a+3
  5076  15CA  3000               	movlw	0
  5077  15CB  00CA               	movwf	___fladd@a+2
  5078  15CC  3000               	movlw	0
  5079  15CD  00C9               	movwf	___fladd@a+1
  5080  15CE  3000               	movlw	0
  5081  15CF  00C8               	movwf	___fladd@a
  5082  15D0                     l2525:
  5083  15D0  17CA               	bsf	___fladd@a+2,7
  5084  15D1                     l2527:
  5085  15D1  01CB               	clrf	___fladd@a+3
  5086  15D2  2DDB               	goto	l752
  5087  15D3                     l2529:
  5088  15D3  3000               	movlw	0
  5089  15D4  00CB               	movwf	___fladd@a+3
  5090  15D5  3000               	movlw	0
  5091  15D6  00CA               	movwf	___fladd@a+2
  5092  15D7  3000               	movlw	0
  5093  15D8  00C9               	movwf	___fladd@a+1
  5094  15D9  3000               	movlw	0
  5095  15DA  00C8               	movwf	___fladd@a
  5096  15DB                     l752:
  5097  15DB  0856               	movf	___fladd@bexp,w
  5098  15DC  0255               	subwf	___fladd@aexp,w
  5099  15DD  1803               	skipnc
  5100  15DE  2DE0               	goto	u2381
  5101  15DF  2DE1               	goto	u2380
  5102  15E0                     u2381:
  5103  15E0  2E25               	goto	l2565
  5104  15E1                     u2380:
  5105  15E1                     l2531:
  5106  15E1  1F54               	btfss	___fladd@signs,6
  5107  15E2  2DE4               	goto	u2391
  5108  15E3  2DE5               	goto	u2390
  5109  15E4                     u2391:
  5110  15E4  2DE9               	goto	l2535
  5111  15E5                     u2390:
  5112  15E5                     l2533:
  5113  15E5  3080               	movlw	128
  5114  15E6  00CC               	movwf	??___fladd
  5115  15E7  084C               	movf	??___fladd,w
  5116  15E8  06D4               	xorwf	___fladd@signs,f
  5117  15E9                     l2535:
  5118  15E9  0856               	movf	___fladd@bexp,w
  5119  15EA  00CC               	movwf	??___fladd
  5120  15EB  084C               	movf	??___fladd,w
  5121  15EC  00D7               	movwf	___fladd@grs
  5122  15ED                     l2537:
  5123  15ED  0855               	movf	___fladd@aexp,w
  5124  15EE  00CC               	movwf	??___fladd
  5125  15EF  084C               	movf	??___fladd,w
  5126  15F0  00D6               	movwf	___fladd@bexp
  5127  15F1                     l2539:
  5128  15F1  0857               	movf	___fladd@grs,w
  5129  15F2  00CC               	movwf	??___fladd
  5130  15F3  084C               	movf	??___fladd,w
  5131  15F4  00D5               	movwf	___fladd@aexp
  5132  15F5                     l2541:
  5133  15F5  0844               	movf	___fladd@b,w
  5134  15F6  00CC               	movwf	??___fladd
  5135  15F7  084C               	movf	??___fladd,w
  5136  15F8  00D7               	movwf	___fladd@grs
  5137  15F9                     l2543:
  5138  15F9  0848               	movf	___fladd@a,w
  5139  15FA  00CC               	movwf	??___fladd
  5140  15FB  084C               	movf	??___fladd,w
  5141  15FC  00C4               	movwf	___fladd@b
  5142  15FD                     l2545:
  5143  15FD  0857               	movf	___fladd@grs,w
  5144  15FE  00CC               	movwf	??___fladd
  5145  15FF  084C               	movf	??___fladd,w
  5146  1600  00C8               	movwf	___fladd@a
  5147  1601                     l2547:
  5148  1601  0845               	movf	___fladd@b+1,w
  5149  1602  00CC               	movwf	??___fladd
  5150  1603  084C               	movf	??___fladd,w
  5151  1604  00D7               	movwf	___fladd@grs
  5152  1605                     l2549:
  5153  1605  0849               	movf	___fladd@a+1,w
  5154  1606  00CC               	movwf	??___fladd
  5155  1607  084C               	movf	??___fladd,w
  5156  1608  00C5               	movwf	___fladd@b+1
  5157  1609                     l2551:
  5158  1609  0857               	movf	___fladd@grs,w
  5159  160A  00CC               	movwf	??___fladd
  5160  160B  084C               	movf	??___fladd,w
  5161  160C  00C9               	movwf	___fladd@a+1
  5162  160D                     l2553:
  5163  160D  0846               	movf	___fladd@b+2,w
  5164  160E  00CC               	movwf	??___fladd
  5165  160F  084C               	movf	??___fladd,w
  5166  1610  00D7               	movwf	___fladd@grs
  5167  1611                     l2555:
  5168  1611  084A               	movf	___fladd@a+2,w
  5169  1612  00CC               	movwf	??___fladd
  5170  1613  084C               	movf	??___fladd,w
  5171  1614  00C6               	movwf	___fladd@b+2
  5172  1615                     l2557:
  5173  1615  0857               	movf	___fladd@grs,w
  5174  1616  00CC               	movwf	??___fladd
  5175  1617  084C               	movf	??___fladd,w
  5176  1618  00CA               	movwf	___fladd@a+2
  5177  1619                     l2559:
  5178  1619  0847               	movf	___fladd@b+3,w
  5179  161A  00CC               	movwf	??___fladd
  5180  161B  084C               	movf	??___fladd,w
  5181  161C  00D7               	movwf	___fladd@grs
  5182  161D                     l2561:
  5183  161D  084B               	movf	___fladd@a+3,w
  5184  161E  00CC               	movwf	??___fladd
  5185  161F  084C               	movf	??___fladd,w
  5186  1620  00C7               	movwf	___fladd@b+3
  5187  1621                     l2563:
  5188  1621  0857               	movf	___fladd@grs,w
  5189  1622  00CC               	movwf	??___fladd
  5190  1623  084C               	movf	??___fladd,w
  5191  1624  00CB               	movwf	___fladd@a+3
  5192  1625                     l2565:
  5193  1625  01D7               	clrf	___fladd@grs
  5194  1626                     l2567:
  5195  1626  0855               	movf	___fladd@aexp,w
  5196  1627  00CC               	movwf	??___fladd
  5197  1628  01CD               	clrf	??___fladd+1
  5198  1629  084D               	movf	??___fladd+1,w
  5199  162A  00CF               	movwf	??___fladd+3
  5200  162B  0856               	movf	___fladd@bexp,w
  5201  162C  024C               	subwf	??___fladd,w
  5202  162D  00CE               	movwf	??___fladd+2
  5203  162E  1C03               	skipc
  5204  162F  03CF               	decf	??___fladd+3,f
  5205  1630  084F               	movf	??___fladd+3,w
  5206  1631  3A80               	xorlw	128
  5207  1632  00FF               	movwf	btemp+1
  5208  1633  3080               	movlw	128
  5209  1634  027F               	subwf	btemp+1,w
  5210  1635  1D03               	skipz
  5211  1636  2E39               	goto	u2405
  5212  1637  301A               	movlw	26
  5213  1638  024E               	subwf	??___fladd+2,w
  5214  1639                     u2405:
  5215  1639  1C03               	skipc
  5216  163A  2E3C               	goto	u2401
  5217  163B  2E3D               	goto	u2400
  5218  163C                     u2401:
  5219  163C  2E7A               	goto	l2583
  5220  163D                     u2400:
  5221  163D                     l2569:
  5222  163D  1283               	bcf	3,5	;RP0=0, select bank0
  5223  163E  1303               	bcf	3,6	;RP1=0, select bank0
  5224  163F  0847               	movf	___fladd@b+3,w
  5225  1640  0446               	iorwf	___fladd@b+2,w
  5226  1641  0445               	iorwf	___fladd@b+1,w
  5227  1642  0444               	iorwf	___fladd@b,w
  5228  1643  1D03               	skipz
  5229  1644  2E46               	goto	u2411
  5230  1645  2E48               	goto	u2410
  5231  1646                     u2411:
  5232  1646  3001               	movlw	1
  5233  1647  2E49               	goto	u2420
  5234  1648                     u2410:
  5235  1648  3000               	movlw	0
  5236  1649                     u2420:
  5237  1649  00CC               	movwf	??___fladd
  5238  164A  084C               	movf	??___fladd,w
  5239  164B  00D7               	movwf	___fladd@grs
  5240  164C  3000               	movlw	0
  5241  164D  00C7               	movwf	___fladd@b+3
  5242  164E  3000               	movlw	0
  5243  164F  00C6               	movwf	___fladd@b+2
  5244  1650  3000               	movlw	0
  5245  1651  00C5               	movwf	___fladd@b+1
  5246  1652  3000               	movlw	0
  5247  1653  00C4               	movwf	___fladd@b
  5248  1654  0855               	movf	___fladd@aexp,w
  5249  1655  00CC               	movwf	??___fladd
  5250  1656  084C               	movf	??___fladd,w
  5251  1657  00D6               	movwf	___fladd@bexp
  5252  1658  2E82               	goto	l756
  5253  1659                     l758:
  5254  1659  1C57               	btfss	___fladd@grs,0
  5255  165A  2E5C               	goto	u2431
  5256  165B  2E5D               	goto	u2430
  5257  165C                     u2431:
  5258  165C  2E66               	goto	l2573
  5259  165D                     u2430:
  5260  165D                     l2571:
  5261  165D  0857               	movf	___fladd@grs,w
  5262  165E  00CC               	movwf	??___fladd
  5263  165F  1003               	clrc
  5264  1660  0C4C               	rrf	??___fladd,w
  5265  1661  3801               	iorlw	1
  5266  1662  00CD               	movwf	??___fladd+1
  5267  1663  084D               	movf	??___fladd+1,w
  5268  1664  00D7               	movwf	___fladd@grs
  5269  1665  2E68               	goto	l2575
  5270  1666                     l2573:
  5271  1666  1003               	clrc
  5272  1667  0CD7               	rrf	___fladd@grs,f
  5273  1668                     l2575:
  5274  1668  1C44               	btfss	___fladd@b,0
  5275  1669  2E6B               	goto	u2441
  5276  166A  2E6C               	goto	u2440
  5277  166B                     u2441:
  5278  166B  2E6D               	goto	l2579
  5279  166C                     u2440:
  5280  166C                     l2577:
  5281  166C  17D7               	bsf	___fladd@grs,7
  5282  166D                     l2579:
  5283  166D  3001               	movlw	1
  5284  166E  00CC               	movwf	??___fladd
  5285  166F                     u2455:
  5286  166F  0D47               	rlf	___fladd@b+3,w
  5287  1670  0CC7               	rrf	___fladd@b+3,f
  5288  1671  0CC6               	rrf	___fladd@b+2,f
  5289  1672  0CC5               	rrf	___fladd@b+1,f
  5290  1673  0CC4               	rrf	___fladd@b,f
  5291  1674  0BCC               	decfsz	??___fladd& (0+127),f
  5292  1675  2E6F               	goto	u2455
  5293  1676                     l2581:
  5294  1676  3001               	movlw	1
  5295  1677  00CC               	movwf	??___fladd
  5296  1678  084C               	movf	??___fladd,w
  5297  1679  07D6               	addwf	___fladd@bexp,f
  5298  167A                     l2583:
  5299  167A  1283               	bcf	3,5	;RP0=0, select bank0
  5300  167B  1303               	bcf	3,6	;RP1=0, select bank0
  5301  167C  0855               	movf	___fladd@aexp,w
  5302  167D  0256               	subwf	___fladd@bexp,w
  5303  167E  1C03               	skipc
  5304  167F  2E81               	goto	u2461
  5305  1680  2E82               	goto	u2460
  5306  1681                     u2461:
  5307  1681  2E59               	goto	l758
  5308  1682                     u2460:
  5309  1682                     l756:
  5310  1682  1B54               	btfsc	___fladd@signs,6
  5311  1683  2E85               	goto	u2471
  5312  1684  2E86               	goto	u2470
  5313  1685                     u2471:
  5314  1685  2ED1               	goto	l2609
  5315  1686                     u2470:
  5316  1686                     l2585:
  5317  1686  0856               	movf	___fladd@bexp,w
  5318  1687  1D03               	btfss	3,2
  5319  1688  2E8A               	goto	u2481
  5320  1689  2E8B               	goto	u2480
  5321  168A                     u2481:
  5322  168A  2E94               	goto	l2591
  5323  168B                     u2480:
  5324  168B                     l2587:
  5325  168B  3000               	movlw	0
  5326  168C  00C7               	movwf	?___fladd+3
  5327  168D  3000               	movlw	0
  5328  168E  00C6               	movwf	?___fladd+2
  5329  168F  3000               	movlw	0
  5330  1690  00C5               	movwf	?___fladd+1
  5331  1691  3000               	movlw	0
  5332  1692  00C4               	movwf	?___fladd
  5333  1693  2FFF               	goto	l765
  5334  1694                     l2591:
  5335  1694  0848               	movf	___fladd@a,w
  5336  1695  07C4               	addwf	___fladd@b,f
  5337  1696  0849               	movf	___fladd@a+1,w
  5338  1697  1103               	clrz
  5339  1698  1803               	skipnc
  5340  1699  3E01               	addlw	1
  5341  169A  1903               	skipnz
  5342  169B  2E9D               	goto	u2491
  5343  169C  07C5               	addwf	___fladd@b+1,f
  5344  169D                     u2491:
  5345  169D  084A               	movf	___fladd@a+2,w
  5346  169E  1103               	clrz
  5347  169F  1803               	skipnc
  5348  16A0  3E01               	addlw	1
  5349  16A1  1903               	skipnz
  5350  16A2  2EA4               	goto	u2492
  5351  16A3  07C6               	addwf	___fladd@b+2,f
  5352  16A4                     u2492:
  5353  16A4  084B               	movf	___fladd@a+3,w
  5354  16A5  1103               	clrz
  5355  16A6  1803               	skipnc
  5356  16A7  3E01               	addlw	1
  5357  16A8  1903               	skipnz
  5358  16A9  2EAB               	goto	u2493
  5359  16AA  07C7               	addwf	___fladd@b+3,f
  5360  16AB                     u2493:
  5361  16AB                     l2593:
  5362  16AB  1C47               	btfss	___fladd@b+3,0
  5363  16AC  2EAE               	goto	u2501
  5364  16AD  2EAF               	goto	u2500
  5365  16AE                     u2501:
  5366  16AE  2F85               	goto	l2643
  5367  16AF                     u2500:
  5368  16AF                     l2595:
  5369  16AF  1C57               	btfss	___fladd@grs,0
  5370  16B0  2EB2               	goto	u2511
  5371  16B1  2EB3               	goto	u2510
  5372  16B2                     u2511:
  5373  16B2  2EBC               	goto	l2599
  5374  16B3                     u2510:
  5375  16B3                     l2597:
  5376  16B3  0857               	movf	___fladd@grs,w
  5377  16B4  00CC               	movwf	??___fladd
  5378  16B5  1003               	clrc
  5379  16B6  0C4C               	rrf	??___fladd,w
  5380  16B7  3801               	iorlw	1
  5381  16B8  00CD               	movwf	??___fladd+1
  5382  16B9  084D               	movf	??___fladd+1,w
  5383  16BA  00D7               	movwf	___fladd@grs
  5384  16BB  2EBE               	goto	l2601
  5385  16BC                     l2599:
  5386  16BC  1003               	clrc
  5387  16BD  0CD7               	rrf	___fladd@grs,f
  5388  16BE                     l2601:
  5389  16BE  1C44               	btfss	___fladd@b,0
  5390  16BF  2EC1               	goto	u2521
  5391  16C0  2EC2               	goto	u2520
  5392  16C1                     u2521:
  5393  16C1  2EC3               	goto	l2605
  5394  16C2                     u2520:
  5395  16C2                     l2603:
  5396  16C2  17D7               	bsf	___fladd@grs,7
  5397  16C3                     l2605:
  5398  16C3  3001               	movlw	1
  5399  16C4  00CC               	movwf	??___fladd
  5400  16C5                     u2535:
  5401  16C5  0D47               	rlf	___fladd@b+3,w
  5402  16C6  0CC7               	rrf	___fladd@b+3,f
  5403  16C7  0CC6               	rrf	___fladd@b+2,f
  5404  16C8  0CC5               	rrf	___fladd@b+1,f
  5405  16C9  0CC4               	rrf	___fladd@b,f
  5406  16CA  0BCC               	decfsz	??___fladd& (0+127),f
  5407  16CB  2EC5               	goto	u2535
  5408  16CC                     l2607:
  5409  16CC  3001               	movlw	1
  5410  16CD  00CC               	movwf	??___fladd
  5411  16CE  084C               	movf	??___fladd,w
  5412  16CF  07D6               	addwf	___fladd@bexp,f
  5413  16D0  2F85               	goto	l2643
  5414  16D1                     l2609:
  5415  16D1  0847               	movf	___fladd@b+3,w
  5416  16D2  3A80               	xorlw	128
  5417  16D3  00FF               	movwf	btemp+1
  5418  16D4  084B               	movf	___fladd@a+3,w
  5419  16D5  3A80               	xorlw	128
  5420  16D6  027F               	subwf	btemp+1,w
  5421  16D7  1D03               	skipz
  5422  16D8  2EE3               	goto	u2543
  5423  16D9  084A               	movf	___fladd@a+2,w
  5424  16DA  0246               	subwf	___fladd@b+2,w
  5425  16DB  1D03               	skipz
  5426  16DC  2EE3               	goto	u2543
  5427  16DD  0849               	movf	___fladd@a+1,w
  5428  16DE  0245               	subwf	___fladd@b+1,w
  5429  16DF  1D03               	skipz
  5430  16E0  2EE3               	goto	u2543
  5431  16E1  0848               	movf	___fladd@a,w
  5432  16E2  0244               	subwf	___fladd@b,w
  5433  16E3                     u2543:
  5434  16E3  1803               	skipnc
  5435  16E4  2EE6               	goto	u2541
  5436  16E5  2EE7               	goto	u2540
  5437  16E6                     u2541:
  5438  16E6  2F3F               	goto	l2619
  5439  16E7                     u2540:
  5440  16E7                     l2611:
  5441  16E7  30FF               	movlw	255
  5442  16E8  00CC               	movwf	??___fladd
  5443  16E9  30FF               	movlw	255
  5444  16EA  00CD               	movwf	??___fladd+1
  5445  16EB  30FF               	movlw	255
  5446  16EC  00CE               	movwf	??___fladd+2
  5447  16ED  30FF               	movlw	255
  5448  16EE  00CF               	movwf	??___fladd+3
  5449  16EF  0848               	movf	___fladd@a,w
  5450  16F0  00D0               	movwf	??___fladd+4
  5451  16F1  0849               	movf	___fladd@a+1,w
  5452  16F2  00D1               	movwf	??___fladd+5
  5453  16F3  084A               	movf	___fladd@a+2,w
  5454  16F4  00D2               	movwf	??___fladd+6
  5455  16F5  084B               	movf	___fladd@a+3,w
  5456  16F6  00D3               	movwf	??___fladd+7
  5457  16F7  0844               	movf	___fladd@b,w
  5458  16F8  02D0               	subwf	??___fladd+4,f
  5459  16F9  0845               	movf	___fladd@b+1,w
  5460  16FA  1C03               	skipc
  5461  16FB  0F45               	incfsz	___fladd@b+1,w
  5462  16FC  2EFE               	goto	u2551
  5463  16FD  2EFF               	goto	u2552
  5464  16FE                     u2551:
  5465  16FE  02D1               	subwf	??___fladd+5,f
  5466  16FF                     u2552:
  5467  16FF  0846               	movf	___fladd@b+2,w
  5468  1700  1C03               	skipc
  5469  1701  0F46               	incfsz	___fladd@b+2,w
  5470  1702  2F04               	goto	u2553
  5471  1703  2F05               	goto	u2554
  5472  1704                     u2553:
  5473  1704  02D2               	subwf	??___fladd+6,f
  5474  1705                     u2554:
  5475  1705  0847               	movf	___fladd@b+3,w
  5476  1706  1C03               	skipc
  5477  1707  0F47               	incfsz	___fladd@b+3,w
  5478  1708  2F0A               	goto	u2555
  5479  1709  2F0B               	goto	u2556
  5480  170A                     u2555:
  5481  170A  02D3               	subwf	??___fladd+7,f
  5482  170B                     u2556:
  5483  170B  0850               	movf	??___fladd+4,w
  5484  170C  07CC               	addwf	??___fladd,f
  5485  170D  0851               	movf	??___fladd+5,w
  5486  170E  1803               	skipnc
  5487  170F  0F51               	incfsz	??___fladd+5,w
  5488  1710  2F12               	goto	u2560
  5489  1711  2F13               	goto	u2561
  5490  1712                     u2560:
  5491  1712  07CD               	addwf	??___fladd+1,f
  5492  1713                     u2561:
  5493  1713  0852               	movf	??___fladd+6,w
  5494  1714  1803               	skipnc
  5495  1715  0F52               	incfsz	??___fladd+6,w
  5496  1716  2F18               	goto	u2562
  5497  1717  2F19               	goto	u2563
  5498  1718                     u2562:
  5499  1718  07CE               	addwf	??___fladd+2,f
  5500  1719                     u2563:
  5501  1719  0853               	movf	??___fladd+7,w
  5502  171A  1803               	skipnc
  5503  171B  0A53               	incf	??___fladd+7,w
  5504  171C  07CF               	addwf	??___fladd+3,f
  5505  171D  084F               	movf	??___fladd+3,w
  5506  171E  00C7               	movwf	___fladd@b+3
  5507  171F  084E               	movf	??___fladd+2,w
  5508  1720  00C6               	movwf	___fladd@b+2
  5509  1721  084D               	movf	??___fladd+1,w
  5510  1722  00C5               	movwf	___fladd@b+1
  5511  1723  084C               	movf	??___fladd,w
  5512  1724  00C4               	movwf	___fladd@b
  5513  1725                     l2613:
  5514  1725  3080               	movlw	128
  5515  1726  00CC               	movwf	??___fladd
  5516  1727  084C               	movf	??___fladd,w
  5517  1728  06D4               	xorwf	___fladd@signs,f
  5518  1729  09D7               	comf	___fladd@grs,f
  5519  172A  0AD7               	incf	___fladd@grs,f
  5520  172B                     l2615:
  5521  172B  0857               	movf	___fladd@grs,w
  5522  172C  1D03               	btfss	3,2
  5523  172D  2F2F               	goto	u2571
  5524  172E  2F30               	goto	u2570
  5525  172F                     u2571:
  5526  172F  2F4D               	goto	l773
  5527  1730                     u2570:
  5528  1730                     l2617:
  5529  1730  3001               	movlw	1
  5530  1731  07C4               	addwf	___fladd@b,f
  5531  1732  3000               	movlw	0
  5532  1733  1803               	skipnc
  5533  1734  3001               	movlw	1
  5534  1735  07C5               	addwf	___fladd@b+1,f
  5535  1736  3000               	movlw	0
  5536  1737  1803               	skipnc
  5537  1738  3001               	movlw	1
  5538  1739  07C6               	addwf	___fladd@b+2,f
  5539  173A  3000               	movlw	0
  5540  173B  1803               	skipnc
  5541  173C  3001               	movlw	1
  5542  173D  07C7               	addwf	___fladd@b+3,f
  5543  173E  2F4D               	goto	l773
  5544  173F                     l2619:
  5545  173F  0848               	movf	___fladd@a,w
  5546  1740  02C4               	subwf	___fladd@b,f
  5547  1741  0849               	movf	___fladd@a+1,w
  5548  1742  1C03               	skipc
  5549  1743  0F49               	incfsz	___fladd@a+1,w
  5550  1744  02C5               	subwf	___fladd@b+1,f
  5551  1745  084A               	movf	___fladd@a+2,w
  5552  1746  1C03               	skipc
  5553  1747  0F4A               	incfsz	___fladd@a+2,w
  5554  1748  02C6               	subwf	___fladd@b+2,f
  5555  1749  084B               	movf	___fladd@a+3,w
  5556  174A  1C03               	skipc
  5557  174B  0F4B               	incfsz	___fladd@a+3,w
  5558  174C  02C7               	subwf	___fladd@b+3,f
  5559  174D                     l773:
  5560  174D  0847               	movf	___fladd@b+3,w
  5561  174E  0446               	iorwf	___fladd@b+2,w
  5562  174F  0445               	iorwf	___fladd@b+1,w
  5563  1750  0444               	iorwf	___fladd@b,w
  5564  1751  1D03               	skipz
  5565  1752  2F54               	goto	u2581
  5566  1753  2F55               	goto	u2580
  5567  1754                     u2581:
  5568  1754  2F81               	goto	l2641
  5569  1755                     u2580:
  5570  1755                     l2621:
  5571  1755  0857               	movf	___fladd@grs,w
  5572  1756  1D03               	btfss	3,2
  5573  1757  2F59               	goto	u2591
  5574  1758  2F5A               	goto	u2590
  5575  1759                     u2591:
  5576  1759  2F81               	goto	l2641
  5577  175A                     u2590:
  5578  175A                     l2623:
  5579  175A  3000               	movlw	0
  5580  175B  00C7               	movwf	?___fladd+3
  5581  175C  3000               	movlw	0
  5582  175D  00C6               	movwf	?___fladd+2
  5583  175E  3000               	movlw	0
  5584  175F  00C5               	movwf	?___fladd+1
  5585  1760  3000               	movlw	0
  5586  1761  00C4               	movwf	?___fladd
  5587  1762  2FFF               	goto	l765
  5588  1763                     l2627:
  5589  1763  3001               	movlw	1
  5590  1764  00CC               	movwf	??___fladd
  5591  1765                     u2605:
  5592  1765  1003               	clrc
  5593  1766  0DC4               	rlf	___fladd@b,f
  5594  1767  0DC5               	rlf	___fladd@b+1,f
  5595  1768  0DC6               	rlf	___fladd@b+2,f
  5596  1769  0DC7               	rlf	___fladd@b+3,f
  5597  176A  0BCC               	decfsz	??___fladd,f
  5598  176B  2F65               	goto	u2605
  5599  176C                     l2629:
  5600  176C  1FD7               	btfss	___fladd@grs,7
  5601  176D  2F6F               	goto	u2611
  5602  176E  2F70               	goto	u2610
  5603  176F                     u2611:
  5604  176F  2F71               	goto	l777
  5605  1770                     u2610:
  5606  1770                     l2631:
  5607  1770  1444               	bsf	___fladd@b,0
  5608  1771                     l777:
  5609  1771  1C57               	btfss	___fladd@grs,0
  5610  1772  2F74               	goto	u2621
  5611  1773  2F75               	goto	u2620
  5612  1774                     u2621:
  5613  1774  2F78               	goto	l2635
  5614  1775                     u2620:
  5615  1775                     l2633:
  5616  1775  1403               	setc
  5617  1776  0DD7               	rlf	___fladd@grs,f
  5618  1777  2F7A               	goto	l2637
  5619  1778                     l2635:
  5620  1778  1003               	clrc
  5621  1779  0DD7               	rlf	___fladd@grs,f
  5622  177A                     l2637:
  5623  177A  0856               	movf	___fladd@bexp,w
  5624  177B  1903               	btfsc	3,2
  5625  177C  2F7E               	goto	u2631
  5626  177D  2F7F               	goto	u2630
  5627  177E                     u2631:
  5628  177E  2F81               	goto	l2641
  5629  177F                     u2630:
  5630  177F                     l2639:
  5631  177F  3001               	movlw	1
  5632  1780  02D6               	subwf	___fladd@bexp,f
  5633  1781                     l2641:
  5634  1781  1FC6               	btfss	___fladd@b+2,7
  5635  1782  2F84               	goto	u2641
  5636  1783  2F85               	goto	u2640
  5637  1784                     u2641:
  5638  1784  2F63               	goto	l2627
  5639  1785                     u2640:
  5640  1785                     l2643:
  5641  1785  01D5               	clrf	___fladd@aexp
  5642  1786                     l2645:
  5643  1786  1FD7               	btfss	___fladd@grs,7
  5644  1787  2F89               	goto	u2651
  5645  1788  2F8A               	goto	u2650
  5646  1789                     u2651:
  5647  1789  2F98               	goto	l2653
  5648  178A                     u2650:
  5649  178A                     l2647:
  5650  178A  0857               	movf	___fladd@grs,w
  5651  178B  397F               	andlw	127
  5652  178C  1903               	btfsc	3,2
  5653  178D  2F8F               	goto	u2661
  5654  178E  2F90               	goto	u2660
  5655  178F                     u2661:
  5656  178F  2F93               	goto	l783
  5657  1790                     u2660:
  5658  1790                     l2649:
  5659  1790  01D5               	clrf	___fladd@aexp
  5660  1791  0AD5               	incf	___fladd@aexp,f
  5661  1792  2F98               	goto	l2653
  5662  1793                     l783:
  5663  1793  1C44               	btfss	___fladd@b,0
  5664  1794  2F96               	goto	u2671
  5665  1795  2F97               	goto	u2670
  5666  1796                     u2671:
  5667  1796  2F98               	goto	l2653
  5668  1797                     u2670:
  5669  1797  2F90               	goto	l2649
  5670  1798                     l2653:
  5671  1798  0855               	movf	___fladd@aexp,w
  5672  1799  1903               	btfsc	3,2
  5673  179A  2F9C               	goto	u2681
  5674  179B  2F9D               	goto	u2680
  5675  179C                     u2681:
  5676  179C  2FD1               	goto	l786
  5677  179D                     u2680:
  5678  179D                     l2655:
  5679  179D  3001               	movlw	1
  5680  179E  07C4               	addwf	___fladd@b,f
  5681  179F  3000               	movlw	0
  5682  17A0  1803               	skipnc
  5683  17A1  3001               	movlw	1
  5684  17A2  07C5               	addwf	___fladd@b+1,f
  5685  17A3  3000               	movlw	0
  5686  17A4  1803               	skipnc
  5687  17A5  3001               	movlw	1
  5688  17A6  07C6               	addwf	___fladd@b+2,f
  5689  17A7  3000               	movlw	0
  5690  17A8  1803               	skipnc
  5691  17A9  3001               	movlw	1
  5692  17AA  07C7               	addwf	___fladd@b+3,f
  5693  17AB                     l2657:
  5694  17AB  1C47               	btfss	___fladd@b+3,0
  5695  17AC  2FAE               	goto	u2691
  5696  17AD  2FAF               	goto	u2690
  5697  17AE                     u2691:
  5698  17AE  2FD1               	goto	l786
  5699  17AF                     u2690:
  5700  17AF                     l2659:
  5701  17AF  0844               	movf	___fladd@b,w
  5702  17B0  00CC               	movwf	??___fladd
  5703  17B1  0845               	movf	___fladd@b+1,w
  5704  17B2  00CD               	movwf	??___fladd+1
  5705  17B3  0846               	movf	___fladd@b+2,w
  5706  17B4  00CE               	movwf	??___fladd+2
  5707  17B5  0847               	movf	___fladd@b+3,w
  5708  17B6  00CF               	movwf	??___fladd+3
  5709  17B7  3001               	movlw	1
  5710  17B8  00D0               	movwf	??___fladd+4
  5711  17B9                     u2705:
  5712  17B9  0D4F               	rlf	??___fladd+3,w
  5713  17BA  0CCF               	rrf	??___fladd+3,f
  5714  17BB  0CCE               	rrf	??___fladd+2,f
  5715  17BC  0CCD               	rrf	??___fladd+1,f
  5716  17BD  0CCC               	rrf	??___fladd,f
  5717  17BE                     u2700:
  5718  17BE  0BD0               	decfsz	??___fladd+4,f
  5719  17BF  2FB9               	goto	u2705
  5720  17C0  084F               	movf	??___fladd+3,w
  5721  17C1  00C7               	movwf	___fladd@b+3
  5722  17C2  084E               	movf	??___fladd+2,w
  5723  17C3  00C6               	movwf	___fladd@b+2
  5724  17C4  084D               	movf	??___fladd+1,w
  5725  17C5  00C5               	movwf	___fladd@b+1
  5726  17C6  084C               	movf	??___fladd,w
  5727  17C7  00C4               	movwf	___fladd@b
  5728  17C8  0A56               	incf	___fladd@bexp,w
  5729  17C9  1903               	btfsc	3,2
  5730  17CA  2FCC               	goto	u2711
  5731  17CB  2FCD               	goto	u2710
  5732  17CC                     u2711:
  5733  17CC  2FD1               	goto	l786
  5734  17CD                     u2710:
  5735  17CD                     l2661:
  5736  17CD  3001               	movlw	1
  5737  17CE  00CC               	movwf	??___fladd
  5738  17CF  084C               	movf	??___fladd,w
  5739  17D0  07D6               	addwf	___fladd@bexp,f
  5740  17D1                     l786:
  5741  17D1  0A56               	incf	___fladd@bexp,w
  5742  17D2  1903               	btfsc	3,2
  5743  17D3  2FD5               	goto	u2721
  5744  17D4  2FD6               	goto	u2720
  5745  17D5                     u2721:
  5746  17D5  2FDB               	goto	l2665
  5747  17D6                     u2720:
  5748  17D6                     l2663:
  5749  17D6  0856               	movf	___fladd@bexp,w
  5750  17D7  1D03               	btfss	3,2
  5751  17D8  2FDA               	goto	u2731
  5752  17D9  2FDB               	goto	u2730
  5753  17DA                     u2731:
  5754  17DA  2FE9               	goto	l2671
  5755  17DB                     u2730:
  5756  17DB                     l2665:
  5757  17DB  3000               	movlw	0
  5758  17DC  00C7               	movwf	___fladd@b+3
  5759  17DD  3000               	movlw	0
  5760  17DE  00C6               	movwf	___fladd@b+2
  5761  17DF  3000               	movlw	0
  5762  17E0  00C5               	movwf	___fladd@b+1
  5763  17E1  3000               	movlw	0
  5764  17E2  00C4               	movwf	___fladd@b
  5765  17E3                     l2667:
  5766  17E3  0856               	movf	___fladd@bexp,w
  5767  17E4  1D03               	btfss	3,2
  5768  17E5  2FE7               	goto	u2741
  5769  17E6  2FE8               	goto	u2740
  5770  17E7                     u2741:
  5771  17E7  2FE9               	goto	l2671
  5772  17E8                     u2740:
  5773  17E8                     l2669:
  5774  17E8  01D4               	clrf	___fladd@signs
  5775  17E9                     l2671:
  5776  17E9  1C56               	btfss	___fladd@bexp,0
  5777  17EA  2FEC               	goto	u2751
  5778  17EB  2FED               	goto	u2750
  5779  17EC                     u2751:
  5780  17EC  2FEF               	goto	l2675
  5781  17ED                     u2750:
  5782  17ED                     l2673:
  5783  17ED  17C6               	bsf	___fladd@b+2,7
  5784  17EE  2FF3               	goto	l794
  5785  17EF                     l2675:
  5786  17EF  307F               	movlw	127
  5787  17F0  00CC               	movwf	??___fladd
  5788  17F1  084C               	movf	??___fladd,w
  5789  17F2  05C6               	andwf	___fladd@b+2,f
  5790  17F3                     l794:
  5791  17F3  0856               	movf	___fladd@bexp,w
  5792  17F4  00CC               	movwf	??___fladd
  5793  17F5  1003               	clrc
  5794  17F6  0C4C               	rrf	??___fladd,w
  5795  17F7  00CD               	movwf	??___fladd+1
  5796  17F8  084D               	movf	??___fladd+1,w
  5797  17F9  00C7               	movwf	___fladd@b+3
  5798  17FA                     l2677:
  5799  17FA  1FD4               	btfss	___fladd@signs,7
  5800  17FB  2FFD               	goto	u2761
  5801  17FC  2FFE               	goto	u2760
  5802  17FD                     u2761:
  5803  17FD  2FFF               	goto	l795
  5804  17FE                     u2760:
  5805  17FE                     l2679:
  5806  17FE  17C7               	bsf	___fladd@b+3,7
  5807  17FF                     l795:
  5808  17FF                     l765:
  5809  17FF  0008               	return
  5810  1800                     __end_of___fladd:
  5811                           
  5812                           	psect	text12
  5813  1494                     __ptext12:	
  5814 ;; *************** function _Lcd_Write_String *****************
  5815 ;; Defined at:
  5816 ;;		line 110 in file "LCD.c"
  5817 ;; Parameters:    Size  Location     Type
  5818 ;;  a               1    wreg     PTR unsigned char 
  5819 ;;		 -> STR_8(2), STR_7(3), STR_6(3), STR_5(2), 
  5820 ;;		 -> STR_4(14), STR_3(3), STR_2(2), STR_1(10), 
  5821 ;; Auto vars:     Size  Location     Type
  5822 ;;  a               1    2[BANK0 ] PTR unsigned char 
  5823 ;;		 -> STR_8(2), STR_7(3), STR_6(3), STR_5(2), 
  5824 ;;		 -> STR_4(14), STR_3(3), STR_2(2), STR_1(10), 
  5825 ;;  i               2    0[BANK0 ] int 
  5826 ;; Return value:  Size  Location     Type
  5827 ;;                  1    wreg      void 
  5828 ;; Registers used:
  5829 ;;		wreg, fsr0l, fsr0h, status,2, status,0, pclath, cstack
  5830 ;; Tracked objects:
  5831 ;;		On entry : 0/0
  5832 ;;		On exit  : 0/0
  5833 ;;		Unchanged: 0/0
  5834 ;; Data sizes:     COMMON   BANK0   BANK1   BANK3   BANK2
  5835 ;;      Params:         0       0       0       0       0
  5836 ;;      Locals:         0       3       0       0       0
  5837 ;;      Temps:          0       0       0       0       0
  5838 ;;      Totals:         0       3       0       0       0
  5839 ;;Total ram usage:        3 bytes
  5840 ;; Hardware stack levels used:    1
  5841 ;; Hardware stack levels required when called:    3
  5842 ;; This function calls:
  5843 ;;		_Lcd_Write_Char
  5844 ;; This function is called by:
  5845 ;;		_main
  5846 ;; This function uses a non-reentrant model
  5847 ;;
  5848                           
  5849                           
  5850                           ;psect for function _Lcd_Write_String
  5851  1494                     _Lcd_Write_String:
  5852                           
  5853                           ;incstack = 0
  5854                           ; Regs used in _Lcd_Write_String: [wreg-fsr0h+status,2+status,0+pclath+cstack]
  5855                           ;Lcd_Write_String@a stored from wreg
  5856  1494  1283               	bcf	3,5	;RP0=0, select bank0
  5857  1495  1303               	bcf	3,6	;RP1=0, select bank0
  5858  1496  00A2               	movwf	Lcd_Write_String@a
  5859  1497                     l3335:
  5860                           
  5861                           ;LCD.c: 111:     int i;;LCD.c: 112:     for (i = 0; a[i] != '\0'; i++)
  5862  1497  01A0               	clrf	Lcd_Write_String@i
  5863  1498  01A1               	clrf	Lcd_Write_String@i+1
  5864  1499  2CAF               	goto	l3341
  5865  149A                     l3337:
  5866                           
  5867                           ;LCD.c: 113:         Lcd_Write_Char(a[i]);
  5868  149A  0820               	movf	Lcd_Write_String@i,w
  5869  149B  0722               	addwf	Lcd_Write_String@a,w
  5870  149C  0084               	movwf	4
  5871  149D  160A  118A  2000  160A  118A  	fcall	stringdir
  5872  14A2  160A  118A  2433  160A  118A  	fcall	_Lcd_Write_Char
  5873  14A7                     l3339:
  5874  14A7  3001               	movlw	1
  5875  14A8  1283               	bcf	3,5	;RP0=0, select bank0
  5876  14A9  1303               	bcf	3,6	;RP1=0, select bank0
  5877  14AA  07A0               	addwf	Lcd_Write_String@i,f
  5878  14AB  1803               	skipnc
  5879  14AC  0AA1               	incf	Lcd_Write_String@i+1,f
  5880  14AD  3000               	movlw	0
  5881  14AE  07A1               	addwf	Lcd_Write_String@i+1,f
  5882  14AF                     l3341:
  5883  14AF  0820               	movf	Lcd_Write_String@i,w
  5884  14B0  0722               	addwf	Lcd_Write_String@a,w
  5885  14B1  0084               	movwf	4
  5886  14B2  160A  118A  2000  160A  118A  	fcall	stringdir
  5887  14B7  3A00               	xorlw	0
  5888  14B8  1D03               	skipz
  5889  14B9  2CBB               	goto	u3761
  5890  14BA  2CBC               	goto	u3760
  5891  14BB                     u3761:
  5892  14BB  2C9A               	goto	l3337
  5893  14BC                     u3760:
  5894  14BC                     l367:
  5895  14BC  0008               	return
  5896  14BD                     __end_of_Lcd_Write_String:
  5897                           
  5898                           	psect	text13
  5899  1433                     __ptext13:	
  5900 ;; *************** function _Lcd_Write_Char *****************
  5901 ;; Defined at:
  5902 ;;		line 99 in file "LCD.c"
  5903 ;; Parameters:    Size  Location     Type
  5904 ;;  a               1    wreg     unsigned char 
  5905 ;; Auto vars:     Size  Location     Type
  5906 ;;  a               1    5[COMMON] unsigned char 
  5907 ;;  y               1    6[COMMON] unsigned char 
  5908 ;; Return value:  Size  Location     Type
  5909 ;;                  1    wreg      void 
  5910 ;; Registers used:
  5911 ;;		wreg, status,2, status,0, pclath, cstack
  5912 ;; Tracked objects:
  5913 ;;		On entry : 0/0
  5914 ;;		On exit  : 0/0
  5915 ;;		Unchanged: 0/0
  5916 ;; Data sizes:     COMMON   BANK0   BANK1   BANK3   BANK2
  5917 ;;      Params:         0       0       0       0       0
  5918 ;;      Locals:         2       0       0       0       0
  5919 ;;      Temps:          1       0       0       0       0
  5920 ;;      Totals:         3       0       0       0       0
  5921 ;;Total ram usage:        3 bytes
  5922 ;; Hardware stack levels used:    1
  5923 ;; Hardware stack levels required when called:    2
  5924 ;; This function calls:
  5925 ;;		_Lcd_Port
  5926 ;; This function is called by:
  5927 ;;		_main
  5928 ;;		_Lcd_Write_String
  5929 ;; This function uses a non-reentrant model
  5930 ;;
  5931                           
  5932                           
  5933                           ;psect for function _Lcd_Write_Char
  5934  1433                     _Lcd_Write_Char:
  5935                           
  5936                           ;incstack = 0
  5937                           ; Regs used in _Lcd_Write_Char: [wreg+status,2+status,0+pclath+cstack]
  5938                           ;Lcd_Write_Char@a stored from wreg
  5939  1433  00F5               	movwf	Lcd_Write_Char@a
  5940  1434                     l3161:
  5941                           
  5942                           ;LCD.c: 100:     char y;;LCD.c: 101:     y = a ;
  5943  1434  0875               	movf	Lcd_Write_Char@a,w
  5944  1435  00F4               	movwf	??_Lcd_Write_Char
  5945  1436  0874               	movf	??_Lcd_Write_Char,w
  5946  1437  00F6               	movwf	Lcd_Write_Char@y
  5947  1438                     l3163:
  5948                           
  5949                           ;LCD.c: 102:     RE0 = 1;
  5950  1438  1283               	bcf	3,5	;RP0=0, select bank0
  5951  1439  1303               	bcf	3,6	;RP1=0, select bank0
  5952  143A  1409               	bsf	9,0	;volatile
  5953  143B                     l3165:
  5954                           
  5955                           ;LCD.c: 103:     Lcd_Port(y);
  5956  143B  0876               	movf	Lcd_Write_Char@y,w
  5957  143C  120A  118A  27BE  160A  118A  	fcall	_Lcd_Port
  5958  1441                     l3167:
  5959                           
  5960                           ;LCD.c: 104:     RE1 = 1;
  5961  1441  1283               	bcf	3,5	;RP0=0, select bank0
  5962  1442  1303               	bcf	3,6	;RP1=0, select bank0
  5963  1443  1489               	bsf	9,1	;volatile
  5964  1444                     l3169:
  5965                           
  5966                           ;LCD.c: 105:     _delay((unsigned long)((40)*(8000000/4000000.0)));
  5967  1444  301A               	movlw	26
  5968  1445  00F4               	movwf	??_Lcd_Write_Char
  5969  1446                     u4097:
  5970  1446  0BF4               	decfsz	??_Lcd_Write_Char,f
  5971  1447  2C46               	goto	u4097
  5972  1448  0000               	nop
  5973  1449                     l3171:
  5974                           
  5975                           ;LCD.c: 106:     RE1 = 0;
  5976  1449  1283               	bcf	3,5	;RP0=0, select bank0
  5977  144A  1303               	bcf	3,6	;RP1=0, select bank0
  5978  144B  1089               	bcf	9,1	;volatile
  5979  144C                     l361:
  5980  144C  0008               	return
  5981  144D                     __end_of_Lcd_Write_Char:
  5982                           
  5983                           	psect	text14
  5984  146E                     __ptext14:	
  5985 ;; *************** function _Lcd_Set_Cursor *****************
  5986 ;; Defined at:
  5987 ;;		line 70 in file "LCD.c"
  5988 ;; Parameters:    Size  Location     Type
  5989 ;;  a               1    wreg     unsigned char 
  5990 ;;  b               1    7[COMMON] unsigned char 
  5991 ;; Auto vars:     Size  Location     Type
  5992 ;;  a               1    1[BANK0 ] unsigned char 
  5993 ;;  temp            1    2[BANK0 ] unsigned char 
  5994 ;;  y               1    0        unsigned char 
  5995 ;;  z               1    0        unsigned char 
  5996 ;; Return value:  Size  Location     Type
  5997 ;;                  1    wreg      void 
  5998 ;; Registers used:
  5999 ;;		wreg, status,2, status,0, pclath, cstack
  6000 ;; Tracked objects:
  6001 ;;		On entry : 0/0
  6002 ;;		On exit  : 0/0
  6003 ;;		Unchanged: 0/0
  6004 ;; Data sizes:     COMMON   BANK0   BANK1   BANK3   BANK2
  6005 ;;      Params:         1       0       0       0       0
  6006 ;;      Locals:         0       2       0       0       0
  6007 ;;      Temps:          0       1       0       0       0
  6008 ;;      Totals:         1       3       0       0       0
  6009 ;;Total ram usage:        4 bytes
  6010 ;; Hardware stack levels used:    1
  6011 ;; Hardware stack levels required when called:    3
  6012 ;; This function calls:
  6013 ;;		_Lcd_Cmd
  6014 ;; This function is called by:
  6015 ;;		_main
  6016 ;; This function uses a non-reentrant model
  6017 ;;
  6018                           
  6019                           
  6020                           ;psect for function _Lcd_Set_Cursor
  6021  146E                     _Lcd_Set_Cursor:
  6022                           
  6023                           ;incstack = 0
  6024                           ; Regs used in _Lcd_Set_Cursor: [wreg+status,2+status,0+pclath+cstack]
  6025                           ;Lcd_Set_Cursor@a stored from wreg
  6026  146E  1283               	bcf	3,5	;RP0=0, select bank0
  6027  146F  1303               	bcf	3,6	;RP1=0, select bank0
  6028  1470  00A1               	movwf	Lcd_Set_Cursor@a
  6029  1471                     l3323:
  6030                           
  6031                           ;LCD.c: 71:     char temp, z, y;;LCD.c: 72:     if (a == 1) {
  6032  1471  0321               	decf	Lcd_Set_Cursor@a,w
  6033  1472  1D03               	btfss	3,2
  6034  1473  2C75               	goto	u3741
  6035  1474  2C76               	goto	u3740
  6036  1475                     u3741:
  6037  1475  2C82               	goto	l3329
  6038  1476                     u3740:
  6039  1476                     l3325:
  6040                           
  6041                           ;LCD.c: 73:         temp = 0x80 + b - 1;
  6042  1476  0877               	movf	Lcd_Set_Cursor@b,w
  6043  1477  3E7F               	addlw	127
  6044  1478  00A0               	movwf	??_Lcd_Set_Cursor
  6045  1479  0820               	movf	??_Lcd_Set_Cursor,w
  6046  147A  00A2               	movwf	Lcd_Set_Cursor@temp
  6047  147B                     l3327:
  6048                           
  6049                           ;LCD.c: 75:         Lcd_Cmd(temp);
  6050  147B  0822               	movf	Lcd_Set_Cursor@temp,w
  6051  147C  160A  118A  2419  160A  118A  	fcall	_Lcd_Cmd
  6052                           
  6053                           ;LCD.c: 76:     } else if (a == 2) {
  6054  1481  2C93               	goto	l355
  6055  1482                     l3329:
  6056  1482  3002               	movlw	2
  6057  1483  0621               	xorwf	Lcd_Set_Cursor@a,w
  6058  1484  1D03               	btfss	3,2
  6059  1485  2C87               	goto	u3751
  6060  1486  2C88               	goto	u3750
  6061  1487                     u3751:
  6062  1487  2C93               	goto	l355
  6063  1488                     u3750:
  6064  1488                     l3331:
  6065                           
  6066                           ;LCD.c: 77:         temp = 0xC0 + b - 1;
  6067  1488  0877               	movf	Lcd_Set_Cursor@b,w
  6068  1489  3EBF               	addlw	191
  6069  148A  00A0               	movwf	??_Lcd_Set_Cursor
  6070  148B  0820               	movf	??_Lcd_Set_Cursor,w
  6071  148C  00A2               	movwf	Lcd_Set_Cursor@temp
  6072  148D                     l3333:
  6073                           
  6074                           ;LCD.c: 79:         Lcd_Cmd(temp);
  6075  148D  0822               	movf	Lcd_Set_Cursor@temp,w
  6076  148E  160A  118A  2419  160A  118A  	fcall	_Lcd_Cmd
  6077  1493                     l355:
  6078  1493  0008               	return
  6079  1494                     __end_of_Lcd_Set_Cursor:
  6080                           
  6081                           	psect	text15
  6082  089B                     __ptext15:	
  6083 ;; *************** function _Lcd_Init *****************
  6084 ;; Defined at:
  6085 ;;		line 83 in file "LCD.c"
  6086 ;; Parameters:    Size  Location     Type
  6087 ;;		None
  6088 ;; Auto vars:     Size  Location     Type
  6089 ;;		None
  6090 ;; Return value:  Size  Location     Type
  6091 ;;                  1    wreg      void 
  6092 ;; Registers used:
  6093 ;;		wreg, status,2, status,0, pclath, cstack
  6094 ;; Tracked objects:
  6095 ;;		On entry : 0/0
  6096 ;;		On exit  : 0/0
  6097 ;;		Unchanged: 0/0
  6098 ;; Data sizes:     COMMON   BANK0   BANK1   BANK3   BANK2
  6099 ;;      Params:         0       0       0       0       0
  6100 ;;      Locals:         0       0       0       0       0
  6101 ;;      Temps:          0       2       0       0       0
  6102 ;;      Totals:         0       2       0       0       0
  6103 ;;Total ram usage:        2 bytes
  6104 ;; Hardware stack levels used:    1
  6105 ;; Hardware stack levels required when called:    3
  6106 ;; This function calls:
  6107 ;;		_Lcd_Cmd
  6108 ;;		_Lcd_Port
  6109 ;; This function is called by:
  6110 ;;		_main
  6111 ;; This function uses a non-reentrant model
  6112 ;;
  6113                           
  6114                           
  6115                           ;psect for function _Lcd_Init
  6116  089B                     _Lcd_Init:
  6117  089B                     l3279:	
  6118                           ;incstack = 0
  6119                           ; Regs used in _Lcd_Init: [wreg+status,2+status,0+pclath+cstack]
  6120                           
  6121                           
  6122                           ;LCD.c: 84:     Lcd_Cmd(0x00);
  6123  089B  3000               	movlw	0
  6124  089C  160A  118A  2419  120A  158A  	fcall	_Lcd_Cmd
  6125                           
  6126                           ;LCD.c: 85:     Lcd_Port(0x00);
  6127  08A1  3000               	movlw	0
  6128  08A2  120A  118A  27BE  120A  158A  	fcall	_Lcd_Port
  6129  08A7                     l3281:
  6130                           
  6131                           ;LCD.c: 86:     _delay((unsigned long)((20)*(8000000/4000.0)));
  6132  08A7  3034               	movlw	52
  6133  08A8  1283               	bcf	3,5	;RP0=0, select bank0
  6134  08A9  1303               	bcf	3,6	;RP1=0, select bank0
  6135  08AA  00A1               	movwf	??_Lcd_Init+1
  6136  08AB  30F1               	movlw	241
  6137  08AC  00A0               	movwf	??_Lcd_Init
  6138  08AD                     u4107:
  6139  08AD  0BA0               	decfsz	??_Lcd_Init,f
  6140  08AE  28AD               	goto	u4107
  6141  08AF  0BA1               	decfsz	??_Lcd_Init+1,f
  6142  08B0  28AD               	goto	u4107
  6143  08B1                     l3283:
  6144                           
  6145                           ;LCD.c: 87:     Lcd_Cmd(0x3f);
  6146  08B1  303F               	movlw	63
  6147  08B2  160A  118A  2419  120A  158A  	fcall	_Lcd_Cmd
  6148                           
  6149                           ;LCD.c: 88:     _delay((unsigned long)((5)*(8000000/4000.0)));
  6150  08B7  300D               	movlw	13
  6151  08B8  1283               	bcf	3,5	;RP0=0, select bank0
  6152  08B9  1303               	bcf	3,6	;RP1=0, select bank0
  6153  08BA  00A1               	movwf	??_Lcd_Init+1
  6154  08BB  30FB               	movlw	251
  6155  08BC  00A0               	movwf	??_Lcd_Init
  6156  08BD                     u4117:
  6157  08BD  0BA0               	decfsz	??_Lcd_Init,f
  6158  08BE  28BD               	goto	u4117
  6159  08BF  0BA1               	decfsz	??_Lcd_Init+1,f
  6160  08C0  28BD               	goto	u4117
  6161  08C1                     l3285:
  6162                           
  6163                           ;LCD.c: 89:     Lcd_Cmd(0x3f);
  6164  08C1  303F               	movlw	63
  6165  08C2  160A  118A  2419  120A  158A  	fcall	_Lcd_Cmd
  6166  08C7                     l3287:
  6167                           
  6168                           ;LCD.c: 90:     _delay((unsigned long)((11)*(8000000/4000.0)));
  6169  08C7  301D               	movlw	29
  6170  08C8  1283               	bcf	3,5	;RP0=0, select bank0
  6171  08C9  1303               	bcf	3,6	;RP1=0, select bank0
  6172  08CA  00A1               	movwf	??_Lcd_Init+1
  6173  08CB  3090               	movlw	144
  6174  08CC  00A0               	movwf	??_Lcd_Init
  6175  08CD                     u4127:
  6176  08CD  0BA0               	decfsz	??_Lcd_Init,f
  6177  08CE  28CD               	goto	u4127
  6178  08CF  0BA1               	decfsz	??_Lcd_Init+1,f
  6179  08D0  28CD               	goto	u4127
  6180  08D1  0000               	nop
  6181                           
  6182                           ;LCD.c: 91:     Lcd_Cmd(0x3f);
  6183  08D2  303F               	movlw	63
  6184  08D3  160A  118A  2419  120A  158A  	fcall	_Lcd_Cmd
  6185                           
  6186                           ;LCD.c: 93:     Lcd_Cmd(0x3f);
  6187  08D8  303F               	movlw	63
  6188  08D9  160A  118A  2419  120A  158A  	fcall	_Lcd_Cmd
  6189                           
  6190                           ;LCD.c: 94:     Lcd_Cmd(0x08);
  6191  08DE  3008               	movlw	8
  6192  08DF  160A  118A  2419  120A  158A  	fcall	_Lcd_Cmd
  6193                           
  6194                           ;LCD.c: 95:     Lcd_Cmd(0x01);
  6195  08E4  3001               	movlw	1
  6196  08E5  160A  118A  2419  120A  158A  	fcall	_Lcd_Cmd
  6197                           
  6198                           ;LCD.c: 96:     Lcd_Cmd(0x06);
  6199  08EA  3006               	movlw	6
  6200  08EB  160A  118A  2419  120A  158A  	fcall	_Lcd_Cmd
  6201  08F0                     l358:
  6202  08F0  0008               	return
  6203  08F1                     __end_of_Lcd_Init:
  6204                           
  6205                           	psect	text16
  6206  0805                     __ptext16:	
  6207 ;; *************** function _Lcd_Clear *****************
  6208 ;; Defined at:
  6209 ;;		line 65 in file "LCD.c"
  6210 ;; Parameters:    Size  Location     Type
  6211 ;;		None
  6212 ;; Auto vars:     Size  Location     Type
  6213 ;;		None
  6214 ;; Return value:  Size  Location     Type
  6215 ;;                  1    wreg      void 
  6216 ;; Registers used:
  6217 ;;		wreg, status,2, status,0, pclath, cstack
  6218 ;; Tracked objects:
  6219 ;;		On entry : 0/0
  6220 ;;		On exit  : 0/0
  6221 ;;		Unchanged: 0/0
  6222 ;; Data sizes:     COMMON   BANK0   BANK1   BANK3   BANK2
  6223 ;;      Params:         0       0       0       0       0
  6224 ;;      Locals:         0       0       0       0       0
  6225 ;;      Temps:          0       0       0       0       0
  6226 ;;      Totals:         0       0       0       0       0
  6227 ;;Total ram usage:        0 bytes
  6228 ;; Hardware stack levels used:    1
  6229 ;; Hardware stack levels required when called:    3
  6230 ;; This function calls:
  6231 ;;		_Lcd_Cmd
  6232 ;; This function is called by:
  6233 ;;		_main
  6234 ;; This function uses a non-reentrant model
  6235 ;;
  6236                           
  6237                           
  6238                           ;psect for function _Lcd_Clear
  6239  0805                     _Lcd_Clear:
  6240  0805                     l3321:	
  6241                           ;incstack = 0
  6242                           ; Regs used in _Lcd_Clear: [wreg+status,2+status,0+pclath+cstack]
  6243                           
  6244                           
  6245                           ;LCD.c: 66:     Lcd_Cmd(0);
  6246  0805  3000               	movlw	0
  6247  0806  160A  118A  2419  120A  158A  	fcall	_Lcd_Cmd
  6248                           
  6249                           ;LCD.c: 67:     Lcd_Cmd(1);
  6250  080B  3001               	movlw	1
  6251  080C  160A  118A  2419  120A  158A  	fcall	_Lcd_Cmd
  6252  0811                     l349:
  6253  0811  0008               	return
  6254  0812                     __end_of_Lcd_Clear:
  6255                           
  6256                           	psect	text17
  6257  1419                     __ptext17:	
  6258 ;; *************** function _Lcd_Cmd *****************
  6259 ;; Defined at:
  6260 ;;		line 57 in file "LCD.c"
  6261 ;; Parameters:    Size  Location     Type
  6262 ;;  a               1    wreg     unsigned char 
  6263 ;; Auto vars:     Size  Location     Type
  6264 ;;  a               1    6[COMMON] unsigned char 
  6265 ;; Return value:  Size  Location     Type
  6266 ;;                  1    wreg      void 
  6267 ;; Registers used:
  6268 ;;		wreg, status,2, status,0, pclath, cstack
  6269 ;; Tracked objects:
  6270 ;;		On entry : 0/0
  6271 ;;		On exit  : 0/0
  6272 ;;		Unchanged: 0/0
  6273 ;; Data sizes:     COMMON   BANK0   BANK1   BANK3   BANK2
  6274 ;;      Params:         0       0       0       0       0
  6275 ;;      Locals:         1       0       0       0       0
  6276 ;;      Temps:          2       0       0       0       0
  6277 ;;      Totals:         3       0       0       0       0
  6278 ;;Total ram usage:        3 bytes
  6279 ;; Hardware stack levels used:    1
  6280 ;; Hardware stack levels required when called:    2
  6281 ;; This function calls:
  6282 ;;		_Lcd_Port
  6283 ;; This function is called by:
  6284 ;;		_main
  6285 ;;		_Lcd_Clear
  6286 ;;		_Lcd_Set_Cursor
  6287 ;;		_Lcd_Init
  6288 ;;		_Lcd_Shift_Right
  6289 ;;		_Lcd_Shift_Left
  6290 ;; This function uses a non-reentrant model
  6291 ;;
  6292                           
  6293                           
  6294                           ;psect for function _Lcd_Cmd
  6295  1419                     _Lcd_Cmd:
  6296                           
  6297                           ;incstack = 0
  6298                           ; Regs used in _Lcd_Cmd: [wreg+status,2+status,0+pclath+cstack]
  6299                           ;Lcd_Cmd@a stored from wreg
  6300  1419  00F6               	movwf	Lcd_Cmd@a
  6301  141A                     l3151:
  6302                           
  6303                           ;LCD.c: 58:     RE0 = 0;
  6304  141A  1283               	bcf	3,5	;RP0=0, select bank0
  6305  141B  1303               	bcf	3,6	;RP1=0, select bank0
  6306  141C  1009               	bcf	9,0	;volatile
  6307  141D                     l3153:
  6308                           
  6309                           ;LCD.c: 59:     Lcd_Port(a);
  6310  141D  0876               	movf	Lcd_Cmd@a,w
  6311  141E  120A  118A  27BE  160A  118A  	fcall	_Lcd_Port
  6312  1423                     l3155:
  6313                           
  6314                           ;LCD.c: 60:     RE1 = 1;
  6315  1423  1283               	bcf	3,5	;RP0=0, select bank0
  6316  1424  1303               	bcf	3,6	;RP1=0, select bank0
  6317  1425  1489               	bsf	9,1	;volatile
  6318  1426                     l3157:
  6319                           
  6320                           ;LCD.c: 61:     _delay((unsigned long)((4)*(8000000/4000.0)));
  6321  1426  300B               	movlw	11
  6322  1427  00F5               	movwf	??_Lcd_Cmd+1
  6323  1428  3062               	movlw	98
  6324  1429  00F4               	movwf	??_Lcd_Cmd
  6325  142A                     u4137:
  6326  142A  0BF4               	decfsz	??_Lcd_Cmd,f
  6327  142B  2C2A               	goto	u4137
  6328  142C  0BF5               	decfsz	??_Lcd_Cmd+1,f
  6329  142D  2C2A               	goto	u4137
  6330  142E  0000               	nop
  6331  142F                     l3159:
  6332                           
  6333                           ;LCD.c: 62:     RE1 = 0;
  6334  142F  1283               	bcf	3,5	;RP0=0, select bank0
  6335  1430  1303               	bcf	3,6	;RP1=0, select bank0
  6336  1431  1089               	bcf	9,1	;volatile
  6337  1432                     l346:
  6338  1432  0008               	return
  6339  1433                     __end_of_Lcd_Cmd:
  6340                           
  6341                           	psect	text18
  6342  07BE                     __ptext18:	
  6343 ;; *************** function _Lcd_Port *****************
  6344 ;; Defined at:
  6345 ;;		line 13 in file "LCD.c"
  6346 ;; Parameters:    Size  Location     Type
  6347 ;;  a               1    wreg     unsigned char 
  6348 ;; Auto vars:     Size  Location     Type
  6349 ;;  a               1    3[COMMON] unsigned char 
  6350 ;; Return value:  Size  Location     Type
  6351 ;;                  1    wreg      void 
  6352 ;; Registers used:
  6353 ;;		wreg
  6354 ;; Tracked objects:
  6355 ;;		On entry : 0/0
  6356 ;;		On exit  : 0/0
  6357 ;;		Unchanged: 0/0
  6358 ;; Data sizes:     COMMON   BANK0   BANK1   BANK3   BANK2
  6359 ;;      Params:         0       0       0       0       0
  6360 ;;      Locals:         1       0       0       0       0
  6361 ;;      Temps:          0       0       0       0       0
  6362 ;;      Totals:         1       0       0       0       0
  6363 ;;Total ram usage:        1 bytes
  6364 ;; Hardware stack levels used:    1
  6365 ;; Hardware stack levels required when called:    1
  6366 ;; This function calls:
  6367 ;;		Nothing
  6368 ;; This function is called by:
  6369 ;;		_Lcd_Cmd
  6370 ;;		_Lcd_Init
  6371 ;;		_Lcd_Write_Char
  6372 ;; This function uses a non-reentrant model
  6373 ;;
  6374                           
  6375                           
  6376                           ;psect for function _Lcd_Port
  6377  07BE                     _Lcd_Port:
  6378                           
  6379                           ;incstack = 0
  6380                           ; Regs used in _Lcd_Port: [wreg]
  6381                           ;Lcd_Port@a stored from wreg
  6382  07BE  00F3               	movwf	Lcd_Port@a
  6383  07BF                     l3109:
  6384                           
  6385                           ;LCD.c: 16:     if (a & 1)
  6386  07BF  1C73               	btfss	Lcd_Port@a,0
  6387  07C0  2FC2               	goto	u3451
  6388  07C1  2FC3               	goto	u3450
  6389  07C2                     u3451:
  6390  07C2  2FC7               	goto	l327
  6391  07C3                     u3450:
  6392  07C3                     l3111:
  6393                           
  6394                           ;LCD.c: 17:         RD0 = 1;
  6395  07C3  1283               	bcf	3,5	;RP0=0, select bank0
  6396  07C4  1303               	bcf	3,6	;RP1=0, select bank0
  6397  07C5  1408               	bsf	8,0	;volatile
  6398  07C6  2FCA               	goto	l328
  6399  07C7                     l327:	
  6400                           ;LCD.c: 18:     else
  6401                           
  6402                           
  6403                           ;LCD.c: 19:         RD0 = 0;
  6404  07C7  1283               	bcf	3,5	;RP0=0, select bank0
  6405  07C8  1303               	bcf	3,6	;RP1=0, select bank0
  6406  07C9  1008               	bcf	8,0	;volatile
  6407  07CA                     l328:
  6408                           
  6409                           ;LCD.c: 21:     if (a & 2)
  6410  07CA  1CF3               	btfss	Lcd_Port@a,1
  6411  07CB  2FCD               	goto	u3461
  6412  07CC  2FCE               	goto	u3460
  6413  07CD                     u3461:
  6414  07CD  2FD0               	goto	l329
  6415  07CE                     u3460:
  6416  07CE                     l3113:
  6417                           
  6418                           ;LCD.c: 22:         RD1 = 1;
  6419  07CE  1488               	bsf	8,1	;volatile
  6420  07CF  2FD1               	goto	l330
  6421  07D0                     l329:	
  6422                           ;LCD.c: 23:     else
  6423                           
  6424                           
  6425                           ;LCD.c: 24:         RD1 = 0;
  6426  07D0  1088               	bcf	8,1	;volatile
  6427  07D1                     l330:
  6428                           
  6429                           ;LCD.c: 26:     if (a & 4)
  6430  07D1  1D73               	btfss	Lcd_Port@a,2
  6431  07D2  2FD4               	goto	u3471
  6432  07D3  2FD5               	goto	u3470
  6433  07D4                     u3471:
  6434  07D4  2FD7               	goto	l331
  6435  07D5                     u3470:
  6436  07D5                     l3115:
  6437                           
  6438                           ;LCD.c: 27:         RD2 = 1;
  6439  07D5  1508               	bsf	8,2	;volatile
  6440  07D6  2FD8               	goto	l332
  6441  07D7                     l331:	
  6442                           ;LCD.c: 28:     else
  6443                           
  6444                           
  6445                           ;LCD.c: 29:         RD2 = 0;
  6446  07D7  1108               	bcf	8,2	;volatile
  6447  07D8                     l332:
  6448                           
  6449                           ;LCD.c: 31:     if (a & 8)
  6450  07D8  1DF3               	btfss	Lcd_Port@a,3
  6451  07D9  2FDB               	goto	u3481
  6452  07DA  2FDC               	goto	u3480
  6453  07DB                     u3481:
  6454  07DB  2FDE               	goto	l333
  6455  07DC                     u3480:
  6456  07DC                     l3117:
  6457                           
  6458                           ;LCD.c: 32:         RD3 = 1;
  6459  07DC  1588               	bsf	8,3	;volatile
  6460  07DD  2FDF               	goto	l334
  6461  07DE                     l333:	
  6462                           ;LCD.c: 33:     else
  6463                           
  6464                           
  6465                           ;LCD.c: 34:         RD3 = 0;
  6466  07DE  1188               	bcf	8,3	;volatile
  6467  07DF                     l334:
  6468                           
  6469                           ;LCD.c: 36:     if (a & 16)
  6470  07DF  1E73               	btfss	Lcd_Port@a,4
  6471  07E0  2FE2               	goto	u3491
  6472  07E1  2FE3               	goto	u3490
  6473  07E2                     u3491:
  6474  07E2  2FE5               	goto	l335
  6475  07E3                     u3490:
  6476  07E3                     l3119:
  6477                           
  6478                           ;LCD.c: 37:         RD4 = 1;
  6479  07E3  1608               	bsf	8,4	;volatile
  6480  07E4  2FE6               	goto	l336
  6481  07E5                     l335:	
  6482                           ;LCD.c: 38:     else
  6483                           
  6484                           
  6485                           ;LCD.c: 39:         RD4 = 0;
  6486  07E5  1208               	bcf	8,4	;volatile
  6487  07E6                     l336:
  6488                           
  6489                           ;LCD.c: 41:     if (a & 32)
  6490  07E6  1EF3               	btfss	Lcd_Port@a,5
  6491  07E7  2FE9               	goto	u3501
  6492  07E8  2FEA               	goto	u3500
  6493  07E9                     u3501:
  6494  07E9  2FEC               	goto	l337
  6495  07EA                     u3500:
  6496  07EA                     l3121:
  6497                           
  6498                           ;LCD.c: 42:         RD5 = 1;
  6499  07EA  1688               	bsf	8,5	;volatile
  6500  07EB  2FED               	goto	l338
  6501  07EC                     l337:	
  6502                           ;LCD.c: 43:     else
  6503                           
  6504                           
  6505                           ;LCD.c: 44:         RD5 = 0;
  6506  07EC  1288               	bcf	8,5	;volatile
  6507  07ED                     l338:
  6508                           
  6509                           ;LCD.c: 46:     if (a & 64)
  6510  07ED  1F73               	btfss	Lcd_Port@a,6
  6511  07EE  2FF0               	goto	u3511
  6512  07EF  2FF1               	goto	u3510
  6513  07F0                     u3511:
  6514  07F0  2FF3               	goto	l339
  6515  07F1                     u3510:
  6516  07F1                     l3123:
  6517                           
  6518                           ;LCD.c: 47:         RD6 = 1;
  6519  07F1  1708               	bsf	8,6	;volatile
  6520  07F2  2FF4               	goto	l340
  6521  07F3                     l339:	
  6522                           ;LCD.c: 48:     else
  6523                           
  6524                           
  6525                           ;LCD.c: 49:         RD6 = 0;
  6526  07F3  1308               	bcf	8,6	;volatile
  6527  07F4                     l340:
  6528                           
  6529                           ;LCD.c: 51:     if (a & 128)
  6530  07F4  1FF3               	btfss	Lcd_Port@a,7
  6531  07F5  2FF7               	goto	u3521
  6532  07F6  2FF8               	goto	u3520
  6533  07F7                     u3521:
  6534  07F7  2FFA               	goto	l341
  6535  07F8                     u3520:
  6536  07F8                     l3125:
  6537                           
  6538                           ;LCD.c: 52:         RD7 = 1;
  6539  07F8  1788               	bsf	8,7	;volatile
  6540  07F9  2FFB               	goto	l343
  6541  07FA                     l341:	
  6542                           ;LCD.c: 53:     else
  6543                           
  6544                           
  6545                           ;LCD.c: 54:         RD7 = 0;
  6546  07FA  1388               	bcf	8,7	;volatile
  6547  07FB                     l343:
  6548  07FB  0008               	return
  6549  07FC                     __end_of_Lcd_Port:
  6550                           
  6551                           	psect	text19
  6552  13DE                     __ptext19:	
  6553 ;; *************** function _I2C_Master_Write *****************
  6554 ;; Defined at:
  6555 ;;		line 65 in file "../Proyecto1slv2.X/I2C.c"
  6556 ;; Parameters:    Size  Location     Type
  6557 ;;  d               2    3[COMMON] unsigned int 
  6558 ;; Auto vars:     Size  Location     Type
  6559 ;;		None
  6560 ;; Return value:  Size  Location     Type
  6561 ;;                  1    wreg      void 
  6562 ;; Registers used:
  6563 ;;		wreg, status,2, status,0, pclath, cstack
  6564 ;; Tracked objects:
  6565 ;;		On entry : 0/0
  6566 ;;		On exit  : 0/0
  6567 ;;		Unchanged: 0/0
  6568 ;; Data sizes:     COMMON   BANK0   BANK1   BANK3   BANK2
  6569 ;;      Params:         2       0       0       0       0
  6570 ;;      Locals:         0       0       0       0       0
  6571 ;;      Temps:          0       0       0       0       0
  6572 ;;      Totals:         2       0       0       0       0
  6573 ;;Total ram usage:        2 bytes
  6574 ;; Hardware stack levels used:    1
  6575 ;; Hardware stack levels required when called:    2
  6576 ;; This function calls:
  6577 ;;		_I2C_Master_Wait
  6578 ;; This function is called by:
  6579 ;;		_main
  6580 ;; This function uses a non-reentrant model
  6581 ;;
  6582                           
  6583                           
  6584                           ;psect for function _I2C_Master_Write
  6585  13DE                     _I2C_Master_Write:
  6586  13DE                     l3293:	
  6587                           ;incstack = 0
  6588                           ; Regs used in _I2C_Master_Write: [wreg+status,2+status,0+pclath+cstack]
  6589                           
  6590                           
  6591                           ;../Proyecto1slv2.X/I2C.c: 65: void I2C_Master_Write(unsigned d);../Proyecto1slv2.X/I2C.
      +                          c: 66: {;../Proyecto1slv2.X/I2C.c: 67:     I2C_Master_Wait();
  6592  13DE  160A  118A  23F2  160A  118A  	fcall	_I2C_Master_Wait
  6593  13E3                     l3295:
  6594                           
  6595                           ;../Proyecto1slv2.X/I2C.c: 68:     SSPBUF = d;
  6596  13E3  0873               	movf	I2C_Master_Write@d,w
  6597  13E4  1283               	bcf	3,5	;RP0=0, select bank0
  6598  13E5  1303               	bcf	3,6	;RP1=0, select bank0
  6599  13E6  0093               	movwf	19	;volatile
  6600  13E7                     l224:
  6601  13E7  0008               	return
  6602  13E8                     __end_of_I2C_Master_Write:
  6603                           
  6604                           	psect	text20
  6605  13D5                     __ptext20:	
  6606 ;; *************** function _I2C_Master_Stop *****************
  6607 ;; Defined at:
  6608 ;;		line 55 in file "../Proyecto1slv2.X/I2C.c"
  6609 ;; Parameters:    Size  Location     Type
  6610 ;;		None
  6611 ;; Auto vars:     Size  Location     Type
  6612 ;;		None
  6613 ;; Return value:  Size  Location     Type
  6614 ;;                  1    wreg      void 
  6615 ;; Registers used:
  6616 ;;		wreg, status,2, status,0, pclath, cstack
  6617 ;; Tracked objects:
  6618 ;;		On entry : 0/0
  6619 ;;		On exit  : 0/0
  6620 ;;		Unchanged: 0/0
  6621 ;; Data sizes:     COMMON   BANK0   BANK1   BANK3   BANK2
  6622 ;;      Params:         0       0       0       0       0
  6623 ;;      Locals:         0       0       0       0       0
  6624 ;;      Temps:          0       0       0       0       0
  6625 ;;      Totals:         0       0       0       0       0
  6626 ;;Total ram usage:        0 bytes
  6627 ;; Hardware stack levels used:    1
  6628 ;; Hardware stack levels required when called:    2
  6629 ;; This function calls:
  6630 ;;		_I2C_Master_Wait
  6631 ;; This function is called by:
  6632 ;;		_main
  6633 ;; This function uses a non-reentrant model
  6634 ;;
  6635                           
  6636                           
  6637                           ;psect for function _I2C_Master_Stop
  6638  13D5                     _I2C_Master_Stop:
  6639  13D5                     l3297:	
  6640                           ;incstack = 0
  6641                           ; Regs used in _I2C_Master_Stop: [wreg+status,2+status,0+pclath+cstack]
  6642                           
  6643                           
  6644                           ;../Proyecto1slv2.X/I2C.c: 57:     I2C_Master_Wait();
  6645  13D5  160A  118A  23F2  160A  118A  	fcall	_I2C_Master_Wait
  6646  13DA                     l3299:
  6647                           
  6648                           ;../Proyecto1slv2.X/I2C.c: 58:     SSPCON2bits.PEN = 1;
  6649  13DA  1683               	bsf	3,5	;RP0=1, select bank1
  6650  13DB  1303               	bcf	3,6	;RP1=0, select bank1
  6651  13DC  1511               	bsf	17,2	;volatile
  6652  13DD                     l221:
  6653  13DD  0008               	return
  6654  13DE                     __end_of_I2C_Master_Stop:
  6655                           
  6656                           	psect	text21
  6657  13CC                     __ptext21:	
  6658 ;; *************** function _I2C_Master_Start *****************
  6659 ;; Defined at:
  6660 ;;		line 39 in file "../Proyecto1slv2.X/I2C.c"
  6661 ;; Parameters:    Size  Location     Type
  6662 ;;		None
  6663 ;; Auto vars:     Size  Location     Type
  6664 ;;		None
  6665 ;; Return value:  Size  Location     Type
  6666 ;;                  1    wreg      void 
  6667 ;; Registers used:
  6668 ;;		wreg, status,2, status,0, pclath, cstack
  6669 ;; Tracked objects:
  6670 ;;		On entry : 0/0
  6671 ;;		On exit  : 0/0
  6672 ;;		Unchanged: 0/0
  6673 ;; Data sizes:     COMMON   BANK0   BANK1   BANK3   BANK2
  6674 ;;      Params:         0       0       0       0       0
  6675 ;;      Locals:         0       0       0       0       0
  6676 ;;      Temps:          0       0       0       0       0
  6677 ;;      Totals:         0       0       0       0       0
  6678 ;;Total ram usage:        0 bytes
  6679 ;; Hardware stack levels used:    1
  6680 ;; Hardware stack levels required when called:    2
  6681 ;; This function calls:
  6682 ;;		_I2C_Master_Wait
  6683 ;; This function is called by:
  6684 ;;		_main
  6685 ;; This function uses a non-reentrant model
  6686 ;;
  6687                           
  6688                           
  6689                           ;psect for function _I2C_Master_Start
  6690  13CC                     _I2C_Master_Start:
  6691  13CC                     l3289:	
  6692                           ;incstack = 0
  6693                           ; Regs used in _I2C_Master_Start: [wreg+status,2+status,0+pclath+cstack]
  6694                           
  6695                           
  6696                           ;../Proyecto1slv2.X/I2C.c: 41:     I2C_Master_Wait();
  6697  13CC  160A  118A  23F2  160A  118A  	fcall	_I2C_Master_Wait
  6698  13D1                     l3291:
  6699                           
  6700                           ;../Proyecto1slv2.X/I2C.c: 42:     SSPCON2bits.SEN = 1;
  6701  13D1  1683               	bsf	3,5	;RP0=1, select bank1
  6702  13D2  1303               	bcf	3,6	;RP1=0, select bank1
  6703  13D3  1411               	bsf	17,0	;volatile
  6704  13D4                     l215:
  6705  13D4  0008               	return
  6706  13D5                     __end_of_I2C_Master_Start:
  6707                           
  6708                           	psect	text22
  6709  1540                     __ptext22:	
  6710 ;; *************** function _I2C_Master_Read *****************
  6711 ;; Defined at:
  6712 ;;		line 74 in file "../Proyecto1slv2.X/I2C.c"
  6713 ;; Parameters:    Size  Location     Type
  6714 ;;  a               2    3[COMMON] unsigned short 
  6715 ;; Auto vars:     Size  Location     Type
  6716 ;;  temp            2    0[BANK0 ] unsigned short 
  6717 ;; Return value:  Size  Location     Type
  6718 ;;                  2    3[COMMON] unsigned short 
  6719 ;; Registers used:
  6720 ;;		wreg, status,2, status,0, pclath, cstack
  6721 ;; Tracked objects:
  6722 ;;		On entry : 0/0
  6723 ;;		On exit  : 0/0
  6724 ;;		Unchanged: 0/0
  6725 ;; Data sizes:     COMMON   BANK0   BANK1   BANK3   BANK2
  6726 ;;      Params:         2       0       0       0       0
  6727 ;;      Locals:         0       2       0       0       0
  6728 ;;      Temps:          2       0       0       0       0
  6729 ;;      Totals:         4       2       0       0       0
  6730 ;;Total ram usage:        6 bytes
  6731 ;; Hardware stack levels used:    1
  6732 ;; Hardware stack levels required when called:    2
  6733 ;; This function calls:
  6734 ;;		_I2C_Master_Wait
  6735 ;; This function is called by:
  6736 ;;		_main
  6737 ;; This function uses a non-reentrant model
  6738 ;;
  6739                           
  6740                           
  6741                           ;psect for function _I2C_Master_Read
  6742  1540                     _I2C_Master_Read:
  6743  1540                     l3301:	
  6744                           ;incstack = 0
  6745                           ; Regs used in _I2C_Master_Read: [wreg+status,2+status,0+pclath+cstack]
  6746                           
  6747                           
  6748                           ;../Proyecto1slv2.X/I2C.c: 74: unsigned short I2C_Master_Read(unsigned short a);../Proye
      +                          cto1slv2.X/I2C.c: 75: {;../Proyecto1slv2.X/I2C.c: 76:     unsigned short temp;;../Proyec
      +                          to1slv2.X/I2C.c: 77:     I2C_Master_Wait();
  6749  1540  160A  118A  23F2  160A  118A  	fcall	_I2C_Master_Wait
  6750  1545                     l3303:
  6751                           
  6752                           ;../Proyecto1slv2.X/I2C.c: 78:     SSPCON2bits.RCEN = 1;
  6753  1545  1683               	bsf	3,5	;RP0=1, select bank1
  6754  1546  1303               	bcf	3,6	;RP1=0, select bank1
  6755  1547  1591               	bsf	17,3	;volatile
  6756                           
  6757                           ;../Proyecto1slv2.X/I2C.c: 79:     I2C_Master_Wait();
  6758  1548  160A  118A  23F2  160A  118A  	fcall	_I2C_Master_Wait
  6759  154D                     l3305:
  6760                           
  6761                           ;../Proyecto1slv2.X/I2C.c: 80:     temp = SSPBUF;
  6762  154D  1283               	bcf	3,5	;RP0=0, select bank0
  6763  154E  1303               	bcf	3,6	;RP1=0, select bank0
  6764  154F  0813               	movf	19,w	;volatile
  6765  1550  00F5               	movwf	??_I2C_Master_Read
  6766  1551  01F6               	clrf	??_I2C_Master_Read+1
  6767  1552  0875               	movf	??_I2C_Master_Read,w
  6768  1553  00A0               	movwf	I2C_Master_Read@temp
  6769  1554  0876               	movf	??_I2C_Master_Read+1,w
  6770  1555  00A1               	movwf	I2C_Master_Read@temp+1
  6771  1556                     l3307:
  6772                           
  6773                           ;../Proyecto1slv2.X/I2C.c: 81:     I2C_Master_Wait();
  6774  1556  160A  118A  23F2  160A  118A  	fcall	_I2C_Master_Wait
  6775  155B                     l3309:
  6776                           
  6777                           ;../Proyecto1slv2.X/I2C.c: 82:     if(a == 1){
  6778  155B  0373               	decf	I2C_Master_Read@a,w
  6779  155C  0474               	iorwf	I2C_Master_Read@a+1,w
  6780  155D  1D03               	btfss	3,2
  6781  155E  2D60               	goto	u3721
  6782  155F  2D61               	goto	u3720
  6783  1560                     u3721:
  6784  1560  2D65               	goto	l3313
  6785  1561                     u3720:
  6786  1561                     l3311:
  6787                           
  6788                           ;../Proyecto1slv2.X/I2C.c: 83:         SSPCON2bits.ACKDT = 0;
  6789  1561  1683               	bsf	3,5	;RP0=1, select bank1
  6790  1562  1303               	bcf	3,6	;RP1=0, select bank1
  6791  1563  1291               	bcf	17,5	;volatile
  6792                           
  6793                           ;../Proyecto1slv2.X/I2C.c: 84:     }else if (a==0){
  6794  1564  2D6E               	goto	l228
  6795  1565                     l3313:
  6796  1565  0873               	movf	I2C_Master_Read@a,w
  6797  1566  0474               	iorwf	I2C_Master_Read@a+1,w
  6798  1567  1D03               	btfss	3,2
  6799  1568  2D6A               	goto	u3731
  6800  1569  2D6B               	goto	u3730
  6801  156A                     u3731:
  6802  156A  2D6E               	goto	l228
  6803  156B                     u3730:
  6804  156B                     l3315:
  6805                           
  6806                           ;../Proyecto1slv2.X/I2C.c: 85:         SSPCON2bits.ACKDT = 1;
  6807  156B  1683               	bsf	3,5	;RP0=1, select bank1
  6808  156C  1303               	bcf	3,6	;RP1=0, select bank1
  6809  156D  1691               	bsf	17,5	;volatile
  6810  156E                     l228:
  6811                           
  6812                           ;../Proyecto1slv2.X/I2C.c: 87:     SSPCON2bits.ACKEN = 1;
  6813  156E  1683               	bsf	3,5	;RP0=1, select bank1
  6814  156F  1303               	bcf	3,6	;RP1=0, select bank1
  6815  1570  1611               	bsf	17,4	;volatile
  6816  1571                     l3317:
  6817                           
  6818                           ;../Proyecto1slv2.X/I2C.c: 88:     return temp;
  6819  1571  1283               	bcf	3,5	;RP0=0, select bank0
  6820  1572  1303               	bcf	3,6	;RP1=0, select bank0
  6821  1573  0821               	movf	I2C_Master_Read@temp+1,w
  6822  1574  00F4               	movwf	?_I2C_Master_Read+1
  6823  1575  0820               	movf	I2C_Master_Read@temp,w
  6824  1576  00F3               	movwf	?_I2C_Master_Read
  6825  1577                     l230:
  6826  1577  0008               	return
  6827  1578                     __end_of_I2C_Master_Read:
  6828                           
  6829                           	psect	text23
  6830  13F2                     __ptext23:	
  6831 ;; *************** function _I2C_Master_Wait *****************
  6832 ;; Defined at:
  6833 ;;		line 32 in file "../Proyecto1slv2.X/I2C.c"
  6834 ;; Parameters:    Size  Location     Type
  6835 ;;		None
  6836 ;; Auto vars:     Size  Location     Type
  6837 ;;		None
  6838 ;; Return value:  Size  Location     Type
  6839 ;;                  1    wreg      void 
  6840 ;; Registers used:
  6841 ;;		wreg, status,2
  6842 ;; Tracked objects:
  6843 ;;		On entry : 0/0
  6844 ;;		On exit  : 0/0
  6845 ;;		Unchanged: 0/0
  6846 ;; Data sizes:     COMMON   BANK0   BANK1   BANK3   BANK2
  6847 ;;      Params:         0       0       0       0       0
  6848 ;;      Locals:         0       0       0       0       0
  6849 ;;      Temps:          0       0       0       0       0
  6850 ;;      Totals:         0       0       0       0       0
  6851 ;;Total ram usage:        0 bytes
  6852 ;; Hardware stack levels used:    1
  6853 ;; Hardware stack levels required when called:    1
  6854 ;; This function calls:
  6855 ;;		Nothing
  6856 ;; This function is called by:
  6857 ;;		_I2C_Master_Start
  6858 ;;		_I2C_Master_Stop
  6859 ;;		_I2C_Master_Write
  6860 ;;		_I2C_Master_Read
  6861 ;;		_I2C_Master_RepeatedStart
  6862 ;; This function uses a non-reentrant model
  6863 ;;
  6864                           
  6865                           
  6866                           ;psect for function _I2C_Master_Wait
  6867  13F2                     _I2C_Master_Wait:
  6868  13F2                     l3185:	
  6869                           ;incstack = 0
  6870                           ; Regs used in _I2C_Master_Wait: [wreg+status,2]
  6871                           
  6872  13F2                     l209:	
  6873                           ;../Proyecto1slv2.X/I2C.c: 34:     while ((SSPSTAT & 0x04) || (SSPCON2 & 0x1F));
  6874                           
  6875  13F2  1683               	bsf	3,5	;RP0=1, select bank1
  6876  13F3  1303               	bcf	3,6	;RP1=0, select bank1
  6877  13F4  1914               	btfsc	20,2	;volatile
  6878  13F5  2BF7               	goto	u3611
  6879  13F6  2BF8               	goto	u3610
  6880  13F7                     u3611:
  6881  13F7  2BF2               	goto	l209
  6882  13F8                     u3610:
  6883  13F8                     l3187:
  6884  13F8  0811               	movf	17,w	;volatile
  6885  13F9  391F               	andlw	31
  6886  13FA  1D03               	btfss	3,2
  6887  13FB  2BFD               	goto	u3621
  6888  13FC  2BFE               	goto	u3620
  6889  13FD                     u3621:
  6890  13FD  2BF2               	goto	l209
  6891  13FE                     u3620:
  6892  13FE                     l212:
  6893  13FE  0008               	return
  6894  13FF                     __end_of_I2C_Master_Wait:
  6895                           
  6896                           	psect	text24
  6897  1513                     __ptext24:	
  6898 ;; *************** function _BTD_UNIDAD *****************
  6899 ;; Defined at:
  6900 ;;		line 25 in file "BTD_CONVERTER.c"
  6901 ;; Parameters:    Size  Location     Type
  6902 ;;  valor2          2    2[BANK0 ] int 
  6903 ;; Auto vars:     Size  Location     Type
  6904 ;;  salida2         2    6[BANK0 ] int 
  6905 ;;  temporal2       2    4[BANK0 ] int 
  6906 ;; Return value:  Size  Location     Type
  6907 ;;                  2    2[BANK0 ] int 
  6908 ;; Registers used:
  6909 ;;		wreg, status,2, status,0, pclath, cstack
  6910 ;; Tracked objects:
  6911 ;;		On entry : 0/0
  6912 ;;		On exit  : 0/0
  6913 ;;		Unchanged: 0/0
  6914 ;; Data sizes:     COMMON   BANK0   BANK1   BANK3   BANK2
  6915 ;;      Params:         0       2       0       0       0
  6916 ;;      Locals:         0       4       0       0       0
  6917 ;;      Temps:          0       0       0       0       0
  6918 ;;      Totals:         0       6       0       0       0
  6919 ;;Total ram usage:        6 bytes
  6920 ;; Hardware stack levels used:    1
  6921 ;; Hardware stack levels required when called:    2
  6922 ;; This function calls:
  6923 ;;		___awmod
  6924 ;; This function is called by:
  6925 ;;		_main
  6926 ;; This function uses a non-reentrant model
  6927 ;;
  6928                           
  6929                           
  6930                           ;psect for function _BTD_UNIDAD
  6931  1513                     _BTD_UNIDAD:
  6932  1513                     l3355:	
  6933                           ;incstack = 0
  6934                           ; Regs used in _BTD_UNIDAD: [wreg+status,2+status,0+pclath+cstack]
  6935                           
  6936                           
  6937                           ;BTD_CONVERTER.c: 26:     int temporal2;;BTD_CONVERTER.c: 27:     int salida2;;BTD_CONVE
      +                          RTER.c: 28:     temporal2 = valor2 % 100;
  6938  1513  3064               	movlw	100
  6939  1514  00F3               	movwf	___awmod@divisor
  6940  1515  3000               	movlw	0
  6941  1516  00F4               	movwf	___awmod@divisor+1
  6942  1517  1283               	bcf	3,5	;RP0=0, select bank0
  6943  1518  1303               	bcf	3,6	;RP1=0, select bank0
  6944  1519  0823               	movf	BTD_UNIDAD@valor2+1,w
  6945  151A  00F6               	movwf	___awmod@dividend+1
  6946  151B  0822               	movf	BTD_UNIDAD@valor2,w
  6947  151C  00F5               	movwf	___awmod@dividend
  6948  151D  120A  158A  20F1  160A  118A  	fcall	___awmod
  6949  1522  0874               	movf	?___awmod+1,w
  6950  1523  1283               	bcf	3,5	;RP0=0, select bank0
  6951  1524  1303               	bcf	3,6	;RP1=0, select bank0
  6952  1525  00A5               	movwf	BTD_UNIDAD@temporal2+1
  6953  1526  0873               	movf	?___awmod,w
  6954  1527  00A4               	movwf	BTD_UNIDAD@temporal2
  6955                           
  6956                           ;BTD_CONVERTER.c: 29:     salida2 = temporal2 % 10;
  6957  1528  300A               	movlw	10
  6958  1529  00F3               	movwf	___awmod@divisor
  6959  152A  3000               	movlw	0
  6960  152B  00F4               	movwf	___awmod@divisor+1
  6961  152C  0825               	movf	BTD_UNIDAD@temporal2+1,w
  6962  152D  00F6               	movwf	___awmod@dividend+1
  6963  152E  0824               	movf	BTD_UNIDAD@temporal2,w
  6964  152F  00F5               	movwf	___awmod@dividend
  6965  1530  120A  158A  20F1  160A  118A  	fcall	___awmod
  6966  1535  0874               	movf	?___awmod+1,w
  6967  1536  1283               	bcf	3,5	;RP0=0, select bank0
  6968  1537  1303               	bcf	3,6	;RP1=0, select bank0
  6969  1538  00A7               	movwf	BTD_UNIDAD@salida2+1
  6970  1539  0873               	movf	?___awmod,w
  6971  153A  00A6               	movwf	BTD_UNIDAD@salida2
  6972  153B                     l3357:
  6973                           
  6974                           ;BTD_CONVERTER.c: 30:     return (salida2);
  6975  153B  0827               	movf	BTD_UNIDAD@salida2+1,w
  6976  153C  00A3               	movwf	?_BTD_UNIDAD+1
  6977  153D  0826               	movf	BTD_UNIDAD@salida2,w
  6978  153E  00A2               	movwf	?_BTD_UNIDAD
  6979  153F                     l302:
  6980  153F  0008               	return
  6981  1540                     __end_of_BTD_UNIDAD:
  6982                           
  6983                           	psect	text25
  6984  14E6                     __ptext25:	
  6985 ;; *************** function _BTD_DECIMAL *****************
  6986 ;; Defined at:
  6987 ;;		line 18 in file "BTD_CONVERTER.c"
  6988 ;; Parameters:    Size  Location     Type
  6989 ;;  valor1          2    4[BANK0 ] int 
  6990 ;; Auto vars:     Size  Location     Type
  6991 ;;  salida1         2    8[BANK0 ] int 
  6992 ;;  temporal1       2    6[BANK0 ] int 
  6993 ;; Return value:  Size  Location     Type
  6994 ;;                  2    4[BANK0 ] int 
  6995 ;; Registers used:
  6996 ;;		wreg, status,2, status,0, pclath, cstack
  6997 ;; Tracked objects:
  6998 ;;		On entry : 0/0
  6999 ;;		On exit  : 0/0
  7000 ;;		Unchanged: 0/0
  7001 ;; Data sizes:     COMMON   BANK0   BANK1   BANK3   BANK2
  7002 ;;      Params:         0       2       0       0       0
  7003 ;;      Locals:         0       4       0       0       0
  7004 ;;      Temps:          0       0       0       0       0
  7005 ;;      Totals:         0       6       0       0       0
  7006 ;;Total ram usage:        6 bytes
  7007 ;; Hardware stack levels used:    1
  7008 ;; Hardware stack levels required when called:    2
  7009 ;; This function calls:
  7010 ;;		___awdiv
  7011 ;;		___awmod
  7012 ;; This function is called by:
  7013 ;;		_main
  7014 ;; This function uses a non-reentrant model
  7015 ;;
  7016                           
  7017                           
  7018                           ;psect for function _BTD_DECIMAL
  7019  14E6                     _BTD_DECIMAL:
  7020  14E6                     l3349:	
  7021                           ;incstack = 0
  7022                           ; Regs used in _BTD_DECIMAL: [wreg+status,2+status,0+pclath+cstack]
  7023                           
  7024                           
  7025                           ;BTD_CONVERTER.c: 19:     int temporal1;;BTD_CONVERTER.c: 20:     int salida1;;BTD_CONVE
      +                          RTER.c: 21:     temporal1 = valor1 % 100;
  7026  14E6  3064               	movlw	100
  7027  14E7  00F3               	movwf	___awmod@divisor
  7028  14E8  3000               	movlw	0
  7029  14E9  00F4               	movwf	___awmod@divisor+1
  7030  14EA  1283               	bcf	3,5	;RP0=0, select bank0
  7031  14EB  1303               	bcf	3,6	;RP1=0, select bank0
  7032  14EC  0825               	movf	BTD_DECIMAL@valor1+1,w
  7033  14ED  00F6               	movwf	___awmod@dividend+1
  7034  14EE  0824               	movf	BTD_DECIMAL@valor1,w
  7035  14EF  00F5               	movwf	___awmod@dividend
  7036  14F0  120A  158A  20F1  160A  118A  	fcall	___awmod
  7037  14F5  0874               	movf	?___awmod+1,w
  7038  14F6  1283               	bcf	3,5	;RP0=0, select bank0
  7039  14F7  1303               	bcf	3,6	;RP1=0, select bank0
  7040  14F8  00A7               	movwf	BTD_DECIMAL@temporal1+1
  7041  14F9  0873               	movf	?___awmod,w
  7042  14FA  00A6               	movwf	BTD_DECIMAL@temporal1
  7043                           
  7044                           ;BTD_CONVERTER.c: 22:     salida1 = temporal1/10;
  7045  14FB  300A               	movlw	10
  7046  14FC  00F3               	movwf	___awdiv@divisor
  7047  14FD  3000               	movlw	0
  7048  14FE  00F4               	movwf	___awdiv@divisor+1
  7049  14FF  0827               	movf	BTD_DECIMAL@temporal1+1,w
  7050  1500  00F6               	movwf	___awdiv@dividend+1
  7051  1501  0826               	movf	BTD_DECIMAL@temporal1,w
  7052  1502  00F5               	movwf	___awdiv@dividend
  7053  1503  120A  118A  26ED  160A  118A  	fcall	___awdiv
  7054  1508  0874               	movf	?___awdiv+1,w
  7055  1509  1283               	bcf	3,5	;RP0=0, select bank0
  7056  150A  1303               	bcf	3,6	;RP1=0, select bank0
  7057  150B  00A9               	movwf	BTD_DECIMAL@salida1+1
  7058  150C  0873               	movf	?___awdiv,w
  7059  150D  00A8               	movwf	BTD_DECIMAL@salida1
  7060  150E                     l3351:
  7061                           
  7062                           ;BTD_CONVERTER.c: 23:     return (salida1);
  7063  150E  0829               	movf	BTD_DECIMAL@salida1+1,w
  7064  150F  00A5               	movwf	?_BTD_DECIMAL+1
  7065  1510  0828               	movf	BTD_DECIMAL@salida1,w
  7066  1511  00A4               	movwf	?_BTD_DECIMAL
  7067  1512                     l299:
  7068  1512  0008               	return
  7069  1513                     __end_of_BTD_DECIMAL:
  7070                           
  7071                           	psect	text26
  7072  08F1                     __ptext26:	
  7073 ;; *************** function ___awmod *****************
  7074 ;; Defined at:
  7075 ;;		line 5 in file "C:\Program Files\Microchip\xc8\v2.31\pic\sources\c90\common\awmod.c"
  7076 ;; Parameters:    Size  Location     Type
  7077 ;;  divisor         2    3[COMMON] int 
  7078 ;;  dividend        2    5[COMMON] int 
  7079 ;; Auto vars:     Size  Location     Type
  7080 ;;  sign            1    1[BANK0 ] unsigned char 
  7081 ;;  counter         1    0[BANK0 ] unsigned char 
  7082 ;; Return value:  Size  Location     Type
  7083 ;;                  2    3[COMMON] int 
  7084 ;; Registers used:
  7085 ;;		wreg, status,2, status,0
  7086 ;; Tracked objects:
  7087 ;;		On entry : 0/0
  7088 ;;		On exit  : 0/0
  7089 ;;		Unchanged: 0/0
  7090 ;; Data sizes:     COMMON   BANK0   BANK1   BANK3   BANK2
  7091 ;;      Params:         4       0       0       0       0
  7092 ;;      Locals:         0       2       0       0       0
  7093 ;;      Temps:          1       0       0       0       0
  7094 ;;      Totals:         5       2       0       0       0
  7095 ;;Total ram usage:        7 bytes
  7096 ;; Hardware stack levels used:    1
  7097 ;; Hardware stack levels required when called:    1
  7098 ;; This function calls:
  7099 ;;		Nothing
  7100 ;; This function is called by:
  7101 ;;		_BTD_DECIMAL
  7102 ;;		_BTD_UNIDAD
  7103 ;; This function uses a non-reentrant model
  7104 ;;
  7105                           
  7106                           
  7107                           ;psect for function ___awmod
  7108  08F1                     ___awmod:
  7109  08F1                     l3189:	
  7110                           ;incstack = 0
  7111                           ; Regs used in ___awmod: [wreg+status,2+status,0]
  7112                           
  7113  08F1  1283               	bcf	3,5	;RP0=0, select bank0
  7114  08F2  1303               	bcf	3,6	;RP1=0, select bank0
  7115  08F3  01A1               	clrf	___awmod@sign
  7116  08F4                     l3191:
  7117  08F4  1FF6               	btfss	___awmod@dividend+1,7
  7118  08F5  28F7               	goto	u3631
  7119  08F6  28F8               	goto	u3630
  7120  08F7                     u3631:
  7121  08F7  28FF               	goto	l3197
  7122  08F8                     u3630:
  7123  08F8                     l3193:
  7124  08F8  09F5               	comf	___awmod@dividend,f
  7125  08F9  09F6               	comf	___awmod@dividend+1,f
  7126  08FA  0AF5               	incf	___awmod@dividend,f
  7127  08FB  1903               	skipnz
  7128  08FC  0AF6               	incf	___awmod@dividend+1,f
  7129  08FD                     l3195:
  7130  08FD  01A1               	clrf	___awmod@sign
  7131  08FE  0AA1               	incf	___awmod@sign,f
  7132  08FF                     l3197:
  7133  08FF  1FF4               	btfss	___awmod@divisor+1,7
  7134  0900  2902               	goto	u3641
  7135  0901  2903               	goto	u3640
  7136  0902                     u3641:
  7137  0902  2908               	goto	l3201
  7138  0903                     u3640:
  7139  0903                     l3199:
  7140  0903  09F3               	comf	___awmod@divisor,f
  7141  0904  09F4               	comf	___awmod@divisor+1,f
  7142  0905  0AF3               	incf	___awmod@divisor,f
  7143  0906  1903               	skipnz
  7144  0907  0AF4               	incf	___awmod@divisor+1,f
  7145  0908                     l3201:
  7146  0908  0873               	movf	___awmod@divisor,w
  7147  0909  0474               	iorwf	___awmod@divisor+1,w
  7148  090A  1903               	btfsc	3,2
  7149  090B  290D               	goto	u3651
  7150  090C  290E               	goto	u3650
  7151  090D                     u3651:
  7152  090D  293D               	goto	l3219
  7153  090E                     u3650:
  7154  090E                     l3203:
  7155  090E  01A0               	clrf	___awmod@counter
  7156  090F  0AA0               	incf	___awmod@counter,f
  7157  0910  291C               	goto	l3209
  7158  0911                     l3205:
  7159  0911  3001               	movlw	1
  7160  0912                     u3665:
  7161  0912  1003               	clrc
  7162  0913  0DF3               	rlf	___awmod@divisor,f
  7163  0914  0DF4               	rlf	___awmod@divisor+1,f
  7164  0915  3EFF               	addlw	-1
  7165  0916  1D03               	skipz
  7166  0917  2912               	goto	u3665
  7167  0918                     l3207:
  7168  0918  3001               	movlw	1
  7169  0919  00F7               	movwf	??___awmod
  7170  091A  0877               	movf	??___awmod,w
  7171  091B  07A0               	addwf	___awmod@counter,f
  7172  091C                     l3209:
  7173  091C  1FF4               	btfss	___awmod@divisor+1,7
  7174  091D  291F               	goto	u3671
  7175  091E  2920               	goto	u3670
  7176  091F                     u3671:
  7177  091F  2911               	goto	l3205
  7178  0920                     u3670:
  7179  0920                     l3211:
  7180  0920  0874               	movf	___awmod@divisor+1,w
  7181  0921  0276               	subwf	___awmod@dividend+1,w
  7182  0922  1D03               	skipz
  7183  0923  2926               	goto	u3685
  7184  0924  0873               	movf	___awmod@divisor,w
  7185  0925  0275               	subwf	___awmod@dividend,w
  7186  0926                     u3685:
  7187  0926  1C03               	skipc
  7188  0927  2929               	goto	u3681
  7189  0928  292A               	goto	u3680
  7190  0929                     u3681:
  7191  0929  2930               	goto	l3215
  7192  092A                     u3680:
  7193  092A                     l3213:
  7194  092A  0873               	movf	___awmod@divisor,w
  7195  092B  02F5               	subwf	___awmod@dividend,f
  7196  092C  0874               	movf	___awmod@divisor+1,w
  7197  092D  1C03               	skipc
  7198  092E  03F6               	decf	___awmod@dividend+1,f
  7199  092F  02F6               	subwf	___awmod@dividend+1,f
  7200  0930                     l3215:
  7201  0930  3001               	movlw	1
  7202  0931                     u3695:
  7203  0931  1003               	clrc
  7204  0932  0CF4               	rrf	___awmod@divisor+1,f
  7205  0933  0CF3               	rrf	___awmod@divisor,f
  7206  0934  3EFF               	addlw	-1
  7207  0935  1D03               	skipz
  7208  0936  2931               	goto	u3695
  7209  0937                     l3217:
  7210  0937  3001               	movlw	1
  7211  0938  02A0               	subwf	___awmod@counter,f
  7212  0939  1D03               	btfss	3,2
  7213  093A  293C               	goto	u3701
  7214  093B  293D               	goto	u3700
  7215  093C                     u3701:
  7216  093C  2920               	goto	l3211
  7217  093D                     u3700:
  7218  093D                     l3219:
  7219  093D  0821               	movf	___awmod@sign,w
  7220  093E  1903               	btfsc	3,2
  7221  093F  2941               	goto	u3711
  7222  0940  2942               	goto	u3710
  7223  0941                     u3711:
  7224  0941  2947               	goto	l3223
  7225  0942                     u3710:
  7226  0942                     l3221:
  7227  0942  09F5               	comf	___awmod@dividend,f
  7228  0943  09F6               	comf	___awmod@dividend+1,f
  7229  0944  0AF5               	incf	___awmod@dividend,f
  7230  0945  1903               	skipnz
  7231  0946  0AF6               	incf	___awmod@dividend+1,f
  7232  0947                     l3223:
  7233  0947  0876               	movf	___awmod@dividend+1,w
  7234  0948  00F4               	movwf	?___awmod+1
  7235  0949  0875               	movf	___awmod@dividend,w
  7236  094A  00F3               	movwf	?___awmod
  7237  094B                     l625:
  7238  094B  0008               	return
  7239  094C                     __end_of___awmod:
  7240                           
  7241                           	psect	text27
  7242  13FF                     __ptext27:	
  7243 ;; *************** function _BTD_CENTENA *****************
  7244 ;; Defined at:
  7245 ;;		line 13 in file "BTD_CONVERTER.c"
  7246 ;; Parameters:    Size  Location     Type
  7247 ;;  valor           2    4[BANK0 ] int 
  7248 ;; Auto vars:     Size  Location     Type
  7249 ;;  salida          2    6[BANK0 ] int 
  7250 ;; Return value:  Size  Location     Type
  7251 ;;                  2    4[BANK0 ] int 
  7252 ;; Registers used:
  7253 ;;		wreg, status,2, status,0, pclath, cstack
  7254 ;; Tracked objects:
  7255 ;;		On entry : 0/0
  7256 ;;		On exit  : 0/0
  7257 ;;		Unchanged: 0/0
  7258 ;; Data sizes:     COMMON   BANK0   BANK1   BANK3   BANK2
  7259 ;;      Params:         0       2       0       0       0
  7260 ;;      Locals:         0       2       0       0       0
  7261 ;;      Temps:          0       0       0       0       0
  7262 ;;      Totals:         0       4       0       0       0
  7263 ;;Total ram usage:        4 bytes
  7264 ;; Hardware stack levels used:    1
  7265 ;; Hardware stack levels required when called:    2
  7266 ;; This function calls:
  7267 ;;		___awdiv
  7268 ;; This function is called by:
  7269 ;;		_main
  7270 ;; This function uses a non-reentrant model
  7271 ;;
  7272                           
  7273                           
  7274                           ;psect for function _BTD_CENTENA
  7275  13FF                     _BTD_CENTENA:
  7276  13FF                     l3343:	
  7277                           ;incstack = 0
  7278                           ; Regs used in _BTD_CENTENA: [wreg+status,2+status,0+pclath+cstack]
  7279                           
  7280                           
  7281                           ;BTD_CONVERTER.c: 14:     int salida;;BTD_CONVERTER.c: 15:     salida = valor/100;
  7282  13FF  3064               	movlw	100
  7283  1400  00F3               	movwf	___awdiv@divisor
  7284  1401  3000               	movlw	0
  7285  1402  00F4               	movwf	___awdiv@divisor+1
  7286  1403  1283               	bcf	3,5	;RP0=0, select bank0
  7287  1404  1303               	bcf	3,6	;RP1=0, select bank0
  7288  1405  0825               	movf	BTD_CENTENA@valor+1,w
  7289  1406  00F6               	movwf	___awdiv@dividend+1
  7290  1407  0824               	movf	BTD_CENTENA@valor,w
  7291  1408  00F5               	movwf	___awdiv@dividend
  7292  1409  120A  118A  26ED  160A  118A  	fcall	___awdiv
  7293  140E  0874               	movf	?___awdiv+1,w
  7294  140F  1283               	bcf	3,5	;RP0=0, select bank0
  7295  1410  1303               	bcf	3,6	;RP1=0, select bank0
  7296  1411  00A7               	movwf	BTD_CENTENA@salida+1
  7297  1412  0873               	movf	?___awdiv,w
  7298  1413  00A6               	movwf	BTD_CENTENA@salida
  7299  1414                     l3345:
  7300                           
  7301                           ;BTD_CONVERTER.c: 16:     return(salida);
  7302  1414  0827               	movf	BTD_CENTENA@salida+1,w
  7303  1415  00A5               	movwf	?_BTD_CENTENA+1
  7304  1416  0826               	movf	BTD_CENTENA@salida,w
  7305  1417  00A4               	movwf	?_BTD_CENTENA
  7306  1418                     l296:
  7307  1418  0008               	return
  7308  1419                     __end_of_BTD_CENTENA:
  7309                           
  7310                           	psect	text28
  7311  06ED                     __ptext28:	
  7312 ;; *************** function ___awdiv *****************
  7313 ;; Defined at:
  7314 ;;		line 5 in file "C:\Program Files\Microchip\xc8\v2.31\pic\sources\c90\common\awdiv.c"
  7315 ;; Parameters:    Size  Location     Type
  7316 ;;  divisor         2    3[COMMON] int 
  7317 ;;  dividend        2    5[COMMON] int 
  7318 ;; Auto vars:     Size  Location     Type
  7319 ;;  quotient        2    2[BANK0 ] int 
  7320 ;;  sign            1    1[BANK0 ] unsigned char 
  7321 ;;  counter         1    0[BANK0 ] unsigned char 
  7322 ;; Return value:  Size  Location     Type
  7323 ;;                  2    3[COMMON] int 
  7324 ;; Registers used:
  7325 ;;		wreg, status,2, status,0
  7326 ;; Tracked objects:
  7327 ;;		On entry : 0/0
  7328 ;;		On exit  : 0/0
  7329 ;;		Unchanged: 0/0
  7330 ;; Data sizes:     COMMON   BANK0   BANK1   BANK3   BANK2
  7331 ;;      Params:         4       0       0       0       0
  7332 ;;      Locals:         0       4       0       0       0
  7333 ;;      Temps:          1       0       0       0       0
  7334 ;;      Totals:         5       4       0       0       0
  7335 ;;Total ram usage:        9 bytes
  7336 ;; Hardware stack levels used:    1
  7337 ;; Hardware stack levels required when called:    1
  7338 ;; This function calls:
  7339 ;;		Nothing
  7340 ;; This function is called by:
  7341 ;;		_BTD_CENTENA
  7342 ;;		_BTD_DECIMAL
  7343 ;; This function uses a non-reentrant model
  7344 ;;
  7345                           
  7346                           
  7347                           ;psect for function ___awdiv
  7348  06ED                     ___awdiv:
  7349  06ED                     l2139:	
  7350                           ;incstack = 0
  7351                           ; Regs used in ___awdiv: [wreg+status,2+status,0]
  7352                           
  7353  06ED  1283               	bcf	3,5	;RP0=0, select bank0
  7354  06EE  1303               	bcf	3,6	;RP1=0, select bank0
  7355  06EF  01A1               	clrf	___awdiv@sign
  7356  06F0                     l2141:
  7357  06F0  1FF4               	btfss	___awdiv@divisor+1,7
  7358  06F1  2EF3               	goto	u1911
  7359  06F2  2EF4               	goto	u1910
  7360  06F3                     u1911:
  7361  06F3  2EFB               	goto	l2147
  7362  06F4                     u1910:
  7363  06F4                     l2143:
  7364  06F4  09F3               	comf	___awdiv@divisor,f
  7365  06F5  09F4               	comf	___awdiv@divisor+1,f
  7366  06F6  0AF3               	incf	___awdiv@divisor,f
  7367  06F7  1903               	skipnz
  7368  06F8  0AF4               	incf	___awdiv@divisor+1,f
  7369  06F9                     l2145:
  7370  06F9  01A1               	clrf	___awdiv@sign
  7371  06FA  0AA1               	incf	___awdiv@sign,f
  7372  06FB                     l2147:
  7373  06FB  1FF6               	btfss	___awdiv@dividend+1,7
  7374  06FC  2EFE               	goto	u1921
  7375  06FD  2EFF               	goto	u1920
  7376  06FE                     u1921:
  7377  06FE  2F08               	goto	l2153
  7378  06FF                     u1920:
  7379  06FF                     l2149:
  7380  06FF  09F5               	comf	___awdiv@dividend,f
  7381  0700  09F6               	comf	___awdiv@dividend+1,f
  7382  0701  0AF5               	incf	___awdiv@dividend,f
  7383  0702  1903               	skipnz
  7384  0703  0AF6               	incf	___awdiv@dividend+1,f
  7385  0704                     l2151:
  7386  0704  3001               	movlw	1
  7387  0705  00F7               	movwf	??___awdiv
  7388  0706  0877               	movf	??___awdiv,w
  7389  0707  06A1               	xorwf	___awdiv@sign,f
  7390  0708                     l2153:
  7391  0708  01A2               	clrf	___awdiv@quotient
  7392  0709  01A3               	clrf	___awdiv@quotient+1
  7393  070A                     l2155:
  7394  070A  0873               	movf	___awdiv@divisor,w
  7395  070B  0474               	iorwf	___awdiv@divisor+1,w
  7396  070C  1903               	btfsc	3,2
  7397  070D  2F0F               	goto	u1931
  7398  070E  2F10               	goto	u1930
  7399  070F                     u1931:
  7400  070F  2F47               	goto	l2175
  7401  0710                     u1930:
  7402  0710                     l2157:
  7403  0710  01A0               	clrf	___awdiv@counter
  7404  0711  0AA0               	incf	___awdiv@counter,f
  7405  0712  2F1E               	goto	l2163
  7406  0713                     l2159:
  7407  0713  3001               	movlw	1
  7408  0714                     u1945:
  7409  0714  1003               	clrc
  7410  0715  0DF3               	rlf	___awdiv@divisor,f
  7411  0716  0DF4               	rlf	___awdiv@divisor+1,f
  7412  0717  3EFF               	addlw	-1
  7413  0718  1D03               	skipz
  7414  0719  2F14               	goto	u1945
  7415  071A                     l2161:
  7416  071A  3001               	movlw	1
  7417  071B  00F7               	movwf	??___awdiv
  7418  071C  0877               	movf	??___awdiv,w
  7419  071D  07A0               	addwf	___awdiv@counter,f
  7420  071E                     l2163:
  7421  071E  1FF4               	btfss	___awdiv@divisor+1,7
  7422  071F  2F21               	goto	u1951
  7423  0720  2F22               	goto	u1950
  7424  0721                     u1951:
  7425  0721  2F13               	goto	l2159
  7426  0722                     u1950:
  7427  0722                     l2165:
  7428  0722  3001               	movlw	1
  7429  0723                     u1965:
  7430  0723  1003               	clrc
  7431  0724  0DA2               	rlf	___awdiv@quotient,f
  7432  0725  0DA3               	rlf	___awdiv@quotient+1,f
  7433  0726  3EFF               	addlw	-1
  7434  0727  1D03               	skipz
  7435  0728  2F23               	goto	u1965
  7436  0729  0874               	movf	___awdiv@divisor+1,w
  7437  072A  0276               	subwf	___awdiv@dividend+1,w
  7438  072B  1D03               	skipz
  7439  072C  2F2F               	goto	u1975
  7440  072D  0873               	movf	___awdiv@divisor,w
  7441  072E  0275               	subwf	___awdiv@dividend,w
  7442  072F                     u1975:
  7443  072F  1C03               	skipc
  7444  0730  2F32               	goto	u1971
  7445  0731  2F33               	goto	u1970
  7446  0732                     u1971:
  7447  0732  2F3A               	goto	l2171
  7448  0733                     u1970:
  7449  0733                     l2167:
  7450  0733  0873               	movf	___awdiv@divisor,w
  7451  0734  02F5               	subwf	___awdiv@dividend,f
  7452  0735  0874               	movf	___awdiv@divisor+1,w
  7453  0736  1C03               	skipc
  7454  0737  03F6               	decf	___awdiv@dividend+1,f
  7455  0738  02F6               	subwf	___awdiv@dividend+1,f
  7456  0739                     l2169:
  7457  0739  1422               	bsf	___awdiv@quotient,0
  7458  073A                     l2171:
  7459  073A  3001               	movlw	1
  7460  073B                     u1985:
  7461  073B  1003               	clrc
  7462  073C  0CF4               	rrf	___awdiv@divisor+1,f
  7463  073D  0CF3               	rrf	___awdiv@divisor,f
  7464  073E  3EFF               	addlw	-1
  7465  073F  1D03               	skipz
  7466  0740  2F3B               	goto	u1985
  7467  0741                     l2173:
  7468  0741  3001               	movlw	1
  7469  0742  02A0               	subwf	___awdiv@counter,f
  7470  0743  1D03               	btfss	3,2
  7471  0744  2F46               	goto	u1991
  7472  0745  2F47               	goto	u1990
  7473  0746                     u1991:
  7474  0746  2F22               	goto	l2165
  7475  0747                     u1990:
  7476  0747                     l2175:
  7477  0747  0821               	movf	___awdiv@sign,w
  7478  0748  1903               	btfsc	3,2
  7479  0749  2F4B               	goto	u2001
  7480  074A  2F4C               	goto	u2000
  7481  074B                     u2001:
  7482  074B  2F51               	goto	l2179
  7483  074C                     u2000:
  7484  074C                     l2177:
  7485  074C  09A2               	comf	___awdiv@quotient,f
  7486  074D  09A3               	comf	___awdiv@quotient+1,f
  7487  074E  0AA2               	incf	___awdiv@quotient,f
  7488  074F  1903               	skipnz
  7489  0750  0AA3               	incf	___awdiv@quotient+1,f
  7490  0751                     l2179:
  7491  0751  0823               	movf	___awdiv@quotient+1,w
  7492  0752  00F4               	movwf	?___awdiv+1
  7493  0753  0822               	movf	___awdiv@quotient,w
  7494  0754  00F3               	movwf	?___awdiv
  7495  0755                     l612:
  7496  0755  0008               	return
  7497  0756                     __end_of___awdiv:
  7498                           
  7499                           	psect	text29
  7500  09A7                     __ptext29:	
  7501 ;; *************** function _isr *****************
  7502 ;; Defined at:
  7503 ;;		line 85 in file "MAINMASTER.c"
  7504 ;; Parameters:    Size  Location     Type
  7505 ;;		None
  7506 ;; Auto vars:     Size  Location     Type
  7507 ;;		None
  7508 ;; Return value:  Size  Location     Type
  7509 ;;                  1    wreg      void 
  7510 ;; Registers used:
  7511 ;;		wreg, status,2, status,0
  7512 ;; Tracked objects:
  7513 ;;		On entry : 0/0
  7514 ;;		On exit  : 0/0
  7515 ;;		Unchanged: 0/0
  7516 ;; Data sizes:     COMMON   BANK0   BANK1   BANK3   BANK2
  7517 ;;      Params:         0       0       0       0       0
  7518 ;;      Locals:         0       0       0       0       0
  7519 ;;      Temps:          3       0       0       0       0
  7520 ;;      Totals:         3       0       0       0       0
  7521 ;;Total ram usage:        3 bytes
  7522 ;; Hardware stack levels used:    1
  7523 ;; This function calls:
  7524 ;;		Nothing
  7525 ;; This function is called by:
  7526 ;;		Interrupt level 1
  7527 ;; This function uses a non-reentrant model
  7528 ;;
  7529                           
  7530                           
  7531                           ;psect for function _isr
  7532  09A7                     _isr:
  7533  09A7                     i1l2865:
  7534                           
  7535                           ;MAINMASTER.c: 89:     if (RCIF) {
  7536  09A7  1283               	bcf	3,5	;RP0=0, select bank0
  7537  09A8  1303               	bcf	3,6	;RP1=0, select bank0
  7538  09A9  1E8C               	btfss	12,5	;volatile
  7539  09AA  29AC               	goto	u328_21
  7540  09AB  29AD               	goto	u328_20
  7541  09AC                     u328_21:
  7542  09AC  29B6               	goto	i1l2871
  7543  09AD                     u328_20:
  7544  09AD                     i1l2867:
  7545                           
  7546                           ;MAINMASTER.c: 90:         Entrada = RCREG;
  7547  09AD  081A               	movf	26,w	;volatile
  7548  09AE  00F0               	movwf	??_isr
  7549  09AF  0870               	movf	??_isr,w
  7550  09B0  1683               	bsf	3,5	;RP0=1, select bank1
  7551  09B1  1303               	bcf	3,6	;RP1=0, select bank1
  7552  09B2  00AC               	movwf	_Entrada^(0+128)
  7553  09B3                     i1l2869:
  7554                           
  7555                           ;MAINMASTER.c: 91:         RCREG = 0;
  7556  09B3  1283               	bcf	3,5	;RP0=0, select bank0
  7557  09B4  1303               	bcf	3,6	;RP1=0, select bank0
  7558  09B5  019A               	clrf	26	;volatile
  7559  09B6                     i1l2871:
  7560                           
  7561                           ;MAINMASTER.c: 96:     if (PIR1bits.TMR1IF) {
  7562  09B6  1C0C               	btfss	12,0	;volatile
  7563  09B7  29B9               	goto	u329_21
  7564  09B8  29BA               	goto	u329_20
  7565  09B9                     u329_21:
  7566  09B9  2A03               	goto	i1l155
  7567  09BA                     u329_20:
  7568  09BA                     i1l2873:
  7569                           
  7570                           ;MAINMASTER.c: 97:         contador_timer1++;
  7571  09BA  3001               	movlw	1
  7572  09BB  00F0               	movwf	??_isr
  7573  09BC  0870               	movf	??_isr,w
  7574  09BD  1683               	bsf	3,5	;RP0=1, select bank1
  7575  09BE  1303               	bcf	3,6	;RP1=0, select bank1
  7576  09BF  07A7               	addwf	_contador_timer1^(0+128),f
  7577  09C0                     i1l2875:
  7578                           
  7579                           ;MAINMASTER.c: 99:         if (contador_timer1 >= 5) {
  7580  09C0  3005               	movlw	5
  7581  09C1  0227               	subwf	_contador_timer1^(0+128),w
  7582  09C2  1C03               	skipc
  7583  09C3  29C5               	goto	u330_21
  7584  09C4  29C6               	goto	u330_20
  7585  09C5                     u330_21:
  7586  09C5  29FC               	goto	i1l2901
  7587  09C6                     u330_20:
  7588  09C6                     i1l2877:
  7589                           
  7590                           ;MAINMASTER.c: 101:             contador_serial++;
  7591  09C6  3001               	movlw	1
  7592  09C7  00F0               	movwf	??_isr
  7593  09C8  0870               	movf	??_isr,w
  7594  09C9  07FA               	addwf	_contador_serial,f
  7595                           
  7596                           ;MAINMASTER.c: 102:             contador_lcd++;
  7597  09CA  3001               	movlw	1
  7598  09CB  00F0               	movwf	??_isr
  7599  09CC  0870               	movf	??_isr,w
  7600  09CD  1283               	bcf	3,5	;RP0=0, select bank0
  7601  09CE  1303               	bcf	3,6	;RP1=0, select bank0
  7602  09CF  07E6               	addwf	_contador_lcd,f
  7603                           
  7604                           ;MAINMASTER.c: 103:             contador_info++;
  7605  09D0  3001               	movlw	1
  7606  09D1  00F0               	movwf	??_isr
  7607  09D2  0870               	movf	??_isr,w
  7608  09D3  1683               	bsf	3,5	;RP0=1, select bank1
  7609  09D4  1303               	bcf	3,6	;RP1=0, select bank1
  7610  09D5  07A9               	addwf	_contador_info^(0+128),f
  7611  09D6                     i1l2879:
  7612                           
  7613                           ;MAINMASTER.c: 104:             RB1 = RB1 ^ 1;
  7614  09D6  3002               	movlw	2
  7615  09D7  1283               	bcf	3,5	;RP0=0, select bank0
  7616  09D8  1303               	bcf	3,6	;RP1=0, select bank0
  7617  09D9  0686               	xorwf	6,f
  7618  09DA                     i1l2881:
  7619                           
  7620                           ;MAINMASTER.c: 106:             if (contador_lcd >= 2) {
  7621  09DA  3002               	movlw	2
  7622  09DB  0266               	subwf	_contador_lcd,w
  7623  09DC  1C03               	skipc
  7624  09DD  29DF               	goto	u331_21
  7625  09DE  29E0               	goto	u331_20
  7626  09DF                     u331_21:
  7627  09DF  29E3               	goto	i1l2887
  7628  09E0                     u331_20:
  7629  09E0                     i1l2883:
  7630                           
  7631                           ;MAINMASTER.c: 107:                 bandera_lcd1 = 1;
  7632  09E0  01E4               	clrf	_bandera_lcd1
  7633  09E1  0AE4               	incf	_bandera_lcd1,f
  7634  09E2                     i1l2885:
  7635                           
  7636                           ;MAINMASTER.c: 109:                 contador_lcd = 0;
  7637  09E2  01E6               	clrf	_contador_lcd
  7638  09E3                     i1l2887:
  7639                           
  7640                           ;MAINMASTER.c: 111:             if (contador_serial >= 10) {
  7641  09E3  300A               	movlw	10
  7642  09E4  027A               	subwf	_contador_serial,w
  7643  09E5  1C03               	skipc
  7644  09E6  29E8               	goto	u332_21
  7645  09E7  29E9               	goto	u332_20
  7646  09E8                     u332_21:
  7647  09E8  29EC               	goto	i1l2893
  7648  09E9                     u332_20:
  7649  09E9                     i1l2889:
  7650                           
  7651                           ;MAINMASTER.c: 112:                 bandera_serial = 1;
  7652  09E9  01E3               	clrf	_bandera_serial
  7653  09EA  0AE3               	incf	_bandera_serial,f
  7654  09EB                     i1l2891:
  7655                           
  7656                           ;MAINMASTER.c: 113:                 contador_serial = 0;
  7657  09EB  01FA               	clrf	_contador_serial
  7658  09EC                     i1l2893:
  7659                           
  7660                           ;MAINMASTER.c: 117:             bandera_info++;
  7661  09EC  3001               	movlw	1
  7662  09ED  00F0               	movwf	??_isr
  7663  09EE  0870               	movf	??_isr,w
  7664  09EF  1683               	bsf	3,5	;RP0=1, select bank1
  7665  09F0  1303               	bcf	3,6	;RP1=0, select bank1
  7666  09F1  07A8               	addwf	_bandera_info^(0+128),f
  7667  09F2                     i1l2895:
  7668                           
  7669                           ;MAINMASTER.c: 119:             if (contador_info > 2) {
  7670  09F2  3003               	movlw	3
  7671  09F3  0229               	subwf	_contador_info^(0+128),w
  7672  09F4  1C03               	skipc
  7673  09F5  29F7               	goto	u333_21
  7674  09F6  29F8               	goto	u333_20
  7675  09F7                     u333_21:
  7676  09F7  29FB               	goto	i1l154
  7677  09F8                     u333_20:
  7678  09F8                     i1l2897:
  7679                           
  7680                           ;MAINMASTER.c: 120:                 bandera_info = 1;
  7681  09F8  01A8               	clrf	_bandera_info^(0+128)
  7682  09F9  0AA8               	incf	_bandera_info^(0+128),f
  7683  09FA                     i1l2899:
  7684                           
  7685                           ;MAINMASTER.c: 121:                 contador_info = 0;
  7686  09FA  01A9               	clrf	_contador_info^(0+128)
  7687  09FB                     i1l154:	
  7688                           ;MAINMASTER.c: 122:             }
  7689                           
  7690                           
  7691                           ;MAINMASTER.c: 124:             contador_timer1 = 0;
  7692  09FB  01A7               	clrf	_contador_timer1^(0+128)
  7693  09FC                     i1l2901:
  7694                           
  7695                           ;MAINMASTER.c: 127:         TMR1H = 0x3B;
  7696  09FC  303B               	movlw	59
  7697  09FD  1283               	bcf	3,5	;RP0=0, select bank0
  7698  09FE  1303               	bcf	3,6	;RP1=0, select bank0
  7699  09FF  008F               	movwf	15	;volatile
  7700  0A00                     i1l2903:
  7701                           
  7702                           ;MAINMASTER.c: 128:         TMR1L = 0xE0;
  7703  0A00  30E0               	movlw	224
  7704  0A01  008E               	movwf	14	;volatile
  7705  0A02                     i1l2905:
  7706                           
  7707                           ;MAINMASTER.c: 129:         PIR1bits.TMR1IF = 0;
  7708  0A02  100C               	bcf	12,0	;volatile
  7709  0A03                     i1l155:
  7710  0A03  0872               	movf	??_isr+2,w
  7711  0A04  008A               	movwf	10
  7712  0A05  0E71               	swapf	??_isr+1,w
  7713  0A06  0083               	movwf	3
  7714  0A07  0EFE               	swapf	btemp,f
  7715  0A08  0E7E               	swapf	btemp,w
  7716  0A09  0009               	retfie
  7717  0A0A                     __end_of_isr:
  7718  007E                     btemp	set	126	;btemp
  7719  007E                     wtemp0	set	126
  7720                           
  7721                           	psect	intentry
  7722  0004                     __pintentry:	
  7723                           ;incstack = 0
  7724                           ; Regs used in _isr: [wreg+status,2+status,0]
  7725                           
  7726  0004                     interrupt_function:
  7727  007E                     saved_w	set	btemp
  7728  0004  00FE               	movwf	btemp
  7729  0005  0E03               	swapf	3,w
  7730  0006  00F1               	movwf	??_isr+1
  7731  0007  080A               	movf	10,w
  7732  0008  00F2               	movwf	??_isr+2
  7733  0009  120A  158A  29A7   	ljmp	_isr
  7734                           
  7735                           	psect	config
  7736                           
  7737                           ;Config register CONFIG1 @ 0x2007
  7738                           ;	Oscillator Selection bits
  7739                           ;	FOSC = INTRC_NOCLKOUT, INTOSCIO oscillator: I/O function on RA6/OSC2/CLKOUT pin, I/O f
      +                          unction on RA7/OSC1/CLKIN
  7740                           ;	Watchdog Timer Enable bit
  7741                           ;	WDTE = OFF, WDT disabled and can be enabled by SWDTEN bit of the WDTCON register
  7742                           ;	Power-up Timer Enable bit
  7743                           ;	PWRTE = OFF, PWRT disabled
  7744                           ;	RE3/MCLR pin function select bit
  7745                           ;	MCLRE = OFF, RE3/MCLR pin function is digital input, MCLR internally tied to VDD
  7746                           ;	Code Protection bit
  7747                           ;	CP = OFF, Program memory code protection is disabled
  7748                           ;	Data Code Protection bit
  7749                           ;	CPD = OFF, Data memory code protection is disabled
  7750                           ;	Brown Out Reset Selection bits
  7751                           ;	BOREN = OFF, BOR disabled
  7752                           ;	Internal External Switchover bit
  7753                           ;	IESO = OFF, Internal/External Switchover mode is disabled
  7754                           ;	Fail-Safe Clock Monitor Enabled bit
  7755                           ;	FCMEN = OFF, Fail-Safe Clock Monitor is disabled
  7756                           ;	Low Voltage Programming Enable bit
  7757                           ;	LVP = OFF, RB3 pin has digital I/O, HV on MCLR must be used for programming
  7758                           ;	In-Circuit Debugger Mode bit
  7759                           ;	DEBUG = 0x1, unprogrammed default
  7760  2007                     	org	8199
  7761  2007  20D4               	dw	8404
  7762                           
  7763                           ;Config register CONFIG2 @ 0x2008
  7764                           ;	Brown-out Reset Selection bit
  7765                           ;	BOR4V = BOR40V, Brown-out Reset set to 4.0V
  7766                           ;	Flash Program Memory Self Write Enable bits
  7767                           ;	WRT = OFF, Write protection off
  7768  2008                     	org	8200
  7769  2008  3FFF               	dw	16383
  7770                           
  7771                           	psect	maintext_split_1
  7772  0A0A                     u3950:
  7773  0A0A                     l3515:
  7774                           
  7775                           ;MAINMASTER.c: 341:             enviar_letra('(');
  7776  0A0A  3028               	movlw	40
  7777  0A0B  160A  118A  23E8  120A  158A  	fcall	_enviar_letra
  7778  0A10                     l3517:
  7779                           
  7780                           ;MAINMASTER.c: 342:             enviar_letra(int_string(BTD_CENTENA(temperatura1)));
  7781  0A10  1283               	bcf	3,5	;RP0=0, select bank0
  7782  0A11  1303               	bcf	3,6	;RP1=0, select bank0
  7783  0A12  086E               	movf	_temperatura1,w
  7784  0A13  1683               	bsf	3,5	;RP0=1, select bank1
  7785  0A14  1303               	bcf	3,6	;RP1=0, select bank1
  7786  0A15  00AD               	movwf	??_main^(0+128)
  7787  0A16  01AE               	clrf	(??_main^(0+128)+1)
  7788  0A17  082D               	movf	??_main^(0+128),w
  7789  0A18  1283               	bcf	3,5	;RP0=0, select bank0
  7790  0A19  1303               	bcf	3,6	;RP1=0, select bank0
  7791  0A1A  00A4               	movwf	BTD_CENTENA@valor
  7792  0A1B  1683               	bsf	3,5	;RP0=1, select bank1
  7793  0A1C  1303               	bcf	3,6	;RP1=0, select bank1
  7794  0A1D  082E               	movf	(??_main+1)^(0+128),w
  7795  0A1E  1283               	bcf	3,5	;RP0=0, select bank0
  7796  0A1F  1303               	bcf	3,6	;RP1=0, select bank0
  7797  0A20  00A5               	movwf	BTD_CENTENA@valor+1
  7798  0A21  160A  118A  23FF  120A  158A  	fcall	_BTD_CENTENA
  7799  0A26  1283               	bcf	3,5	;RP0=0, select bank0
  7800  0A27  1303               	bcf	3,6	;RP1=0, select bank0
  7801  0A28  0825               	movf	?_BTD_CENTENA+1,w
  7802  0A29  00AB               	movwf	int_string@valor+1
  7803  0A2A  0824               	movf	?_BTD_CENTENA,w
  7804  0A2B  00AA               	movwf	int_string@valor
  7805  0A2C  120A  158A  214C  120A  158A  	fcall	_int_string
  7806  0A31  1283               	bcf	3,5	;RP0=0, select bank0
  7807  0A32  1303               	bcf	3,6	;RP1=0, select bank0
  7808  0A33  082A               	movf	?_int_string,w
  7809  0A34  160A  118A  23E8  120A  158A  	fcall	_enviar_letra
  7810  0A39                     l3519:
  7811                           
  7812                           ;MAINMASTER.c: 343:             enviar_letra(int_string(BTD_DECIMAL(temperatura1)));
  7813  0A39  1283               	bcf	3,5	;RP0=0, select bank0
  7814  0A3A  1303               	bcf	3,6	;RP1=0, select bank0
  7815  0A3B  086E               	movf	_temperatura1,w
  7816  0A3C  1683               	bsf	3,5	;RP0=1, select bank1
  7817  0A3D  1303               	bcf	3,6	;RP1=0, select bank1
  7818  0A3E  00AD               	movwf	??_main^(0+128)
  7819  0A3F  01AE               	clrf	(??_main^(0+128)+1)
  7820  0A40  082D               	movf	??_main^(0+128),w
  7821  0A41  1283               	bcf	3,5	;RP0=0, select bank0
  7822  0A42  1303               	bcf	3,6	;RP1=0, select bank0
  7823  0A43  00A4               	movwf	BTD_DECIMAL@valor1
  7824  0A44  1683               	bsf	3,5	;RP0=1, select bank1
  7825  0A45  1303               	bcf	3,6	;RP1=0, select bank1
  7826  0A46  082E               	movf	(??_main+1)^(0+128),w
  7827  0A47  1283               	bcf	3,5	;RP0=0, select bank0
  7828  0A48  1303               	bcf	3,6	;RP1=0, select bank0
  7829  0A49  00A5               	movwf	BTD_DECIMAL@valor1+1
  7830  0A4A  160A  118A  24E6  120A  158A  	fcall	_BTD_DECIMAL
  7831  0A4F  1283               	bcf	3,5	;RP0=0, select bank0
  7832  0A50  1303               	bcf	3,6	;RP1=0, select bank0
  7833  0A51  0825               	movf	?_BTD_DECIMAL+1,w
  7834  0A52  00AB               	movwf	int_string@valor+1
  7835  0A53  0824               	movf	?_BTD_DECIMAL,w
  7836  0A54  00AA               	movwf	int_string@valor
  7837  0A55  120A  158A  214C  120A  158A  	fcall	_int_string
  7838  0A5A  1283               	bcf	3,5	;RP0=0, select bank0
  7839  0A5B  1303               	bcf	3,6	;RP1=0, select bank0
  7840  0A5C  082A               	movf	?_int_string,w
  7841  0A5D  160A  118A  23E8  120A  158A  	fcall	_enviar_letra
  7842  0A62                     l3521:
  7843                           
  7844                           ;MAINMASTER.c: 344:             enviar_letra(int_string(BTD_UNIDAD(temperatura1)));
  7845  0A62  1283               	bcf	3,5	;RP0=0, select bank0
  7846  0A63  1303               	bcf	3,6	;RP1=0, select bank0
  7847  0A64  086E               	movf	_temperatura1,w
  7848  0A65  1683               	bsf	3,5	;RP0=1, select bank1
  7849  0A66  1303               	bcf	3,6	;RP1=0, select bank1
  7850  0A67  00AD               	movwf	??_main^(0+128)
  7851  0A68  01AE               	clrf	(??_main^(0+128)+1)
  7852  0A69  082D               	movf	??_main^(0+128),w
  7853  0A6A  1283               	bcf	3,5	;RP0=0, select bank0
  7854  0A6B  1303               	bcf	3,6	;RP1=0, select bank0
  7855  0A6C  00A2               	movwf	BTD_UNIDAD@valor2
  7856  0A6D  1683               	bsf	3,5	;RP0=1, select bank1
  7857  0A6E  1303               	bcf	3,6	;RP1=0, select bank1
  7858  0A6F  082E               	movf	(??_main+1)^(0+128),w
  7859  0A70  1283               	bcf	3,5	;RP0=0, select bank0
  7860  0A71  1303               	bcf	3,6	;RP1=0, select bank0
  7861  0A72  00A3               	movwf	BTD_UNIDAD@valor2+1
  7862  0A73  160A  118A  2513  120A  158A  	fcall	_BTD_UNIDAD
  7863  0A78  1283               	bcf	3,5	;RP0=0, select bank0
  7864  0A79  1303               	bcf	3,6	;RP1=0, select bank0
  7865  0A7A  0823               	movf	?_BTD_UNIDAD+1,w
  7866  0A7B  00AB               	movwf	int_string@valor+1
  7867  0A7C  0822               	movf	?_BTD_UNIDAD,w
  7868  0A7D  00AA               	movwf	int_string@valor
  7869  0A7E  120A  158A  214C  120A  158A  	fcall	_int_string
  7870  0A83  1283               	bcf	3,5	;RP0=0, select bank0
  7871  0A84  1303               	bcf	3,6	;RP1=0, select bank0
  7872  0A85  082A               	movf	?_int_string,w
  7873  0A86  160A  118A  23E8  120A  158A  	fcall	_enviar_letra
  7874  0A8B                     l3523:
  7875                           
  7876                           ;MAINMASTER.c: 345:             enviar_letra(',');
  7877  0A8B  302C               	movlw	44
  7878  0A8C  160A  118A  23E8  120A  158A  	fcall	_enviar_letra
  7879                           
  7880                           ;MAINMASTER.c: 346:             enviar_letra(int_string(BTD_CENTENA(temperatura2)));
  7881  0A91  1283               	bcf	3,5	;RP0=0, select bank0
  7882  0A92  1303               	bcf	3,6	;RP1=0, select bank0
  7883  0A93  086D               	movf	_temperatura2,w
  7884  0A94  1683               	bsf	3,5	;RP0=1, select bank1
  7885  0A95  1303               	bcf	3,6	;RP1=0, select bank1
  7886  0A96  00AD               	movwf	??_main^(0+128)
  7887  0A97  01AE               	clrf	(??_main^(0+128)+1)
  7888  0A98  082D               	movf	??_main^(0+128),w
  7889  0A99  1283               	bcf	3,5	;RP0=0, select bank0
  7890  0A9A  1303               	bcf	3,6	;RP1=0, select bank0
  7891  0A9B  00A4               	movwf	BTD_CENTENA@valor
  7892  0A9C  1683               	bsf	3,5	;RP0=1, select bank1
  7893  0A9D  1303               	bcf	3,6	;RP1=0, select bank1
  7894  0A9E  082E               	movf	(??_main+1)^(0+128),w
  7895  0A9F  1283               	bcf	3,5	;RP0=0, select bank0
  7896  0AA0  1303               	bcf	3,6	;RP1=0, select bank0
  7897  0AA1  00A5               	movwf	BTD_CENTENA@valor+1
  7898  0AA2  160A  118A  23FF  120A  158A  	fcall	_BTD_CENTENA
  7899  0AA7  1283               	bcf	3,5	;RP0=0, select bank0
  7900  0AA8  1303               	bcf	3,6	;RP1=0, select bank0
  7901  0AA9  0825               	movf	?_BTD_CENTENA+1,w
  7902  0AAA  00AB               	movwf	int_string@valor+1
  7903  0AAB  0824               	movf	?_BTD_CENTENA,w
  7904  0AAC  00AA               	movwf	int_string@valor
  7905  0AAD  120A  158A  214C  120A  158A  	fcall	_int_string
  7906  0AB2  1283               	bcf	3,5	;RP0=0, select bank0
  7907  0AB3  1303               	bcf	3,6	;RP1=0, select bank0
  7908  0AB4  082A               	movf	?_int_string,w
  7909  0AB5  160A  118A  23E8  120A  158A  	fcall	_enviar_letra
  7910                           
  7911                           ;MAINMASTER.c: 347:             enviar_letra(int_string(BTD_DECIMAL(temperatura2)));
  7912  0ABA  1283               	bcf	3,5	;RP0=0, select bank0
  7913  0ABB  1303               	bcf	3,6	;RP1=0, select bank0
  7914  0ABC  086D               	movf	_temperatura2,w
  7915  0ABD  1683               	bsf	3,5	;RP0=1, select bank1
  7916  0ABE  1303               	bcf	3,6	;RP1=0, select bank1
  7917  0ABF  00AD               	movwf	??_main^(0+128)
  7918  0AC0  01AE               	clrf	(??_main^(0+128)+1)
  7919  0AC1  082D               	movf	??_main^(0+128),w
  7920  0AC2  1283               	bcf	3,5	;RP0=0, select bank0
  7921  0AC3  1303               	bcf	3,6	;RP1=0, select bank0
  7922  0AC4  00A4               	movwf	BTD_DECIMAL@valor1
  7923  0AC5  1683               	bsf	3,5	;RP0=1, select bank1
  7924  0AC6  1303               	bcf	3,6	;RP1=0, select bank1
  7925  0AC7  082E               	movf	(??_main+1)^(0+128),w
  7926  0AC8  1283               	bcf	3,5	;RP0=0, select bank0
  7927  0AC9  1303               	bcf	3,6	;RP1=0, select bank0
  7928  0ACA  00A5               	movwf	BTD_DECIMAL@valor1+1
  7929  0ACB  160A  118A  24E6  120A  158A  	fcall	_BTD_DECIMAL
  7930  0AD0  1283               	bcf	3,5	;RP0=0, select bank0
  7931  0AD1  1303               	bcf	3,6	;RP1=0, select bank0
  7932  0AD2  0825               	movf	?_BTD_DECIMAL+1,w
  7933  0AD3  00AB               	movwf	int_string@valor+1
  7934  0AD4  0824               	movf	?_BTD_DECIMAL,w
  7935  0AD5  00AA               	movwf	int_string@valor
  7936  0AD6  120A  158A  214C  120A  158A  	fcall	_int_string
  7937  0ADB  1283               	bcf	3,5	;RP0=0, select bank0
  7938  0ADC  1303               	bcf	3,6	;RP1=0, select bank0
  7939  0ADD  082A               	movf	?_int_string,w
  7940  0ADE  160A  118A  23E8  120A  158A  	fcall	_enviar_letra
  7941                           
  7942                           ;MAINMASTER.c: 348:             enviar_letra(int_string(BTD_UNIDAD(temperatura2)));
  7943  0AE3  1283               	bcf	3,5	;RP0=0, select bank0
  7944  0AE4  1303               	bcf	3,6	;RP1=0, select bank0
  7945  0AE5  086D               	movf	_temperatura2,w
  7946  0AE6  1683               	bsf	3,5	;RP0=1, select bank1
  7947  0AE7  1303               	bcf	3,6	;RP1=0, select bank1
  7948  0AE8  00AD               	movwf	??_main^(0+128)
  7949  0AE9  01AE               	clrf	(??_main^(0+128)+1)
  7950  0AEA  082D               	movf	??_main^(0+128),w
  7951  0AEB  1283               	bcf	3,5	;RP0=0, select bank0
  7952  0AEC  1303               	bcf	3,6	;RP1=0, select bank0
  7953  0AED  00A2               	movwf	BTD_UNIDAD@valor2
  7954  0AEE  1683               	bsf	3,5	;RP0=1, select bank1
  7955  0AEF  1303               	bcf	3,6	;RP1=0, select bank1
  7956  0AF0  082E               	movf	(??_main+1)^(0+128),w
  7957  0AF1  1283               	bcf	3,5	;RP0=0, select bank0
  7958  0AF2  1303               	bcf	3,6	;RP1=0, select bank0
  7959  0AF3  00A3               	movwf	BTD_UNIDAD@valor2+1
  7960  0AF4  160A  118A  2513  120A  158A  	fcall	_BTD_UNIDAD
  7961  0AF9  1283               	bcf	3,5	;RP0=0, select bank0
  7962  0AFA  1303               	bcf	3,6	;RP1=0, select bank0
  7963  0AFB  0823               	movf	?_BTD_UNIDAD+1,w
  7964  0AFC  00AB               	movwf	int_string@valor+1
  7965  0AFD  0822               	movf	?_BTD_UNIDAD,w
  7966  0AFE  00AA               	movwf	int_string@valor
  7967  0AFF  120A  158A  214C  120A  158A  	fcall	_int_string
  7968  0B04  1283               	bcf	3,5	;RP0=0, select bank0
  7969  0B05  1303               	bcf	3,6	;RP1=0, select bank0
  7970  0B06  082A               	movf	?_int_string,w
  7971  0B07  160A  118A  23E8  120A  158A  	fcall	_enviar_letra
  7972  0B0C                     l3525:
  7973                           
  7974                           ;MAINMASTER.c: 349:             enviar_letra(',');
  7975  0B0C  302C               	movlw	44
  7976  0B0D  160A  118A  23E8  120A  158A  	fcall	_enviar_letra
  7977  0B12                     l3527:
  7978                           
  7979                           ;MAINMASTER.c: 350:             enviar_letra(int_string(BTD_CENTENA(luz1)));
  7980  0B12  1283               	bcf	3,5	;RP0=0, select bank0
  7981  0B13  1303               	bcf	3,6	;RP1=0, select bank0
  7982  0B14  086C               	movf	_luz1,w
  7983  0B15  1683               	bsf	3,5	;RP0=1, select bank1
  7984  0B16  1303               	bcf	3,6	;RP1=0, select bank1
  7985  0B17  00AD               	movwf	??_main^(0+128)
  7986  0B18  01AE               	clrf	(??_main^(0+128)+1)
  7987  0B19  082D               	movf	??_main^(0+128),w
  7988  0B1A  1283               	bcf	3,5	;RP0=0, select bank0
  7989  0B1B  1303               	bcf	3,6	;RP1=0, select bank0
  7990  0B1C  00A4               	movwf	BTD_CENTENA@valor
  7991  0B1D  1683               	bsf	3,5	;RP0=1, select bank1
  7992  0B1E  1303               	bcf	3,6	;RP1=0, select bank1
  7993  0B1F  082E               	movf	(??_main+1)^(0+128),w
  7994  0B20  1283               	bcf	3,5	;RP0=0, select bank0
  7995  0B21  1303               	bcf	3,6	;RP1=0, select bank0
  7996  0B22  00A5               	movwf	BTD_CENTENA@valor+1
  7997  0B23  160A  118A  23FF  120A  158A  	fcall	_BTD_CENTENA
  7998  0B28  1283               	bcf	3,5	;RP0=0, select bank0
  7999  0B29  1303               	bcf	3,6	;RP1=0, select bank0
  8000  0B2A  0825               	movf	?_BTD_CENTENA+1,w
  8001  0B2B  00AB               	movwf	int_string@valor+1
  8002  0B2C  0824               	movf	?_BTD_CENTENA,w
  8003  0B2D  00AA               	movwf	int_string@valor
  8004  0B2E  120A  158A  214C  120A  158A  	fcall	_int_string
  8005  0B33  1283               	bcf	3,5	;RP0=0, select bank0
  8006  0B34  1303               	bcf	3,6	;RP1=0, select bank0
  8007  0B35  082A               	movf	?_int_string,w
  8008  0B36  160A  118A  23E8  120A  158A  	fcall	_enviar_letra
  8009  0B3B                     l3529:
  8010                           
  8011                           ;MAINMASTER.c: 351:             enviar_letra(int_string(BTD_DECIMAL(luz1)));
  8012  0B3B  1283               	bcf	3,5	;RP0=0, select bank0
  8013  0B3C  1303               	bcf	3,6	;RP1=0, select bank0
  8014  0B3D  086C               	movf	_luz1,w
  8015  0B3E  1683               	bsf	3,5	;RP0=1, select bank1
  8016  0B3F  1303               	bcf	3,6	;RP1=0, select bank1
  8017  0B40  00AD               	movwf	??_main^(0+128)
  8018  0B41  01AE               	clrf	(??_main^(0+128)+1)
  8019  0B42  082D               	movf	??_main^(0+128),w
  8020  0B43  1283               	bcf	3,5	;RP0=0, select bank0
  8021  0B44  1303               	bcf	3,6	;RP1=0, select bank0
  8022  0B45  00A4               	movwf	BTD_DECIMAL@valor1
  8023  0B46  1683               	bsf	3,5	;RP0=1, select bank1
  8024  0B47  1303               	bcf	3,6	;RP1=0, select bank1
  8025  0B48  082E               	movf	(??_main+1)^(0+128),w
  8026  0B49  1283               	bcf	3,5	;RP0=0, select bank0
  8027  0B4A  1303               	bcf	3,6	;RP1=0, select bank0
  8028  0B4B  00A5               	movwf	BTD_DECIMAL@valor1+1
  8029  0B4C  160A  118A  24E6  120A  158A  	fcall	_BTD_DECIMAL
  8030  0B51  1283               	bcf	3,5	;RP0=0, select bank0
  8031  0B52  1303               	bcf	3,6	;RP1=0, select bank0
  8032  0B53  0825               	movf	?_BTD_DECIMAL+1,w
  8033  0B54  00AB               	movwf	int_string@valor+1
  8034  0B55  0824               	movf	?_BTD_DECIMAL,w
  8035  0B56  00AA               	movwf	int_string@valor
  8036  0B57  120A  158A  214C  120A  158A  	fcall	_int_string
  8037  0B5C  1283               	bcf	3,5	;RP0=0, select bank0
  8038  0B5D  1303               	bcf	3,6	;RP1=0, select bank0
  8039  0B5E  082A               	movf	?_int_string,w
  8040  0B5F  160A  118A  23E8  120A  158A  	fcall	_enviar_letra
  8041  0B64                     l3531:
  8042                           
  8043                           ;MAINMASTER.c: 352:             enviar_letra(int_string(BTD_UNIDAD(luz1)));
  8044  0B64  1283               	bcf	3,5	;RP0=0, select bank0
  8045  0B65  1303               	bcf	3,6	;RP1=0, select bank0
  8046  0B66  086C               	movf	_luz1,w
  8047  0B67  1683               	bsf	3,5	;RP0=1, select bank1
  8048  0B68  1303               	bcf	3,6	;RP1=0, select bank1
  8049  0B69  00AD               	movwf	??_main^(0+128)
  8050  0B6A  01AE               	clrf	(??_main^(0+128)+1)
  8051  0B6B  082D               	movf	??_main^(0+128),w
  8052  0B6C  1283               	bcf	3,5	;RP0=0, select bank0
  8053  0B6D  1303               	bcf	3,6	;RP1=0, select bank0
  8054  0B6E  00A2               	movwf	BTD_UNIDAD@valor2
  8055  0B6F  1683               	bsf	3,5	;RP0=1, select bank1
  8056  0B70  1303               	bcf	3,6	;RP1=0, select bank1
  8057  0B71  082E               	movf	(??_main+1)^(0+128),w
  8058  0B72  1283               	bcf	3,5	;RP0=0, select bank0
  8059  0B73  1303               	bcf	3,6	;RP1=0, select bank0
  8060  0B74  00A3               	movwf	BTD_UNIDAD@valor2+1
  8061  0B75  160A  118A  2513  120A  158A  	fcall	_BTD_UNIDAD
  8062  0B7A  1283               	bcf	3,5	;RP0=0, select bank0
  8063  0B7B  1303               	bcf	3,6	;RP1=0, select bank0
  8064  0B7C  0823               	movf	?_BTD_UNIDAD+1,w
  8065  0B7D  00AB               	movwf	int_string@valor+1
  8066  0B7E  0822               	movf	?_BTD_UNIDAD,w
  8067  0B7F  00AA               	movwf	int_string@valor
  8068  0B80  120A  158A  214C  120A  158A  	fcall	_int_string
  8069  0B85  1283               	bcf	3,5	;RP0=0, select bank0
  8070  0B86  1303               	bcf	3,6	;RP1=0, select bank0
  8071  0B87  082A               	movf	?_int_string,w
  8072  0B88  160A  118A  23E8  120A  158A  	fcall	_enviar_letra
  8073                           
  8074                           ;MAINMASTER.c: 353:             enviar_letra(',');
  8075  0B8D  302C               	movlw	44
  8076  0B8E  160A  118A  23E8  120A  158A  	fcall	_enviar_letra
  8077  0B93                     l3533:
  8078                           
  8079                           ;MAINMASTER.c: 354:             enviar_letra(int_string(BTD_CENTENA(luz2)));
  8080  0B93  1283               	bcf	3,5	;RP0=0, select bank0
  8081  0B94  1303               	bcf	3,6	;RP1=0, select bank0
  8082  0B95  086B               	movf	_luz2,w
  8083  0B96  1683               	bsf	3,5	;RP0=1, select bank1
  8084  0B97  1303               	bcf	3,6	;RP1=0, select bank1
  8085  0B98  00AD               	movwf	??_main^(0+128)
  8086  0B99  01AE               	clrf	(??_main^(0+128)+1)
  8087  0B9A  082D               	movf	??_main^(0+128),w
  8088  0B9B  1283               	bcf	3,5	;RP0=0, select bank0
  8089  0B9C  1303               	bcf	3,6	;RP1=0, select bank0
  8090  0B9D  00A4               	movwf	BTD_CENTENA@valor
  8091  0B9E  1683               	bsf	3,5	;RP0=1, select bank1
  8092  0B9F  1303               	bcf	3,6	;RP1=0, select bank1
  8093  0BA0  082E               	movf	(??_main+1)^(0+128),w
  8094  0BA1  1283               	bcf	3,5	;RP0=0, select bank0
  8095  0BA2  1303               	bcf	3,6	;RP1=0, select bank0
  8096  0BA3  00A5               	movwf	BTD_CENTENA@valor+1
  8097  0BA4  160A  118A  23FF  120A  158A  	fcall	_BTD_CENTENA
  8098  0BA9  1283               	bcf	3,5	;RP0=0, select bank0
  8099  0BAA  1303               	bcf	3,6	;RP1=0, select bank0
  8100  0BAB  0825               	movf	?_BTD_CENTENA+1,w
  8101  0BAC  00AB               	movwf	int_string@valor+1
  8102  0BAD  0824               	movf	?_BTD_CENTENA,w
  8103  0BAE  00AA               	movwf	int_string@valor
  8104  0BAF  120A  158A  214C  120A  158A  	fcall	_int_string
  8105  0BB4  1283               	bcf	3,5	;RP0=0, select bank0
  8106  0BB5  1303               	bcf	3,6	;RP1=0, select bank0
  8107  0BB6  082A               	movf	?_int_string,w
  8108  0BB7  160A  118A  23E8  120A  158A  	fcall	_enviar_letra
  8109  0BBC                     l3535:
  8110                           
  8111                           ;MAINMASTER.c: 355:             enviar_letra(int_string(BTD_DECIMAL(luz2)));
  8112  0BBC  1283               	bcf	3,5	;RP0=0, select bank0
  8113  0BBD  1303               	bcf	3,6	;RP1=0, select bank0
  8114  0BBE  086B               	movf	_luz2,w
  8115  0BBF  1683               	bsf	3,5	;RP0=1, select bank1
  8116  0BC0  1303               	bcf	3,6	;RP1=0, select bank1
  8117  0BC1  00AD               	movwf	??_main^(0+128)
  8118  0BC2  01AE               	clrf	(??_main^(0+128)+1)
  8119  0BC3  082D               	movf	??_main^(0+128),w
  8120  0BC4  1283               	bcf	3,5	;RP0=0, select bank0
  8121  0BC5  1303               	bcf	3,6	;RP1=0, select bank0
  8122  0BC6  00A4               	movwf	BTD_DECIMAL@valor1
  8123  0BC7  1683               	bsf	3,5	;RP0=1, select bank1
  8124  0BC8  1303               	bcf	3,6	;RP1=0, select bank1
  8125  0BC9  082E               	movf	(??_main+1)^(0+128),w
  8126  0BCA  1283               	bcf	3,5	;RP0=0, select bank0
  8127  0BCB  1303               	bcf	3,6	;RP1=0, select bank0
  8128  0BCC  00A5               	movwf	BTD_DECIMAL@valor1+1
  8129  0BCD  160A  118A  24E6  120A  158A  	fcall	_BTD_DECIMAL
  8130  0BD2  1283               	bcf	3,5	;RP0=0, select bank0
  8131  0BD3  1303               	bcf	3,6	;RP1=0, select bank0
  8132  0BD4  0825               	movf	?_BTD_DECIMAL+1,w
  8133  0BD5  00AB               	movwf	int_string@valor+1
  8134  0BD6  0824               	movf	?_BTD_DECIMAL,w
  8135  0BD7  00AA               	movwf	int_string@valor
  8136  0BD8  120A  158A  214C  120A  158A  	fcall	_int_string
  8137  0BDD  1283               	bcf	3,5	;RP0=0, select bank0
  8138  0BDE  1303               	bcf	3,6	;RP1=0, select bank0
  8139  0BDF  082A               	movf	?_int_string,w
  8140  0BE0  160A  118A  23E8  120A  158A  	fcall	_enviar_letra
  8141  0BE5                     l3537:
  8142                           
  8143                           ;MAINMASTER.c: 356:             enviar_letra(int_string(BTD_UNIDAD(luz2)));
  8144  0BE5  1283               	bcf	3,5	;RP0=0, select bank0
  8145  0BE6  1303               	bcf	3,6	;RP1=0, select bank0
  8146  0BE7  086B               	movf	_luz2,w
  8147  0BE8  1683               	bsf	3,5	;RP0=1, select bank1
  8148  0BE9  1303               	bcf	3,6	;RP1=0, select bank1
  8149  0BEA  00AD               	movwf	??_main^(0+128)
  8150  0BEB  01AE               	clrf	(??_main^(0+128)+1)
  8151  0BEC  082D               	movf	??_main^(0+128),w
  8152  0BED  1283               	bcf	3,5	;RP0=0, select bank0
  8153  0BEE  1303               	bcf	3,6	;RP1=0, select bank0
  8154  0BEF  00A2               	movwf	BTD_UNIDAD@valor2
  8155  0BF0  1683               	bsf	3,5	;RP0=1, select bank1
  8156  0BF1  1303               	bcf	3,6	;RP1=0, select bank1
  8157  0BF2  082E               	movf	(??_main+1)^(0+128),w
  8158  0BF3  1283               	bcf	3,5	;RP0=0, select bank0
  8159  0BF4  1303               	bcf	3,6	;RP1=0, select bank0
  8160  0BF5  00A3               	movwf	BTD_UNIDAD@valor2+1
  8161  0BF6  160A  118A  2513  120A  158A  	fcall	_BTD_UNIDAD
  8162  0BFB  1283               	bcf	3,5	;RP0=0, select bank0
  8163  0BFC  1303               	bcf	3,6	;RP1=0, select bank0
  8164  0BFD  0823               	movf	?_BTD_UNIDAD+1,w
  8165  0BFE  00AB               	movwf	int_string@valor+1
  8166  0BFF  0822               	movf	?_BTD_UNIDAD,w
  8167  0C00  00AA               	movwf	int_string@valor
  8168  0C01  120A  158A  214C  120A  158A  	fcall	_int_string
  8169  0C06  1283               	bcf	3,5	;RP0=0, select bank0
  8170  0C07  1303               	bcf	3,6	;RP1=0, select bank0
  8171  0C08  082A               	movf	?_int_string,w
  8172  0C09  160A  118A  23E8  120A  158A  	fcall	_enviar_letra
  8173  0C0E                     l3539:
  8174                           
  8175                           ;MAINMASTER.c: 357:             enviar_letra(')');
  8176  0C0E  3029               	movlw	41
  8177  0C0F  160A  118A  23E8  120A  158A  	fcall	_enviar_letra
  8178                           
  8179                           ;MAINMASTER.c: 358:             print("\n\r");
  8180  0C14  3019               	movlw	(low ((STR_9-__stringbase)| (0+32768)))& (0+255)
  8181  0C15  160A  118A  244D  120A  158A  	fcall	_print
  8182  0C1A                     l3541:
  8183                           
  8184                           ;MAINMASTER.c: 361:             bandera_serial = 0;
  8185  0C1A  1283               	bcf	3,5	;RP0=0, select bank0
  8186  0C1B  1303               	bcf	3,6	;RP1=0, select bank0
  8187  0C1C  01E3               	clrf	_bandera_serial
  8188  0C1D                     l3543:
  8189                           
  8190                           ;MAINMASTER.c: 364:         if ((temperatura1 < temp_nom || temperatura2 < temp_nom)) {
  8191  0C1D  301C               	movlw	28
  8192  0C1E  026E               	subwf	_temperatura1,w
  8193  0C1F  1C03               	skipc
  8194  0C20  2C22               	goto	u3961
  8195  0C21  2C23               	goto	u3960
  8196  0C22                     u3961:
  8197  0C22  2C29               	goto	l3547
  8198  0C23                     u3960:
  8199  0C23                     l3545:
  8200  0C23  301C               	movlw	28
  8201  0C24  026D               	subwf	_temperatura2,w
  8202  0C25  1803               	skipnc
  8203  0C26  2C28               	goto	u3971
  8204  0C27  2C29               	goto	u3970
  8205  0C28                     u3971:
  8206  0C28  2C63               	goto	l3557
  8207  0C29                     u3970:
  8208  0C29                     l3547:
  8209                           
  8210                           ;MAINMASTER.c: 369:             I2C_Master_Start();
  8211  0C29  160A  118A  23CC  120A  158A  	fcall	_I2C_Master_Start
  8212                           
  8213                           ;MAINMASTER.c: 370:             I2C_Master_Write(0x60);
  8214  0C2E  3060               	movlw	96
  8215  0C2F  00F3               	movwf	I2C_Master_Write@d
  8216  0C30  3000               	movlw	0
  8217  0C31  00F4               	movwf	I2C_Master_Write@d+1
  8218  0C32  160A  118A  23DE  120A  158A  	fcall	_I2C_Master_Write
  8219                           
  8220                           ;MAINMASTER.c: 371:             I2C_Master_Write(0x01);
  8221  0C37  3001               	movlw	1
  8222  0C38  00F3               	movwf	I2C_Master_Write@d
  8223  0C39  3000               	movlw	0
  8224  0C3A  00F4               	movwf	I2C_Master_Write@d+1
  8225  0C3B  160A  118A  23DE  120A  158A  	fcall	_I2C_Master_Write
  8226                           
  8227                           ;MAINMASTER.c: 372:             I2C_Master_Stop();
  8228  0C40  160A  118A  23D5  120A  158A  	fcall	_I2C_Master_Stop
  8229  0C45                     l3549:
  8230                           
  8231                           ;MAINMASTER.c: 373:             _delay((unsigned long)((200)*(8000000/4000.0)));
  8232  0C45  3003               	movlw	3
  8233  0C46  1683               	bsf	3,5	;RP0=1, select bank1
  8234  0C47  1303               	bcf	3,6	;RP1=0, select bank1
  8235  0C48  00AF               	movwf	(??_main^(0+128)+2)
  8236  0C49  3008               	movlw	8
  8237  0C4A  00AE               	movwf	(??_main^(0+128)+1)
  8238  0C4B  3076               	movlw	118
  8239  0C4C  00AD               	movwf	??_main^(0+128)
  8240  0C4D                     u4087:
  8241  0C4D  0BAD               	decfsz	??_main^(0+128),f
  8242  0C4E  2C4D               	goto	u4087
  8243  0C4F  0BAE               	decfsz	(??_main^(0+128)+1),f
  8244  0C50  2C4D               	goto	u4087
  8245  0C51  0BAF               	decfsz	(??_main^(0+128)+2),f
  8246  0C52  2C4D               	goto	u4087
  8247  0C53  0000               	nop
  8248  0C54                     l3551:
  8249                           
  8250                           ;MAINMASTER.c: 380:             bandera_ventilador = '1';
  8251  0C54  3031               	movlw	49
  8252  0C55  1683               	bsf	3,5	;RP0=1, select bank1
  8253  0C56  1303               	bcf	3,6	;RP1=0, select bank1
  8254  0C57  00AD               	movwf	??_main^(0+128)
  8255  0C58  082D               	movf	??_main^(0+128),w
  8256  0C59  00F9               	movwf	_bandera_ventilador
  8257  0C5A                     l3553:
  8258                           
  8259                           ;MAINMASTER.c: 381:             bandera_resistencia = '1';
  8260  0C5A  3031               	movlw	49
  8261  0C5B  00AD               	movwf	??_main^(0+128)
  8262  0C5C  082D               	movf	??_main^(0+128),w
  8263  0C5D  00F8               	movwf	_bandera_resistencia
  8264  0C5E                     l3555:
  8265                           
  8266                           ;MAINMASTER.c: 382:             bandera_servo = '1';
  8267  0C5E  3031               	movlw	49
  8268  0C5F  00AD               	movwf	??_main^(0+128)
  8269  0C60  082D               	movf	??_main^(0+128),w
  8270  0C61  00AB               	movwf	_bandera_servo^(0+128)
  8271                           
  8272                           ;MAINMASTER.c: 385:         } else if ((temperatura1 > temp_nom && temperatura2 > temp_n
      +                          om)) {
  8273  0C62  2C68               	goto	u3981
  8274  0C63                     l3557:
  8275  0C63  301D               	movlw	29
  8276  0C64  026E               	subwf	_temperatura1,w
  8277  0C65  1C03               	skipc
  8278  0C66  2C68               	goto	u3981
  8279  0C67  2C6B               	goto	u3980
  8280  0C68                     u3981:
  8281  0C68  120A  118A  2848   	goto	l3421
  8282  0C6B                     u3980:
  8283  0C6B                     l3559:
  8284  0C6B  301D               	movlw	29
  8285  0C6C  026D               	subwf	_temperatura2,w
  8286  0C6D  1C03               	skipc
  8287  0C6E  2C70               	goto	u3991
  8288  0C6F  2C71               	goto	u3990
  8289  0C70                     u3991:
  8290  0C70  2C68               	goto	u3981
  8291  0C71                     u3990:
  8292  0C71                     l3561:
  8293                           
  8294                           ;MAINMASTER.c: 390:             I2C_Master_Start();
  8295  0C71  160A  118A  23CC  120A  158A  	fcall	_I2C_Master_Start
  8296                           
  8297                           ;MAINMASTER.c: 391:             I2C_Master_Write(0x60);
  8298  0C76  3060               	movlw	96
  8299  0C77  00F3               	movwf	I2C_Master_Write@d
  8300  0C78  3000               	movlw	0
  8301  0C79  00F4               	movwf	I2C_Master_Write@d+1
  8302  0C7A  160A  118A  23DE  120A  158A  	fcall	_I2C_Master_Write
  8303                           
  8304                           ;MAINMASTER.c: 392:             I2C_Master_Write(0x02);
  8305  0C7F  3002               	movlw	2
  8306  0C80  00F3               	movwf	I2C_Master_Write@d
  8307  0C81  3000               	movlw	0
  8308  0C82  00F4               	movwf	I2C_Master_Write@d+1
  8309  0C83  160A  118A  23DE  120A  158A  	fcall	_I2C_Master_Write
  8310                           
  8311                           ;MAINMASTER.c: 393:             I2C_Master_Stop();
  8312  0C88  160A  118A  23D5  120A  158A  	fcall	_I2C_Master_Stop
  8313  0C8D                     l3563:
  8314                           
  8315                           ;MAINMASTER.c: 397:             bandera_ventilador = '0';
  8316  0C8D  3030               	movlw	48
  8317  0C8E  1683               	bsf	3,5	;RP0=1, select bank1
  8318  0C8F  1303               	bcf	3,6	;RP1=0, select bank1
  8319  0C90  00AD               	movwf	??_main^(0+128)
  8320  0C91  082D               	movf	??_main^(0+128),w
  8321  0C92  00F9               	movwf	_bandera_ventilador
  8322  0C93                     l3565:
  8323                           
  8324                           ;MAINMASTER.c: 398:             bandera_resistencia = '0';
  8325  0C93  3030               	movlw	48
  8326  0C94  00AD               	movwf	??_main^(0+128)
  8327  0C95  082D               	movf	??_main^(0+128),w
  8328  0C96  00F8               	movwf	_bandera_resistencia
  8329  0C97                     l3567:
  8330                           
  8331                           ;MAINMASTER.c: 399:             bandera_servo = '0';
  8332  0C97  3030               	movlw	48
  8333  0C98  00AD               	movwf	??_main^(0+128)
  8334  0C99  082D               	movf	??_main^(0+128),w
  8335  0C9A  00AB               	movwf	_bandera_servo^(0+128)
  8336  0C9B  2C68               	goto	u3981
  8337  0C9C  120A  118A  280C   	ljmp	start
  8338  0C9F                     __end_of_main:

Data Sizes:
    Strings     35
    Constant    0
    Data        1
    BSS         28
    Persistent  0
    Stack       0

Auto Spaces:
    Space          Size  Autos    Used
    COMMON           14      8      11
    BANK0            80     67      79
    BANK1            80      5      19
    BANK3            96      0       0
    BANK2            96      0       0

Pointer List with Targets:

    Lcd_Write_String@a	PTR unsigned char  size(1) Largest target is 14
		 -> STR_8(CODE[2]), STR_7(CODE[3]), STR_6(CODE[3]), STR_5(CODE[2]), 
		 -> STR_4(CODE[14]), STR_3(CODE[3]), STR_2(CODE[2]), STR_1(CODE[10]), 

    print@palabra	PTR unsigned char  size(1) Largest target is 3
		 -> STR_9(CODE[3]), 


Critical Paths under _main in COMMON

    _main->_Lcd_Set_Cursor
    _setup->_I2C_Master_Init
    _I2C_Master_Init->___lldiv
    ___fltol->___xxtofl
    ___flmul->__Umul8_16
    ___flmul->___xxtofl
    ___fladd->___xxtofl
    _Lcd_Write_String->_Lcd_Write_Char
    _Lcd_Write_Char->_Lcd_Port
    _Lcd_Set_Cursor->_Lcd_Cmd
    _Lcd_Init->_Lcd_Cmd
    _Lcd_Clear->_Lcd_Cmd
    _Lcd_Cmd->_Lcd_Port
    _BTD_UNIDAD->___awmod
    _BTD_DECIMAL->___awdiv
    _BTD_DECIMAL->___awmod
    _BTD_CENTENA->___awdiv

Critical Paths under _isr in COMMON

    None.

Critical Paths under _main in BANK0

    _main->___fltol
    _setup->_I2C_Master_Init
    _I2C_Master_Init->___lldiv
    _int_string->_BTD_DECIMAL
    ___fltol->___fladd
    ___flmul->___xxtofl
    ___fladd->___flmul
    _BTD_UNIDAD->___awmod
    _BTD_DECIMAL->___awdiv
    _BTD_CENTENA->___awdiv

Critical Paths under _isr in BANK0

    None.

Critical Paths under _main in BANK1

    None.

Critical Paths under _isr in BANK1

    None.

Critical Paths under _main in BANK3

    None.

Critical Paths under _isr in BANK3

    None.

Critical Paths under _main in BANK2

    None.

Critical Paths under _isr in BANK2

    None.

Call Graph Tables:

 ---------------------------------------------------------------------------------
 (Depth) Function   	        Calls       Base Space   Used Autos Params    Refs
 ---------------------------------------------------------------------------------
 (0) _main                                                 5     5      0   19912
                                              0 BANK1      5     5      0
                        _BTD_CENTENA
                        _BTD_DECIMAL
                         _BTD_UNIDAD
                    _I2C_Master_Read
                   _I2C_Master_Start
                    _I2C_Master_Stop
                   _I2C_Master_Write
                          _Lcd_Clear
                            _Lcd_Cmd
                           _Lcd_Init
                     _Lcd_Set_Cursor
                     _Lcd_Write_Char
                   _Lcd_Write_String
                            ___fladd
                            ___flmul
                            ___fltol
                           ___xxtofl
                       _enviar_letra
                         _int_string
                              _print
                              _setup
 ---------------------------------------------------------------------------------
 (1) _setup                                                0     0      0     542
                    _I2C_Master_Init
 ---------------------------------------------------------------------------------
 (2) _I2C_Master_Init                                      8     4      4     542
                                              4 COMMON     4     4      0
                                             13 BANK0      4     0      4
                            ___lldiv
 ---------------------------------------------------------------------------------
 (3) ___lldiv                                             14     6      8     421
                                              3 COMMON     1     1      0
                                              0 BANK0     13     5      8
 ---------------------------------------------------------------------------------
 (2) _print                                                2     2      0      78
                                              3 COMMON     2     2      0
 ---------------------------------------------------------------------------------
 (1) _int_string                                           2     0      2    1846
                                             10 BANK0      2     0      2
                        _BTD_CENTENA (ARG)
                        _BTD_DECIMAL (ARG)
                         _BTD_UNIDAD (ARG)
 ---------------------------------------------------------------------------------
 (1) _enviar_letra                                         1     1      0      22
                                              3 COMMON     1     1      0
 ---------------------------------------------------------------------------------
 (1) ___xxtofl                                            14    10      4     836
                                              3 COMMON     4     0      4
                                              0 BANK0     10    10      0
 ---------------------------------------------------------------------------------
 (1) ___fltol                                             11     7      4     533
                                             56 BANK0     11     7      4
                            ___fladd (ARG)
                            ___flmul (ARG)
                           ___xxtofl (ARG)
 ---------------------------------------------------------------------------------
 (1) ___flmul                                             26    18      8    2873
                                             10 BANK0     26    18      8
                          __Umul8_16
                           ___xxtofl (ARG)
 ---------------------------------------------------------------------------------
 (2) __Umul8_16                                            9     7      2     799
                                              3 COMMON     4     2      2
                                              0 BANK0      5     5      0
 ---------------------------------------------------------------------------------
 (1) ___fladd                                             20    12      8    2718
                                             36 BANK0     20    12      8
                            ___flmul (ARG)
                           ___xxtofl (ARG)
 ---------------------------------------------------------------------------------
 (1) _Lcd_Write_String                                     3     3      0     731
                                              0 BANK0      3     3      0
                     _Lcd_Write_Char
 ---------------------------------------------------------------------------------
 (2) _Lcd_Write_Char                                       3     3      0     313
                                              4 COMMON     3     3      0
                           _Lcd_Port
 ---------------------------------------------------------------------------------
 (1) _Lcd_Set_Cursor                                       6     5      1     831
                                              7 COMMON     1     0      1
                                              0 BANK0      3     3      0
                            _Lcd_Cmd
 ---------------------------------------------------------------------------------
 (1) _Lcd_Init                                             2     2      0     527
                                              0 BANK0      2     2      0
                            _Lcd_Cmd
                           _Lcd_Port
 ---------------------------------------------------------------------------------
 (1) _Lcd_Clear                                            0     0      0     279
                            _Lcd_Cmd
 ---------------------------------------------------------------------------------
 (2) _Lcd_Cmd                                              3     3      0     279
                                              4 COMMON     3     3      0
                           _Lcd_Port
 ---------------------------------------------------------------------------------
 (3) _Lcd_Port                                             1     1      0     248
                                              3 COMMON     1     1      0
 ---------------------------------------------------------------------------------
 (1) _I2C_Master_Write                                     2     0      2    1471
                                              3 COMMON     2     0      2
                    _I2C_Master_Wait
 ---------------------------------------------------------------------------------
 (1) _I2C_Master_Stop                                      0     0      0       0
                    _I2C_Master_Wait
 ---------------------------------------------------------------------------------
 (1) _I2C_Master_Start                                     0     0      0       0
                    _I2C_Master_Wait
 ---------------------------------------------------------------------------------
 (1) _I2C_Master_Read                                      6     4      2     456
                                              3 COMMON     4     2      2
                                              0 BANK0      2     2      0
                    _I2C_Master_Wait
 ---------------------------------------------------------------------------------
 (2) _I2C_Master_Wait                                      0     0      0       0
 ---------------------------------------------------------------------------------
 (1) _BTD_UNIDAD                                           6     4      2    1792
                                              2 BANK0      6     4      2
                            ___awmod
 ---------------------------------------------------------------------------------
 (1) _BTD_DECIMAL                                          6     4      2    2396
                                              4 BANK0      6     4      2
                            ___awdiv
                            ___awmod
 ---------------------------------------------------------------------------------
 (2) ___awmod                                              7     3      4     973
                                              3 COMMON     5     1      4
                                              0 BANK0      2     2      0
 ---------------------------------------------------------------------------------
 (1) _BTD_CENTENA                                          4     2      2    1389
                                              4 BANK0      4     2      2
                            ___awdiv
 ---------------------------------------------------------------------------------
 (2) ___awdiv                                              9     5      4     604
                                              3 COMMON     5     1      4
                                              0 BANK0      4     4      0
 ---------------------------------------------------------------------------------
 Estimated maximum stack depth 3
 ---------------------------------------------------------------------------------
 (Depth) Function   	        Calls       Base Space   Used Autos Params    Refs
 ---------------------------------------------------------------------------------
 (4) _isr                                                  3     3      0       0
                                              0 COMMON     3     3      0
 ---------------------------------------------------------------------------------
 Estimated maximum stack depth 4
 ---------------------------------------------------------------------------------

 Call Graph Graphs:

 _main (ROOT)
   _BTD_CENTENA
     ___awdiv
   _BTD_DECIMAL
     ___awdiv
     ___awmod
   _BTD_UNIDAD
     ___awmod
   _I2C_Master_Read
     _I2C_Master_Wait
   _I2C_Master_Start
     _I2C_Master_Wait
   _I2C_Master_Stop
     _I2C_Master_Wait
   _I2C_Master_Write
     _I2C_Master_Wait
   _Lcd_Clear
     _Lcd_Cmd
       _Lcd_Port
   _Lcd_Cmd
     _Lcd_Port
   _Lcd_Init
     _Lcd_Cmd
       _Lcd_Port
     _Lcd_Port
   _Lcd_Set_Cursor
     _Lcd_Cmd
       _Lcd_Port
   _Lcd_Write_Char
     _Lcd_Port
   _Lcd_Write_String
     _Lcd_Write_Char
       _Lcd_Port
   ___fladd
     ___flmul (ARG)
       __Umul8_16
       ___xxtofl (ARG)
     ___xxtofl (ARG)
   ___flmul
     __Umul8_16
     ___xxtofl (ARG)
   ___fltol
     ___fladd (ARG)
       ___flmul (ARG)
         __Umul8_16
         ___xxtofl (ARG)
       ___xxtofl (ARG)
     ___flmul (ARG)
       __Umul8_16
       ___xxtofl (ARG)
     ___xxtofl (ARG)
   ___xxtofl
   _enviar_letra
   _int_string
     _BTD_CENTENA (ARG)
       ___awdiv
     _BTD_DECIMAL (ARG)
       ___awdiv
       ___awmod
     _BTD_UNIDAD (ARG)
       ___awmod
   _print
   _setup
     _I2C_Master_Init
       ___lldiv

 _isr (ROOT)

 Address spaces:
Name               Size   Autos  Total    Cost      Usage
BANK3               60      0       0       9        0.0%
BITBANK3            60      0       0       8        0.0%
SFR3                 0      0       0       4        0.0%
BITSFR3              0      0       0       4        0.0%
BANK2               60      0       0      11        0.0%
BITBANK2            60      0       0      10        0.0%
SFR2                 0      0       0       5        0.0%
BITSFR2              0      0       0       5        0.0%
BANK1               50      5      13       7       23.8%
BITBANK1            50      0       0       6        0.0%
SFR1                 0      0       0       2        0.0%
BITSFR1              0      0       0       2        0.0%
BANK0               50     43      4F       5       98.8%
BITBANK0            50      0       0       4        0.0%
SFR0                 0      0       0       1        0.0%
BITSFR0              0      0       0       1        0.0%
COMMON               E      8       B       1       78.6%
BITCOMMON            E      0       0       0        0.0%
CODE                 0      0       0       0        0.0%
DATA                 0      0      6D      12        0.0%
ABS                  0      0      6D       3        0.0%
NULL                 0      0       0       0        0.0%
STACK                0      0       0       2        0.0%
EEDATA             100      0       0       0        0.0%


Microchip Technology PIC Macro Assembler V2.31 build 20201012212115 
Symbol Table                                                                                   Mon Sep 06 18:40:06 2021

             print@palabra 0074                          pc 0002               ___awdiv@sign 0021  
                       fsr 0004        __Umul8_16@word_mpld 0022                        l212 13FE  
                      l221 13DD                        l302 153F                        l230 1577  
                      l206 084B                        l215 13D4                        l224 13E7  
                      l209 13F2                        l330 07D1                        l331 07D7  
                      l228 156E                        l340 07F4                        l332 07D8  
                      l260 13E9                        l244 144F                        l341 07FA  
                      l333 07DE                        l334 07DF                        l343 07FB  
                      l335 07E5                        l327 07C7                        l263 13F1  
                      l336 07E6                        l328 07CA                        l248 146D  
                      l337 07EC                        l329 07D0                        l361 144C  
                      l177 089A                        l338 07ED                        l346 1432  
                      l339 07F3                        l355 1493                        l612 0755  
                      l268 09A6                        l349 0811                        l358 08F0  
                      l367 14BC                        l296 1418                        l625 094B  
                      l299 1512                        l652 06D7                        l645 06EC  
                      l655 06EC                        l495 07BD                        l752 15DB  
                      l905 063A                        l906 0646                        l756 1682  
                      l860 0FF3                        l773 174D                        l765 17FF  
                      l758 1659                        l854 0F6B                        l783 1793  
                      l848 0FFF                        l777 1771                        l794 17F3  
                      l786 17D1                        l795 17FF                        l867 14D3  
                      l892 05D9                        l869 14E5                        l894 0670  
                      l898 061E                        _GIE 005F                        _RB1 0031  
                      _RD0 0040                        _RD1 0041                        _RE0 0048  
                      _RD2 0042                        _RD3 0043                        _RE1 0049  
                      _RD4 0044                        _RD5 0045                        _RD6 0046  
                      _RD7 0047              _contador_info 00A9                        _isr 09A7  
                      fsr0 0004                        indf 0000               ___awmod@sign 0021  
             ___flmul@aexp 003C               ___flmul@bexp 003D               ___flmul@sign 0037  
             ___flmul@temp 0042               ___flmul@prod 003E               ___fltol@exp1 0062  
                     l2141 06F0                       l2221 14C0                       l2151 0704  
                     l2143 06F4                       l3111 07C3                       l2231 14E1  
                     l2223 14C2                       l2161 071A                       l2153 0708  
                     l2145 06F9                       l3201 0908                       l3121 07EA  
                     l3113 07CE                       l2225 14C9                       l2401 0970  
                     l2171 073A                       l2163 071E                       l2155 070A  
                     l2147 06FB                       l2139 06ED                       l3211 0920  
                     l3203 090E                       l3123 07F1                       l3115 07D5  
                     l2227 14CD                       l3131 076B                       l2173 0741  
                     l2165 0722                       l2157 0710                       l2149 06FF  
                     l3221 0942                       l3213 092A                       l3205 0911  
                     l3301 1540                       l3125 07F8                       l3117 07DC  
                     l3109 07BF                       l2501 159C                       l2229 14DC  
                     l2413 097A                       l2421 097F                       l3141 07A5  
                     l3133 0778                       l2167 0733                       l2159 0713  
                     l2175 0747                       l3223 0947                       l3215 0930  
                     l3207 0918                       l3311 1561                       l3303 1545  
                     l3119 07E3                       l3151 141A                       l2511 15B2  
                     l2503 159D                       l2407 0975                       l3143 07A6  
                     l3135 077C                       l3127 0756                       l3231 085A  
                     l2177 074C                       l2169 0739                       l3217 0937  
                     l3209 091C                       l3313 1565                       l3305 154D  
                     l3153 141D                       l3321 0805                       l3161 1434  
                     l2601 16BE                       l2521 15C3                       l2513 15B3  
                     l2505 159F                       l3401 0668                       l2441 13EF  
                     l3145 07AF                       l3137 0785                       l3129 0768  
                     l3241 0863                       l3233 085B                       l2179 0751  
                     l3219 093D                       l3315 156B                       l3307 1556  
                     l3155 1423                       l3331 1488                       l3323 1471  
                     l3171 1449                       l3163 1438                       l2611 16E7  
                     l2603 16C2                       l2531 15E1                       l2523 15C8  
                     l2515 15B9                       l2507 15A7                       l2451 0671  
                     l2371 0957                       l2443 144E                       l3139 0797  
                     l3147 07B5                       l3251 0870                       l3243 0867  
                     l3235 085C                       l3227 084C                       l3411 0038  
                     l3317 1571                       l3309 155B                       l3157 1426  
                     l3333 148D                       l3325 1476                       l3165 143B  
                     l3341 14AF                       l2621 1755                       l2613 1725  
                     l2605 16C3                       l2541 15F5                       l2533 15E5  
                     l2525 15D0                       l2517 15BD                       l2509 15AC  
                     l2701 0CD2                       l2461 069D                       l2453 067E  
                     l2365 0952                       l2357 094C                       l2445 1455  
                     l3181 0849                       l3173 0812                       l3261 087F  
                     l3253 0873                       l3245 0869                       l3237 0861  
                     l3229 0852                       l3501 03F8                       l3421 0048  
                     l3413 0039                       l3405 002F                       l3343 13FF  
                     l3191 08F4                       l3351 150E                       l3159 142F  
                     l3327 147B                       l3167 1441                       l3335 1497  
                     l2631 1770                       l2623 175A                       l2615 172B  
                     l2607 16CC                       l2551 1609                       l2543 15F9  
                     l2535 15E9                       l2527 15D1                       l2519 15BE  
                     l2711 0CE7                       l2703 0CD8                       l2463 06A5  
                     l2439 13E9                       l2383 0961                       l2359 094D  
                     l2447 145D                       l3183 084A                       l3175 0816  
                     l3271 0884                       l3263 0880                       l3255 0876  
                     l3247 086A                       l3239 0862                       l3511 041A  
                     l3503 03FE                       l3431 01C1                       l3423 00A6  
                     l3415 003A                       l3407 0034                       l3345 1414  
                     l3193 08F8                       l3185 13F2                       l3281 08A7  
                     l3329 1482                       l3169 1444                       l3337 149A  
                     l2633 1775                       l2641 1781                       l2617 1730  
                     l2609 16D1                       l2561 161D                       l2553 160D  
                     l2545 15FD                       l2537 15ED                       l2529 15D3  
                     l2801 0FB3                       l2721 0D03                       l2713 0CEF  
                     l2705 0CDC                       l2481 06CC                       l2473 06B3  
                     l2465 06A7                       l2457 0687                       l3361 05B8  
                     l2377 095C                       l2449 1461                       l3177 0819  
                     l3273 0887                       l3265 0881                       l3257 0879  
                     l3249 086D                       l3521 0A62                       l3513 05AA  
                     l3505 0407                       l3441 020A                       l3433 01DD  
                     l3425 0102                       l3417 003D                       l3409 0037  
                     l3195 08FD                       l3355 1513                       l3187 13F8  
                     l3291 13D1                       l3283 08B1                       l3339 14A7  
                     l2635 1778                       l2627 1763                       l2619 173F  
                     l2643 1785                       l2571 165D                       l2563 1621  
                     l2555 1611                       l2547 1601                       l2539 15F1  
                     l2491 1585                       l2811 0FE7                       l2803 0FBE  
                     l2731 0D46                       l2715 0CF1                       l2707 0CDD  
                     l2483 06DC                       l2467 06AB                       l2475 06C5  
                     l2459 069C                       l3363 05BD                       l2395 096B  
                     l3179 0848                       l3275 088B                       l3267 0882  
                     l3259 087C                       l3531 0B64                       l3523 0A8B  
                     l3515 0A0A                       l3507 040C                       l3451 0257  
                     l3443 020F                       l3435 01EC                       l3427 015E  
                     l3419 0042                       l3197 08FF                       l3189 08F1  
                     l3349 14E6                       l3357 153B                       l3293 13DE  
                     l3285 08C1                       l2661 17CD                       l2653 1798  
                     l2645 1786                       l2637 177A                       l2629 176C  
                     l2581 1676                       l2573 1666                       l2557 1615  
                     l2549 1605                       l2565 1625                       l2493 1589  
                     l2813 0FEB                       l2805 0FCD                       l2741 0DCF  
                     l2733 0D62                       l2725 0D0C                       l2717 0CF9  
                     l2709 0CE2                       l2485 06E1                       l3381 0607  
                     l3373 05EA                       l3365 05C1                       l2389 0966  
                     l3277 088D                       l3269 0883                       l3541 0C1A  
                     l3533 0B93                       l3525 0B0C                       l3517 0A10  
                     l3509 0414                       l3461 02AB                       l3453 0267  
                     l3445 023A                       l3437 01F1                       l3429 01BA  
                     l3199 0903                       l3295 13E3                       l3287 08C7  
                     l3279 089B                       l2671 17E9                       l2663 17D6  
                     l2655 179D                       l2647 178A                       l2639 177F  
                     l2591 1694                       l2575 1668                       l2583 167A  
                     l2567 1626                       l2559 1619                       l2495 158A  
                     l2487 1578                       l2815 0FEC                       l2807 0FD7  
                     l2751 0E42                       l2743 0DDF                       l2735 0D8E  
                     l2727 0D1C                       l2719 0CFE                       l3391 063E  
                     l3383 0615                       l3375 05EF                       l3367 05D1  
                     l3551 0C54                       l3535 0BBC                       l3527 0B12  
                     l3519 0A39                       l3543 0C1D                       l3471 0303  
                     l3463 02B4                       l3455 026C                       l3447 0249  
                     l3439 01FA                       l3289 13CC                       l3297 13D5  
                     l2673 17ED                       l2665 17DB                       l2657 17AB  
                     l2649 1790                       l2593 16AB                       l2585 1686  
                     l2577 166C                       l2569 163D                       l2497 158F  
                     l2489 157F                       l2817 0FF7                       l2809 0FD9  
                     l2761 0EEF                       l2753 0E5F                       l2745 0DFC  
                     l2737 0DAA                       l2729 0D29                       l2681 0C9F  
                     l3393 0648                       l3385 0625                       l3377 05FC  
                     l3369 05E1                       l3561 0C71                       l3553 0C5A  
                     l3545 0C23                       l3537 0BE5                       l3529 0B3B  
                     l3481 0335                       l3473 0308                       l3465 02C4  
                     l3457 0297                       l3449 024E                       l3299 13DA  
                     l2675 17EF                       l2667 17E3                       l2659 17AF  
                     l2595 16AF                       l2587 168B                       l2579 166D  
                     l2499 1594                       l2771 0F3B                       l2763 0F17  
                     l2755 0E8C                       l2747 0E0C                       l2739 0DC6  
                     l2691 0CB6                       l2683 0CA6                       l3395 065E  
                     l3387 0630                       l3379 0603                       l3563 0C8D  
                     l3555 0C5E                       l3547 0C29                       l3539 0C0E  
                     l3491 0350                       l3475 0311                       l3467 02C9  
                     l3459 02A6                       l3483 0338                       l2677 17FA  
                     l2669 17E8                       l2597 16B3                       l2781 0F50  
                     l2773 0F3C                       l2765 0F20                       l2757 0E9C  
                     l2749 0E29                       l2693 0CBB                       l2685 0CAC  
                     l3397 0663                       l3389 0634                       l3565 0C93  
                     l3549 0C45                       l3557 0C63                       l3493 0355  
                     l3485 033F                       l3477 0321                       l3469 02F4  
                     l2679 17FE                       l2599 16BC                       l2791 0F75  
                     l2783 0F54                       l2775 0F45                       l2767 0F2E  
                     l2759 0EC9                       l2695 0CC3                       l2687 0CB0  
                     l3399 0667                       l3567 0C97                       l3559 0C6B  
                     l3495 035D                       l3487 0344                       l3479 0326  
                     l2793 0F83                       l2785 0F68                       l2769 0F37  
                     l2777 0F4B                       l2697 0CC5                       l2689 0CB1  
                     l3497 0363                       l3489 034F                       l2795 0F87  
                     l2779 0F4F                       l2699 0CCD                       l3499 03F2  
                     l2797 0FA0                       l2789 0F70                       l3597 0986  
                     l2799 0FA6                       ?_isr 0070                       _BMP1 00A6  
                     _BMP2 00A5                       STR_1 1014                       STR_2 1022  
                     STR_3 1021                       STR_4 1006                       STR_5 1022  
                     STR_6 1024                       STR_7 1024                       STR_8 1027  
                     STR_9 101E                       _BRGH 04C2                       u2000 074C  
                     u2001 074B                       u2100 14CD                       u2101 14CC  
                     u2120 14E1                       u2200 146D                       u2121 14E0  
                     u2201 146C                       u2210 067E                       u2115 14D4  
                     u2211 067D                       u3100 0F96                       u3020 0F3B  
                     u2300 06E1                       u2220 0695                       u3021 0F3A  
                     u3005 0F19                       u2301 06E0                       u2310 1589  
                     u3110 0FB3                       u2230 06AB                       u2311 1588  
                     u3111 0FB2                       u3015 0F30                       u2231 06AA  
                     u2400 163D                       u2320 158F                       u3120 0FCD  
                     u3040 0F4F                       u2240 06B2                       u2401 163C  
                     u2321 158E                       u3121 0FCC                       u3105 0F91  
                     u3041 0F4E                       u2241 06B1                       u2225 0690  
                     u2410 1648                       u2330 1594                       u3130 0FEB  
                     u3050 0F54                       u2411 1646                       u2331 1593  
                     u3131 0FEA                       u3115 0FAF                       u3051 0F53  
                     u3035 0F3E                       u2500 16AF                       u2420 1649  
                     u2340 15B2                       u3060 0F68                       u2260 06C4  
                     u2180 13EF                       u2501 16AE                       u2405 1639  
                     u2341 15B1                       u3125 0FC9                       u3061 0F67  
                     u2261 06C3                       u2181 13EE                       u2510 16B3  
                     u2430 165D                       u2350 15BD                       u3070 0F6F  
                     u2270 06CB                       u2190 1455                       u2511 16B2  
                     u2431 165C                       u2351 15BC                       u3071 0F6E  
                     u2271 06CA                       u2255 06B4                       u2191 1454  
                     u4007 01E5                       u2520 16C2                       u2440 166C  
                     u2360 15C3                       u3080 0F75                       u2521 16C1  
                     u2441 166B                       u2361 15C2                       u3081 0F74  
                     u4017 0217                       u2610 1770                       u2370 15C8  
                     u3090 0F87                       u2290 06DC                       u4107 08AD  
                     u2611 176F                       u2371 15C7                       u3091 0F86  
                     u2291 06DB                       u4027 0242                       u3500 07EA  
                     u2700 17BE                       u2620 1775                       u2540 16E7  
                     u2460 1682                       u2380 15E1                       u3501 07E9  
                     u4117 08BD                       u2621 1774                       u2605 1765  
                     u2541 16E6                       u2461 1681                       u2381 15E0  
                     u2285 06CE                       u4037 0274                       u1910 06F4  
                     u3510 07F1                       u2710 17CD                       u2630 177F  
                     u2470 1686                       u2390 15E5                       u1911 06F3  
                     u3511 07F0                       u4127 08CD                       u2711 17CC  
                     u2631 177E                       u2551 16FE                       u2543 16E3  
                     u2535 16C5                       u2471 1685                       u2455 166F  
                     u2391 15E4                       u4047 029F                       u1920 06FF  
                     u3520 07F8                       u2720 17D6                       u2640 1785  
                     u2560 1712                       u2552 16FF                       u2480 168B  
                     u2800 0CDC                       u3600 0829                       u1921 06FE  
                     u3521 07F7                       u4137 142A                       u2721 17D5  
                     u2705 17B9                       u2641 1784                       u2561 1713  
                     u2553 1704                       u2481 168A                       u2801 0CDB  
                     u4057 02D1                       u1930 0710                       u3610 13F8  
                     u3450 07C3                       u2730 17DB                       u2650 178A  
                     u2570 1730                       u2562 1718                       u2554 1705  
                     u2810 0CE2                       u3530 0768                       u1931 070F  
                     u3611 13F7                       u3451 07C2                       u2731 17DA  
                     u2651 1789                       u2571 172F                       u2563 1719  
                     u2555 170A                       u2491 169D                       u2811 0CE1  
                     u3531 0767                       u4067 02FC                       u3700 093D  
                     u3620 13FE                       u3460 07CE                       u2740 17E8  
                     u2660 1790                       u2580 1755                       u2556 170B  
                     u2492 16A4                       u2820 0CE7                       u3701 093C  
                     u3621 13FD                       u3461 07CD                       u2741 17E7  
                     u2661 178F                       u2581 1754                       u2493 16AB  
                     u2901 0DEE                       u2821 0CE6                       u3605 0824  
                     u4077 032E                       u1950 0722                       u3710 0942  
                     u3630 08F8                       u3470 07D5                       u2750 17ED  
                     u2670 1797                       u2590 175A                       u2902 0DF5  
                     u2830 0CFE                       u3550 077C                       u1951 0721  
                     u3711 0941                       u3631 08F7                       u3471 07D4  
                     u2751 17EC                       u2671 1796                       u2591 1759  
                     u2911 0E1B                       u2903 0DFC                       u2831 0CFD  
                     u3551 077B                       u4087 0C4D                       u3640 0903  
                     u3720 1561                       u3480 07DC                       u2760 17FE  
                     u2680 179D                       u2912 0E22                       u2840 0D03  
                     u1945 0714                       u3641 0902                       u3721 1560  
                     u3481 07DB                       u4097 1446                       u2761 17FD  
                     u2681 179C                       u2913 0E29                       u2841 0D02  
                     u3545 076D                       u1970 0733                       u3650 090E  
                     u3730 156B                       u3490 07E3                       u2690 17AF  
                     u2770 0CB0                       u3810 0602                       u3570 0797  
                     u1971 0732                       u3651 090D                       u3731 156A  
                     u3491 07E2                       u2691 17AE                       u2931 0E51  
                     u2851 0D54                       u2771 0CAF                       u3811 0601  
                     u3571 0796                       _PEIE 005E                       u3740 1476  
                     u2932 0E58                       u2852 0D5B                       u2780 0CB6  
                     u3900 0667                       u1965 0723                       u3741 1475  
                     u2941 0E7E                       u2933 0E5F                       u2925 0E2B  
                     u2861 0D70                       u2853 0D62                       u2781 0CB5  
                     u3901 0666                       u3805 05F4                       u3565 077E  
                     u1990 0747                       u3670 0920                       u3750 1488  
                     u2942 0E85                       u2862 0D77                       u2790 0CBB  
                     u3830 0624                       u3590 07B5                       u3910 01C1  
                     u1991 0746                       u1975 072F                       u3671 091F  
                     u3751 1487                       u2951 0EAB                       u2943 0E8C  
                     u2871 0D9C                       u2863 0D7E                       u2791 0CBA  
                     u3831 0623                       u3591 07B4                       u3575 0793  
                     u3911 01C0                       u3680 092A                       u3760 14BC  
                     u2960 0ED5                       u2952 0EB2                       u2872 0DA3  
                     u3920 033F                       u1985 073B                       u3681 0929  
                     u3665 0912                       u3761 14BB                       u2953 0EB9  
                     u2881 0DB8                       u2873 0DAA                       u3825 0616  
                     u3585 07A7                       u3921 033E                       u2882 0DBF  
                     u3850 0634                       u3770 05BD                       u3930 0355  
                     u2971 0EE1                       u2883 0DC6                       u3851 0633  
                     u3771 05BC                       u3931 0354                       u2980 0EFD  
                     u2972 0EE8                       u3860 063A                       u3780 05C1  
                     u3940 040C                       _RCIF 0065                       u3685 0926  
                     u2973 0EEF                       u2965 0ED0                       u3861 0639  
                     u3845 0629                       u3781 05C0                       u3941 040B  
                     u3870 063E                       u3790 05E1                       u3950 0A0A  
                     u3695 0931                       u2991 0F09                       u2895 0DC8  
                     u3871 063D                       u3791 05E0                       u3951 05B2  
                     u2992 0F10                       u3880 0653                       u3960 0C23  
                     u2993 0F17                       u2985 0EF8                       u3961 0C22  
                     u3890 0663                       u3970 0C29                       u3891 0662  
                     u3971 0C28                       u3980 0C6B                       u3885 064E  
                     u3981 0C68                       u3990 0C71                       u3991 0C70  
        enviar_letra@letra 0073                       _TXIF 0064          ?_Lcd_Write_String 0070  
                     _main 002F                       _luz1 006C                       _luz2 006B  
                     btemp 007E                       start 000C         ??_Lcd_Write_String 0077  
          __end_of_Lcd_Cmd 1433                      ??_isr 0070           ?_I2C_Master_Init 002D  
         ?_I2C_Master_Read 0073           ?_I2C_Master_Wait 0070           ?_I2C_Master_Stop 0070  
            ___fltol@sign1 0061            __end_of___fladd 1800                      ?_main 0070  
          __end_of___awdiv 0756                      _BRG16 0C3B            __end_of___awmod 094C  
          __end_of___flmul 1000            __end_of___fltol 06ED                      _ANSEL 0188  
          __end_of___lldiv 07BE            ___awdiv@divisor 0073        __size_of_BTD_UNIDAD 002D  
                    i1l154 09FB                      i1l155 0A03            ___awdiv@counter 0020  
                    _RCREG 001A                      _TMR1H 000F                      _TMR1L 000E  
                    _SPBRG 0099                      _PORTB 0006                      _PORTD 0008  
  __size_of_Lcd_Set_Cursor 0026                      _TRISB 0086                      _TRISD 0088  
                    _SSPIE 0463                      _SSPIF 0063                      _TXREG 0019  
         BTD_UNIDAD@valor2 0022            _contador_serial 007A            _contador_timer1 00A7  
                    _setup 084C                      _print 144D                      pclath 000A  
                    status 0003                      wtemp0 007E              ?_enviar_letra 0070  
         __end_of_Lcd_Init 08F1           __end_of_Lcd_Port 07FC            __initialization 000F  
             __end_of_main 0C9F                     ??_main 00AD       __size_of_BTD_DECIMAL 002D  
       __size_of_Lcd_Clear 000D       __size_of_BTD_CENTENA 001A          ?_I2C_Master_Start 0070  
        ?_I2C_Master_Write 0073         ??_I2C_Master_Start 0073         ??_I2C_Master_Write 0075  
         ___awdiv@dividend 0075                     ?_setup 0070                     ?_print 0070  
                   _ANSELH 0189                     i1l2901 09FC                     i1l2903 0A00  
                   i1l2905 0A02                     i1l2871 09B6                     i1l2881 09DA  
                   i1l2873 09BA                     i1l2865 09A7                     i1l2891 09EB  
                   i1l2883 09E0                     i1l2875 09C0                     i1l2867 09AD  
                   i1l2893 09EC                     i1l2885 09E2                     i1l2877 09C6  
                   i1l2869 09B3                     i1l2895 09F2                     i1l2887 09E3  
                   i1l2879 09D6                     i1l2897 09F8                     i1l2889 09E9  
                   i1l2899 09FA                     u330_20 09C6                     u330_21 09C5  
                   u331_20 09E0                     u331_21 09DF                     u332_20 09E9  
                   u332_21 09E8                     u333_20 09F8                     u333_21 09F7  
                   u328_20 09AD                     u328_21 09AC                     u329_20 09BA  
                   u329_21 09B9               _bandera_lcd1 0064                  ??_Lcd_Cmd 0074  
           ??_enviar_letra 0073                     _SPBRGH 009A               _bandera_info 00A8  
  __size_of_Lcd_Write_Char 001A                     _SSPADD 0093                     _TRISC3 043B  
                   _TRISE0 0448                     _TRISC4 043C                     _TRISE1 0449  
                   _TRISE2 044A          BTD_UNIDAD@salida2 0026                     _SSPCON 0014  
                   _SSPBUF 0013           __end_of___xxtofl 0671                  ??___fladd 004C  
                ??___awdiv 0077                  ??___awmod 0077                  ??___flmul 0032  
                ??___fltol 005C                  ??___lldiv 0073           ___awdiv@quotient 0022  
          ___awmod@divisor 0073            ___awmod@counter 0020          BTD_DECIMAL@valor1 0024  
       __size_of__Umul8_16 0029                     saved_w 007E            Lcd_Set_Cursor@a 0021  
          Lcd_Set_Cursor@b 0077               ___xxtofl@arg 0026               ___xxtofl@exp 0025  
             ___xxtofl@val 0073               ??_BTD_UNIDAD 0078    __end_of__initialization 002B  
        __end_of_Lcd_Clear 0812                 ___fltol@f1 0058             __pcstackCOMMON 0070  
             __pidataBANK1 07FC              __end_of_setup 089B              __end_of_print 146E  
           _Lcd_Set_Cursor 146E         __end_of_BTD_UNIDAD 1540            _temperatura_aht 00A0  
                ?_Lcd_Init 0070                  ?_Lcd_Port 0070                    ??_setup 0078  
                  ??_print 0073                 __pbssBANK0 0063                 __pbssBANK1 00A0  
        __end_of__Umul8_16 14E6                 __pmaintext 002F                 __pintentry 0004  
__size_of_Lcd_Write_String 0029     __end_of_Lcd_Set_Cursor 1494       __end_of_enviar_letra 13F2  
                ?___xxtofl 0073                 ??_Lcd_Init 0020                 ??_Lcd_Port 0073  
            _bandera_extra 00AA                    _SSPCON2 0091              _bandera_servo 00AB  
                  _SSPSTAT 0094                 __stringtab 1000             _Lcd_Write_Char 1433  
                  _Lcd_Cmd 1419                    _Entrada 00AC                    ___fladd 1578  
                  ___awdiv 06ED                    ___awmod 08F1                    ___flmul 0C9F  
                  ___fltol 0671                    ___lldiv 0756            ?_Lcd_Set_Cursor 0077  
                  __ptext1 084C                    __ptext2 0812                    __ptext3 0756  
                  __ptext4 144D                    __ptext5 094C                    __ptext6 13E8  
                  __ptext7 05B5                    __ptext8 0671                    __ptext9 0C9F  
                _T1CONbits 0010               __size_of_isr 0063                 ??___xxtofl 0020  
               _int_string 094C           ___awmod@dividend 0075   __size_of_I2C_Master_Init 003A  
 __size_of_I2C_Master_Read 0038   __size_of_I2C_Master_Wait 000D   __size_of_I2C_Master_Stop 0009  
                  clrloop0 13C5     __end_of_Lcd_Write_Char 144D       end_of_initialization 002B  
       BTD_DECIMAL@salida1 0028  __size_of_I2C_Master_Start 0009  __size_of_I2C_Master_Write 000A  
          ___lldiv@divisor 0020            ___lldiv@counter 002C                  _RCSTAbits 0018  
         I2C_Master_Init@c 002D           I2C_Master_Read@a 0073                    psplit$0 D002D  
                Lcd_Port@a 0073                 _temp_temp1 006A                 _temp_temp2 0069  
            ??_BTD_DECIMAL 0078              ??_BTD_CENTENA 0078                ___fladd@grs 0057  
            ___xxtofl@sign 0024                  _TRISCbits 0087       pnum$maintext_split_1 002D  
          ?_Lcd_Write_Char 0070            int_string@valor 002A               _contador_lcd 0066  
        Lcd_Write_String@a 0022          Lcd_Write_String@i 0020                ___flmul@grs 0038  
                _TXSTAbits 0098                  _Lcd_Clear 0805      __size_of_enviar_letra 000A  
         _Lcd_Write_String 1494        __end_of_BTD_DECIMAL 1513                ?_int_string 002A  
      start_initialization 000F        __end_of_BTD_CENTENA 1419                __end_of_isr 0A0A  
        __size_of_Lcd_Init 0056          __size_of_Lcd_Port 003E          ??_I2C_Master_Init 0074  
        ??_I2C_Master_Read 0075          ??_I2C_Master_Wait 0073          ??_I2C_Master_Stop 0073  
             _enviar_letra 13E8                _bandera_lcd 0065                 ?_Lcd_Clear 0070  
                __Umul8_16 14BD                __pdataBANK1 00B2          BTD_CENTENA@salida 0026  
          Lcd_Write_Char@a 0075            Lcd_Write_Char@y 0076                  ___fladd@a 0048  
                ___fladd@b 0044                  ___flmul@a 002E                  ___flmul@b 002A  
              __pbssCOMMON 0078                  ___latbits 0002              __pcstackBANK0 0020  
            __pcstackBANK1 00AD          __size_of___xxtofl 00BC                   ?_Lcd_Cmd 0070  
         _I2C_Master_Start 13CC           _I2C_Master_Write 13DE        __size_of_int_string 005B  
         ??_Lcd_Set_Cursor 0020                   ?___fladd 0044                   ?___awdiv 0073  
                 ?___awmod 0073                   ?___flmul 002A                   ?___fltol 0058  
                 ?___lldiv 0020                 ?__Umul8_16 0073                _BTD_DECIMAL 14E6  
              _BTD_CENTENA 13FF                  __pstrings 1000             __size_of_setup 004F  
           __size_of_print 0021          interrupt_function 0004                  clear_ram0 13C4  
                 _PIE1bits 008C                   Lcd_Cmd@a 0076                   _PIR1bits 000C  
              ??_Lcd_Clear 0077                  _temp_luz1 0068                  _temp_luz2 0067  
           _bandera_serial 0063                __stringbase 1005           ??_Lcd_Write_Char 0074  
                 _Lcd_Init 089B                   _Lcd_Port 07BE        BTD_UNIDAD@temporal2 0024  
      I2C_Master_Read@temp 0020   __end_of_Lcd_Write_String 14BD           __size_of_Lcd_Cmd 001A  
         BTD_CENTENA@valor 0024                ??__Umul8_16 0075               pnum$maintext 000D  
         __size_of___fladd 0288           __size_of___awdiv 0069           __size_of___awmod 005B  
         __size_of___flmul 0361           __size_of___fltol 007C           __size_of___lldiv 0068  
       __end_of__stringtab 1006       BTD_DECIMAL@temporal1 0026               ??_int_string 0078  
          _I2C_Master_Init 0812            _I2C_Master_Read 1540                   ___xxtofl 05B5  
          _I2C_Master_Wait 13F2            _I2C_Master_Stop 13D5                   __ptext10 14BD  
                 __ptext11 1578                   __ptext20 13D5                   __ptext12 1494  
                 __ptext21 13CC                   __ptext13 1433                   __ptext22 1540  
                 __ptext14 146E                   __ptext23 13F2                   __ptext15 089B  
                 __ptext24 1513                   __ptext16 0805                   __ptext25 14E6  
                 __ptext17 1419                   __ptext26 08F1                   __ptext18 07BE  
                 __ptext27 13FF                   __ptext19 13DE                   __ptext28 06ED  
                 __ptext29 09A7                 _BTD_UNIDAD 1513                _humedad_aht 00A2  
            __size_of_main 0C70        _bandera_resistencia 0078                   _temp_bmp 00A4  
                 _temp_nom 00B2         __end_of_int_string 09A7   __end_of_I2C_Master_Start 13D5  
 __end_of_I2C_Master_Write 13E8                 _INTCONbits 000B               _temperatura1 006E  
             _temperatura2 006D                   intlevel1 0000           ___lldiv@dividend 0024  
                stringcode 1000                 _OSCCONbits 008F               ?_BTD_DECIMAL 0024  
  __end_of_I2C_Master_Init 084C    __end_of_I2C_Master_Read 1578    __end_of_I2C_Master_Wait 13FF  
  __end_of_I2C_Master_Stop 13DE         Lcd_Set_Cursor@temp 0022               ?_BTD_CENTENA 0024  
   __Umul8_16@multiplicand 0073         _bandera_ventilador 0079           ___lldiv@quotient 0028  
        I2C_Master_Write@d 0073                   stringdir 1000                   stringtab 1000  
              _SSPCON2bits 0091              ___fladd@signs 0054                ?_BTD_UNIDAD 0022  
             ___fladd@aexp 0055               ___fladd@bexp 0056       __Umul8_16@multiplier 0024  
        __Umul8_16@product 0020  
