

Microchip MPLAB XC8 Assembler V2.31 build 20201012212115 
                                                                                               Wed Aug 04 02:49:49 2021

Microchip MPLAB XC8 C Compiler v2.31 (Free license) build 20201012212115 Og1 
     1                           	processor	16F887
     2                           	pagewidth 120
     3                           	opt	flic
     4                           	psect	idataBANK1,global,class=CODE,delta=2,noexec
     5                           	psect	strings,global,class=STRING,delta=2,noexec
     6                           	psect	cinit,global,class=CODE,merge=1,delta=2
     7                           	psect	bssCOMMON,global,class=COMMON,space=1,delta=1,noexec
     8                           	psect	bssBANK0,global,class=BANK0,space=1,delta=1,noexec
     9                           	psect	dataBANK1,global,class=BANK1,space=1,delta=1,noexec
    10                           	psect	inittext,global,class=CODE,delta=2
    11                           	psect	cstackCOMMON,global,class=COMMON,space=1,delta=1,noexec
    12                           	psect	cstackBANK0,global,class=BANK0,space=1,delta=1,noexec
    13                           	psect	maintext,global,class=CODE,split=1,delta=2
    14                           	psect	text1,local,class=CODE,merge=1,delta=2
    15                           	psect	text2,local,class=CODE,merge=1,delta=2
    16                           	psect	text3,local,class=CODE,merge=1,delta=2
    17                           	psect	text4,local,class=CODE,merge=1,delta=2
    18                           	psect	text5,local,class=CODE,merge=1,delta=2
    19                           	psect	text6,local,class=CODE,merge=1,delta=2
    20                           	psect	text7,local,class=CODE,merge=1,delta=2,group=1
    21                           	psect	text8,local,class=CODE,merge=1,delta=2,group=1
    22                           	psect	text9,local,class=CODE,merge=1,delta=2,group=1
    23                           	psect	text10,local,class=CODE,merge=1,delta=2,group=1
    24                           	psect	text11,local,class=CODE,merge=1,delta=2,group=1
    25                           	psect	text12,local,class=CODE,merge=1,delta=2
    26                           	psect	text13,local,class=CODE,merge=1,delta=2
    27                           	psect	text14,local,class=CODE,merge=1,delta=2,group=1
    28                           	psect	text15,local,class=CODE,merge=1,delta=2,group=1
    29                           	psect	text16,local,class=CODE,merge=1,delta=2
    30                           	psect	intentry,global,class=CODE,delta=2
    31                           	psect	text17,local,class=CODE,merge=1,delta=2
    32                           	psect	text18,local,class=CODE,merge=1,delta=2
    33                           	psect	text19,local,class=CODE,merge=1,delta=2
    34                           	psect	config,global,abs,ovrld,class=CONFIG,space=4,delta=2,noexec
    35                           	dabs	1,0x7E,2
    36  0000                     
    37                           ; Version 2.20
    38                           ; Generated 12/02/2020 GMT
    39                           ; 
    40                           ; Copyright © 2020, Microchip Technology Inc. and its subsidiaries ("Microchip")
    41                           ; All rights reserved.
    42                           ; 
    43                           ; This software is developed by Microchip Technology Inc. and its subsidiaries ("Microch
      +                          ip").
    44                           ; 
    45                           ; Redistribution and use in source and binary forms, with or without modification, are
    46                           ; permitted provided that the following conditions are met:
    47                           ; 
    48                           ;     1. Redistributions of source code must retain the above copyright notice, this lis
      +                          t of
    49                           ;        conditions and the following disclaimer.
    50                           ; 
    51                           ;     2. Redistributions in binary form must reproduce the above copyright notice, this 
      +                          list
    52                           ;        of conditions and the following disclaimer in the documentation and/or other
    53                           ;        materials provided with the distribution.
    54                           ; 
    55                           ;     3. Microchip's name may not be used to endorse or promote products derived from th
      +                          is
    56                           ;        software without specific prior written permission.
    57                           ; 
    58                           ; THIS SOFTWARE IS PROVIDED BY MICROCHIP "AS IS" AND ANY EXPRESS OR IMPLIED WARRANTIES,
    59                           ; INCLUDING, BUT NOT LIMITED TO, THE IMPLIED WARRANTIES OF MERCHANTABILITY AND FITNESS F
      +                          OR
    60                           ; PURPOSE ARE DISCLAIMED.  IN NO EVENT SHALL MICROCHIP BE LIABLE FOR ANY DIRECT, INDIREC
      +                          T,
    61                           ; INCIDENTAL, SPECIAL, EXEMPLARY, OR CONSEQUENTIAL DAMAGES (INCLUDING BUT NOT LIMITED TO
    62                           ; PROCUREMENT OF SUBSTITUTE GOODS OR SERVICES; LOSS OF USE, DATA OR PROFITS; OR BUSINESS
    63                           ; INTERRUPTION) HOWSOEVER CAUSED AND ON ANY THEORY OF LIABILITY, WHETHER IN CONTRACT, ST
      +                          RICT
    64                           ; LIABILITY, OR TORT (INCLUDING NEGLIGENCE OR OTHERWISE) ARISING IN ANY WAY OUT OF THE U
      +                          SE OF
    65                           ; THIS SOFTWARE, EVEN IF ADVISED OF THE POSSIBILITY OF SUCH DAMAGE.
    66                           ; 
    67                           ; 
    68                           ; Code-generator required, PIC16F887 Definitions
    69                           ; 
    70                           ; SFR Addresses
    71  0000                     	;# 
    72  0001                     	;# 
    73  0002                     	;# 
    74  0003                     	;# 
    75  0004                     	;# 
    76  0005                     	;# 
    77  0006                     	;# 
    78  0007                     	;# 
    79  0008                     	;# 
    80  0009                     	;# 
    81  000A                     	;# 
    82  000B                     	;# 
    83  000C                     	;# 
    84  000D                     	;# 
    85  000E                     	;# 
    86  000E                     	;# 
    87  000F                     	;# 
    88  0010                     	;# 
    89  0011                     	;# 
    90  0012                     	;# 
    91  0013                     	;# 
    92  0014                     	;# 
    93  0015                     	;# 
    94  0015                     	;# 
    95  0016                     	;# 
    96  0017                     	;# 
    97  0018                     	;# 
    98  0019                     	;# 
    99  001A                     	;# 
   100  001B                     	;# 
   101  001B                     	;# 
   102  001C                     	;# 
   103  001D                     	;# 
   104  001E                     	;# 
   105  001F                     	;# 
   106  0081                     	;# 
   107  0085                     	;# 
   108  0086                     	;# 
   109  0087                     	;# 
   110  0088                     	;# 
   111  0089                     	;# 
   112  008C                     	;# 
   113  008D                     	;# 
   114  008E                     	;# 
   115  008F                     	;# 
   116  0090                     	;# 
   117  0091                     	;# 
   118  0092                     	;# 
   119  0093                     	;# 
   120  0093                     	;# 
   121  0093                     	;# 
   122  0094                     	;# 
   123  0095                     	;# 
   124  0096                     	;# 
   125  0097                     	;# 
   126  0098                     	;# 
   127  0099                     	;# 
   128  009A                     	;# 
   129  009B                     	;# 
   130  009C                     	;# 
   131  009D                     	;# 
   132  009E                     	;# 
   133  009F                     	;# 
   134  0105                     	;# 
   135  0107                     	;# 
   136  0108                     	;# 
   137  0109                     	;# 
   138  010C                     	;# 
   139  010C                     	;# 
   140  010D                     	;# 
   141  010E                     	;# 
   142  010F                     	;# 
   143  0185                     	;# 
   144  0187                     	;# 
   145  0188                     	;# 
   146  0189                     	;# 
   147  018C                     	;# 
   148  018D                     	;# 
   149  0000                     	;# 
   150  0001                     	;# 
   151  0002                     	;# 
   152  0003                     	;# 
   153  0004                     	;# 
   154  0005                     	;# 
   155  0006                     	;# 
   156  0007                     	;# 
   157  0008                     	;# 
   158  0009                     	;# 
   159  000A                     	;# 
   160  000B                     	;# 
   161  000C                     	;# 
   162  000D                     	;# 
   163  000E                     	;# 
   164  000E                     	;# 
   165  000F                     	;# 
   166  0010                     	;# 
   167  0011                     	;# 
   168  0012                     	;# 
   169  0013                     	;# 
   170  0014                     	;# 
   171  0015                     	;# 
   172  0015                     	;# 
   173  0016                     	;# 
   174  0017                     	;# 
   175  0018                     	;# 
   176  0019                     	;# 
   177  001A                     	;# 
   178  001B                     	;# 
   179  001B                     	;# 
   180  001C                     	;# 
   181  001D                     	;# 
   182  001E                     	;# 
   183  001F                     	;# 
   184  0081                     	;# 
   185  0085                     	;# 
   186  0086                     	;# 
   187  0087                     	;# 
   188  0088                     	;# 
   189  0089                     	;# 
   190  008C                     	;# 
   191  008D                     	;# 
   192  008E                     	;# 
   193  008F                     	;# 
   194  0090                     	;# 
   195  0091                     	;# 
   196  0092                     	;# 
   197  0093                     	;# 
   198  0093                     	;# 
   199  0093                     	;# 
   200  0094                     	;# 
   201  0095                     	;# 
   202  0096                     	;# 
   203  0097                     	;# 
   204  0098                     	;# 
   205  0099                     	;# 
   206  009A                     	;# 
   207  009B                     	;# 
   208  009C                     	;# 
   209  009D                     	;# 
   210  009E                     	;# 
   211  009F                     	;# 
   212  0105                     	;# 
   213  0107                     	;# 
   214  0108                     	;# 
   215  0109                     	;# 
   216  010C                     	;# 
   217  010C                     	;# 
   218  010D                     	;# 
   219  010E                     	;# 
   220  010F                     	;# 
   221  0185                     	;# 
   222  0187                     	;# 
   223  0188                     	;# 
   224  0189                     	;# 
   225  018C                     	;# 
   226  018D                     	;# 
   227  0000                     	;# 
   228  0001                     	;# 
   229  0002                     	;# 
   230  0003                     	;# 
   231  0004                     	;# 
   232  0005                     	;# 
   233  0006                     	;# 
   234  0007                     	;# 
   235  0008                     	;# 
   236  0009                     	;# 
   237  000A                     	;# 
   238  000B                     	;# 
   239  000C                     	;# 
   240  000D                     	;# 
   241  000E                     	;# 
   242  000E                     	;# 
   243  000F                     	;# 
   244  0010                     	;# 
   245  0011                     	;# 
   246  0012                     	;# 
   247  0013                     	;# 
   248  0014                     	;# 
   249  0015                     	;# 
   250  0015                     	;# 
   251  0016                     	;# 
   252  0017                     	;# 
   253  0018                     	;# 
   254  0019                     	;# 
   255  001A                     	;# 
   256  001B                     	;# 
   257  001B                     	;# 
   258  001C                     	;# 
   259  001D                     	;# 
   260  001E                     	;# 
   261  001F                     	;# 
   262  0081                     	;# 
   263  0085                     	;# 
   264  0086                     	;# 
   265  0087                     	;# 
   266  0088                     	;# 
   267  0089                     	;# 
   268  008C                     	;# 
   269  008D                     	;# 
   270  008E                     	;# 
   271  008F                     	;# 
   272  0090                     	;# 
   273  0091                     	;# 
   274  0092                     	;# 
   275  0093                     	;# 
   276  0093                     	;# 
   277  0093                     	;# 
   278  0094                     	;# 
   279  0095                     	;# 
   280  0096                     	;# 
   281  0097                     	;# 
   282  0098                     	;# 
   283  0099                     	;# 
   284  009A                     	;# 
   285  009B                     	;# 
   286  009C                     	;# 
   287  009D                     	;# 
   288  009E                     	;# 
   289  009F                     	;# 
   290  0105                     	;# 
   291  0107                     	;# 
   292  0108                     	;# 
   293  0109                     	;# 
   294  010C                     	;# 
   295  010C                     	;# 
   296  010D                     	;# 
   297  010E                     	;# 
   298  010F                     	;# 
   299  0185                     	;# 
   300  0187                     	;# 
   301  0188                     	;# 
   302  0189                     	;# 
   303  018C                     	;# 
   304  018D                     	;# 
   305  0000                     	;# 
   306  0001                     	;# 
   307  0002                     	;# 
   308  0003                     	;# 
   309  0004                     	;# 
   310  0005                     	;# 
   311  0006                     	;# 
   312  0007                     	;# 
   313  0008                     	;# 
   314  0009                     	;# 
   315  000A                     	;# 
   316  000B                     	;# 
   317  000C                     	;# 
   318  000D                     	;# 
   319  000E                     	;# 
   320  000E                     	;# 
   321  000F                     	;# 
   322  0010                     	;# 
   323  0011                     	;# 
   324  0012                     	;# 
   325  0013                     	;# 
   326  0014                     	;# 
   327  0015                     	;# 
   328  0015                     	;# 
   329  0016                     	;# 
   330  0017                     	;# 
   331  0018                     	;# 
   332  0019                     	;# 
   333  001A                     	;# 
   334  001B                     	;# 
   335  001B                     	;# 
   336  001C                     	;# 
   337  001D                     	;# 
   338  001E                     	;# 
   339  001F                     	;# 
   340  0081                     	;# 
   341  0085                     	;# 
   342  0086                     	;# 
   343  0087                     	;# 
   344  0088                     	;# 
   345  0089                     	;# 
   346  008C                     	;# 
   347  008D                     	;# 
   348  008E                     	;# 
   349  008F                     	;# 
   350  0090                     	;# 
   351  0091                     	;# 
   352  0092                     	;# 
   353  0093                     	;# 
   354  0093                     	;# 
   355  0093                     	;# 
   356  0094                     	;# 
   357  0095                     	;# 
   358  0096                     	;# 
   359  0097                     	;# 
   360  0098                     	;# 
   361  0099                     	;# 
   362  009A                     	;# 
   363  009B                     	;# 
   364  009C                     	;# 
   365  009D                     	;# 
   366  009E                     	;# 
   367  009F                     	;# 
   368  0105                     	;# 
   369  0107                     	;# 
   370  0108                     	;# 
   371  0109                     	;# 
   372  010C                     	;# 
   373  010C                     	;# 
   374  010D                     	;# 
   375  010E                     	;# 
   376  010F                     	;# 
   377  0185                     	;# 
   378  0187                     	;# 
   379  0188                     	;# 
   380  0189                     	;# 
   381  018C                     	;# 
   382  018D                     	;# 
   383  0000                     	;# 
   384  0001                     	;# 
   385  0002                     	;# 
   386  0003                     	;# 
   387  0004                     	;# 
   388  0005                     	;# 
   389  0006                     	;# 
   390  0007                     	;# 
   391  0008                     	;# 
   392  0009                     	;# 
   393  000A                     	;# 
   394  000B                     	;# 
   395  000C                     	;# 
   396  000D                     	;# 
   397  000E                     	;# 
   398  000E                     	;# 
   399  000F                     	;# 
   400  0010                     	;# 
   401  0011                     	;# 
   402  0012                     	;# 
   403  0013                     	;# 
   404  0014                     	;# 
   405  0015                     	;# 
   406  0015                     	;# 
   407  0016                     	;# 
   408  0017                     	;# 
   409  0018                     	;# 
   410  0019                     	;# 
   411  001A                     	;# 
   412  001B                     	;# 
   413  001B                     	;# 
   414  001C                     	;# 
   415  001D                     	;# 
   416  001E                     	;# 
   417  001F                     	;# 
   418  0081                     	;# 
   419  0085                     	;# 
   420  0086                     	;# 
   421  0087                     	;# 
   422  0088                     	;# 
   423  0089                     	;# 
   424  008C                     	;# 
   425  008D                     	;# 
   426  008E                     	;# 
   427  008F                     	;# 
   428  0090                     	;# 
   429  0091                     	;# 
   430  0092                     	;# 
   431  0093                     	;# 
   432  0093                     	;# 
   433  0093                     	;# 
   434  0094                     	;# 
   435  0095                     	;# 
   436  0096                     	;# 
   437  0097                     	;# 
   438  0098                     	;# 
   439  0099                     	;# 
   440  009A                     	;# 
   441  009B                     	;# 
   442  009C                     	;# 
   443  009D                     	;# 
   444  009E                     	;# 
   445  009F                     	;# 
   446  0105                     	;# 
   447  0107                     	;# 
   448  0108                     	;# 
   449  0109                     	;# 
   450  010C                     	;# 
   451  010C                     	;# 
   452  010D                     	;# 
   453  010E                     	;# 
   454  010F                     	;# 
   455  0185                     	;# 
   456  0187                     	;# 
   457  0188                     	;# 
   458  0189                     	;# 
   459  018C                     	;# 
   460  018D                     	;# 
   461  0000                     	;# 
   462  0001                     	;# 
   463  0002                     	;# 
   464  0003                     	;# 
   465  0004                     	;# 
   466  0005                     	;# 
   467  0006                     	;# 
   468  0007                     	;# 
   469  0008                     	;# 
   470  0009                     	;# 
   471  000A                     	;# 
   472  000B                     	;# 
   473  000C                     	;# 
   474  000D                     	;# 
   475  000E                     	;# 
   476  000E                     	;# 
   477  000F                     	;# 
   478  0010                     	;# 
   479  0011                     	;# 
   480  0012                     	;# 
   481  0013                     	;# 
   482  0014                     	;# 
   483  0015                     	;# 
   484  0015                     	;# 
   485  0016                     	;# 
   486  0017                     	;# 
   487  0018                     	;# 
   488  0019                     	;# 
   489  001A                     	;# 
   490  001B                     	;# 
   491  001B                     	;# 
   492  001C                     	;# 
   493  001D                     	;# 
   494  001E                     	;# 
   495  001F                     	;# 
   496  0081                     	;# 
   497  0085                     	;# 
   498  0086                     	;# 
   499  0087                     	;# 
   500  0088                     	;# 
   501  0089                     	;# 
   502  008C                     	;# 
   503  008D                     	;# 
   504  008E                     	;# 
   505  008F                     	;# 
   506  0090                     	;# 
   507  0091                     	;# 
   508  0092                     	;# 
   509  0093                     	;# 
   510  0093                     	;# 
   511  0093                     	;# 
   512  0094                     	;# 
   513  0095                     	;# 
   514  0096                     	;# 
   515  0097                     	;# 
   516  0098                     	;# 
   517  0099                     	;# 
   518  009A                     	;# 
   519  009B                     	;# 
   520  009C                     	;# 
   521  009D                     	;# 
   522  009E                     	;# 
   523  009F                     	;# 
   524  0105                     	;# 
   525  0107                     	;# 
   526  0108                     	;# 
   527  0109                     	;# 
   528  010C                     	;# 
   529  010C                     	;# 
   530  010D                     	;# 
   531  010E                     	;# 
   532  010F                     	;# 
   533  0185                     	;# 
   534  0187                     	;# 
   535  0188                     	;# 
   536  0189                     	;# 
   537  018C                     	;# 
   538  018D                     	;# 
   539  0000                     	;# 
   540  0001                     	;# 
   541  0002                     	;# 
   542  0003                     	;# 
   543  0004                     	;# 
   544  0005                     	;# 
   545  0006                     	;# 
   546  0007                     	;# 
   547  0008                     	;# 
   548  0009                     	;# 
   549  000A                     	;# 
   550  000B                     	;# 
   551  000C                     	;# 
   552  000D                     	;# 
   553  000E                     	;# 
   554  000E                     	;# 
   555  000F                     	;# 
   556  0010                     	;# 
   557  0011                     	;# 
   558  0012                     	;# 
   559  0013                     	;# 
   560  0014                     	;# 
   561  0015                     	;# 
   562  0015                     	;# 
   563  0016                     	;# 
   564  0017                     	;# 
   565  0018                     	;# 
   566  0019                     	;# 
   567  001A                     	;# 
   568  001B                     	;# 
   569  001B                     	;# 
   570  001C                     	;# 
   571  001D                     	;# 
   572  001E                     	;# 
   573  001F                     	;# 
   574  0081                     	;# 
   575  0085                     	;# 
   576  0086                     	;# 
   577  0087                     	;# 
   578  0088                     	;# 
   579  0089                     	;# 
   580  008C                     	;# 
   581  008D                     	;# 
   582  008E                     	;# 
   583  008F                     	;# 
   584  0090                     	;# 
   585  0091                     	;# 
   586  0092                     	;# 
   587  0093                     	;# 
   588  0093                     	;# 
   589  0093                     	;# 
   590  0094                     	;# 
   591  0095                     	;# 
   592  0096                     	;# 
   593  0097                     	;# 
   594  0098                     	;# 
   595  0099                     	;# 
   596  009A                     	;# 
   597  009B                     	;# 
   598  009C                     	;# 
   599  009D                     	;# 
   600  009E                     	;# 
   601  009F                     	;# 
   602  0105                     	;# 
   603  0107                     	;# 
   604  0108                     	;# 
   605  0109                     	;# 
   606  010C                     	;# 
   607  010C                     	;# 
   608  010D                     	;# 
   609  010E                     	;# 
   610  010F                     	;# 
   611  0185                     	;# 
   612  0187                     	;# 
   613  0188                     	;# 
   614  0189                     	;# 
   615  018C                     	;# 
   616  018D                     	;# 
   617  0000                     	;# 
   618  0001                     	;# 
   619  0002                     	;# 
   620  0003                     	;# 
   621  0004                     	;# 
   622  0005                     	;# 
   623  0006                     	;# 
   624  0007                     	;# 
   625  0008                     	;# 
   626  0009                     	;# 
   627  000A                     	;# 
   628  000B                     	;# 
   629  000C                     	;# 
   630  000D                     	;# 
   631  000E                     	;# 
   632  000E                     	;# 
   633  000F                     	;# 
   634  0010                     	;# 
   635  0011                     	;# 
   636  0012                     	;# 
   637  0013                     	;# 
   638  0014                     	;# 
   639  0015                     	;# 
   640  0015                     	;# 
   641  0016                     	;# 
   642  0017                     	;# 
   643  0018                     	;# 
   644  0019                     	;# 
   645  001A                     	;# 
   646  001B                     	;# 
   647  001B                     	;# 
   648  001C                     	;# 
   649  001D                     	;# 
   650  001E                     	;# 
   651  001F                     	;# 
   652  0081                     	;# 
   653  0085                     	;# 
   654  0086                     	;# 
   655  0087                     	;# 
   656  0088                     	;# 
   657  0089                     	;# 
   658  008C                     	;# 
   659  008D                     	;# 
   660  008E                     	;# 
   661  008F                     	;# 
   662  0090                     	;# 
   663  0091                     	;# 
   664  0092                     	;# 
   665  0093                     	;# 
   666  0093                     	;# 
   667  0093                     	;# 
   668  0094                     	;# 
   669  0095                     	;# 
   670  0096                     	;# 
   671  0097                     	;# 
   672  0098                     	;# 
   673  0099                     	;# 
   674  009A                     	;# 
   675  009B                     	;# 
   676  009C                     	;# 
   677  009D                     	;# 
   678  009E                     	;# 
   679  009F                     	;# 
   680  0105                     	;# 
   681  0107                     	;# 
   682  0108                     	;# 
   683  0109                     	;# 
   684  010C                     	;# 
   685  010C                     	;# 
   686  010D                     	;# 
   687  010E                     	;# 
   688  010F                     	;# 
   689  0185                     	;# 
   690  0187                     	;# 
   691  0188                     	;# 
   692  0189                     	;# 
   693  018C                     	;# 
   694  018D                     	;# 
   695  0000                     	;# 
   696  0001                     	;# 
   697  0002                     	;# 
   698  0003                     	;# 
   699  0004                     	;# 
   700  0005                     	;# 
   701  0006                     	;# 
   702  0007                     	;# 
   703  0008                     	;# 
   704  0009                     	;# 
   705  000A                     	;# 
   706  000B                     	;# 
   707  000C                     	;# 
   708  000D                     	;# 
   709  000E                     	;# 
   710  000E                     	;# 
   711  000F                     	;# 
   712  0010                     	;# 
   713  0011                     	;# 
   714  0012                     	;# 
   715  0013                     	;# 
   716  0014                     	;# 
   717  0015                     	;# 
   718  0015                     	;# 
   719  0016                     	;# 
   720  0017                     	;# 
   721  0018                     	;# 
   722  0019                     	;# 
   723  001A                     	;# 
   724  001B                     	;# 
   725  001B                     	;# 
   726  001C                     	;# 
   727  001D                     	;# 
   728  001E                     	;# 
   729  001F                     	;# 
   730  0081                     	;# 
   731  0085                     	;# 
   732  0086                     	;# 
   733  0087                     	;# 
   734  0088                     	;# 
   735  0089                     	;# 
   736  008C                     	;# 
   737  008D                     	;# 
   738  008E                     	;# 
   739  008F                     	;# 
   740  0090                     	;# 
   741  0091                     	;# 
   742  0092                     	;# 
   743  0093                     	;# 
   744  0093                     	;# 
   745  0093                     	;# 
   746  0094                     	;# 
   747  0095                     	;# 
   748  0096                     	;# 
   749  0097                     	;# 
   750  0098                     	;# 
   751  0099                     	;# 
   752  009A                     	;# 
   753  009B                     	;# 
   754  009C                     	;# 
   755  009D                     	;# 
   756  009E                     	;# 
   757  009F                     	;# 
   758  0105                     	;# 
   759  0107                     	;# 
   760  0108                     	;# 
   761  0109                     	;# 
   762  010C                     	;# 
   763  010C                     	;# 
   764  010D                     	;# 
   765  010E                     	;# 
   766  010F                     	;# 
   767  0185                     	;# 
   768  0187                     	;# 
   769  0188                     	;# 
   770  0189                     	;# 
   771  018C                     	;# 
   772  018D                     	;# 
   773  0000                     	;# 
   774  0001                     	;# 
   775  0002                     	;# 
   776  0003                     	;# 
   777  0004                     	;# 
   778  0005                     	;# 
   779  0006                     	;# 
   780  0007                     	;# 
   781  0008                     	;# 
   782  0009                     	;# 
   783  000A                     	;# 
   784  000B                     	;# 
   785  000C                     	;# 
   786  000D                     	;# 
   787  000E                     	;# 
   788  000E                     	;# 
   789  000F                     	;# 
   790  0010                     	;# 
   791  0011                     	;# 
   792  0012                     	;# 
   793  0013                     	;# 
   794  0014                     	;# 
   795  0015                     	;# 
   796  0015                     	;# 
   797  0016                     	;# 
   798  0017                     	;# 
   799  0018                     	;# 
   800  0019                     	;# 
   801  001A                     	;# 
   802  001B                     	;# 
   803  001B                     	;# 
   804  001C                     	;# 
   805  001D                     	;# 
   806  001E                     	;# 
   807  001F                     	;# 
   808  0081                     	;# 
   809  0085                     	;# 
   810  0086                     	;# 
   811  0087                     	;# 
   812  0088                     	;# 
   813  0089                     	;# 
   814  008C                     	;# 
   815  008D                     	;# 
   816  008E                     	;# 
   817  008F                     	;# 
   818  0090                     	;# 
   819  0091                     	;# 
   820  0092                     	;# 
   821  0093                     	;# 
   822  0093                     	;# 
   823  0093                     	;# 
   824  0094                     	;# 
   825  0095                     	;# 
   826  0096                     	;# 
   827  0097                     	;# 
   828  0098                     	;# 
   829  0099                     	;# 
   830  009A                     	;# 
   831  009B                     	;# 
   832  009C                     	;# 
   833  009D                     	;# 
   834  009E                     	;# 
   835  009F                     	;# 
   836  0105                     	;# 
   837  0107                     	;# 
   838  0108                     	;# 
   839  0109                     	;# 
   840  010C                     	;# 
   841  010C                     	;# 
   842  010D                     	;# 
   843  010E                     	;# 
   844  010F                     	;# 
   845  0185                     	;# 
   846  0187                     	;# 
   847  0188                     	;# 
   848  0189                     	;# 
   849  018C                     	;# 
   850  018D                     	;# 
   851  0000                     	;# 
   852  0001                     	;# 
   853  0002                     	;# 
   854  0003                     	;# 
   855  0004                     	;# 
   856  0005                     	;# 
   857  0006                     	;# 
   858  0007                     	;# 
   859  0008                     	;# 
   860  0009                     	;# 
   861  000A                     	;# 
   862  000B                     	;# 
   863  000C                     	;# 
   864  000D                     	;# 
   865  000E                     	;# 
   866  000E                     	;# 
   867  000F                     	;# 
   868  0010                     	;# 
   869  0011                     	;# 
   870  0012                     	;# 
   871  0013                     	;# 
   872  0014                     	;# 
   873  0015                     	;# 
   874  0015                     	;# 
   875  0016                     	;# 
   876  0017                     	;# 
   877  0018                     	;# 
   878  0019                     	;# 
   879  001A                     	;# 
   880  001B                     	;# 
   881  001B                     	;# 
   882  001C                     	;# 
   883  001D                     	;# 
   884  001E                     	;# 
   885  001F                     	;# 
   886  0081                     	;# 
   887  0085                     	;# 
   888  0086                     	;# 
   889  0087                     	;# 
   890  0088                     	;# 
   891  0089                     	;# 
   892  008C                     	;# 
   893  008D                     	;# 
   894  008E                     	;# 
   895  008F                     	;# 
   896  0090                     	;# 
   897  0091                     	;# 
   898  0092                     	;# 
   899  0093                     	;# 
   900  0093                     	;# 
   901  0093                     	;# 
   902  0094                     	;# 
   903  0095                     	;# 
   904  0096                     	;# 
   905  0097                     	;# 
   906  0098                     	;# 
   907  0099                     	;# 
   908  009A                     	;# 
   909  009B                     	;# 
   910  009C                     	;# 
   911  009D                     	;# 
   912  009E                     	;# 
   913  009F                     	;# 
   914  0105                     	;# 
   915  0107                     	;# 
   916  0108                     	;# 
   917  0109                     	;# 
   918  010C                     	;# 
   919  010C                     	;# 
   920  010D                     	;# 
   921  010E                     	;# 
   922  010F                     	;# 
   923  0185                     	;# 
   924  0187                     	;# 
   925  0188                     	;# 
   926  0189                     	;# 
   927  018C                     	;# 
   928  018D                     	;# 
   929                           
   930                           	psect	idataBANK1
   931  07B9                     __pidataBANK1:
   932                           
   933                           ;initializer for BCH_DISPLAY@F1449
   934  07B9  343F               	retlw	63
   935  07BA  3400               	retlw	0
   936  07BB  3406               	retlw	6
   937  07BC  3400               	retlw	0
   938  07BD  345B               	retlw	91
   939  07BE  3400               	retlw	0
   940  07BF  344F               	retlw	79
   941  07C0  3400               	retlw	0
   942  07C1  3466               	retlw	102
   943  07C2  3400               	retlw	0
   944  07C3  346D               	retlw	109
   945  07C4  3400               	retlw	0
   946  07C5  347D               	retlw	125
   947  07C6  3400               	retlw	0
   948  07C7  3407               	retlw	7
   949  07C8  3400               	retlw	0
   950  07C9  347F               	retlw	127
   951  07CA  3400               	retlw	0
   952  07CB  3467               	retlw	103
   953  07CC  3400               	retlw	0
   954  07CD  3477               	retlw	119
   955  07CE  3400               	retlw	0
   956  07CF  347C               	retlw	124
   957  07D0  3400               	retlw	0
   958  07D1  3458               	retlw	88
   959  07D2  3400               	retlw	0
   960  07D3  345E               	retlw	94
   961  07D4  3400               	retlw	0
   962  07D5  3479               	retlw	121
   963  07D6  3400               	retlw	0
   964  07D7  3471               	retlw	113
   965  07D8  3400               	retlw	0
   966                           
   967                           ;initializer for BCD_DISPLAY@F1449
   968  07D9  343F               	retlw	63
   969  07DA  3400               	retlw	0
   970  07DB  3406               	retlw	6
   971  07DC  3400               	retlw	0
   972  07DD  345B               	retlw	91
   973  07DE  3400               	retlw	0
   974  07DF  344F               	retlw	79
   975  07E0  3400               	retlw	0
   976  07E1  3466               	retlw	102
   977  07E2  3400               	retlw	0
   978  07E3  346D               	retlw	109
   979  07E4  3400               	retlw	0
   980  07E5  347D               	retlw	125
   981  07E6  3400               	retlw	0
   982  07E7  3478               	retlw	120
   983  07E8  3400               	retlw	0
   984  07E9  347F               	retlw	127
   985  07EA  3400               	retlw	0
   986  07EB  3467               	retlw	103
   987  07EC  3400               	retlw	0
   988  0019                     _TXREG	set	25
   989  0009                     _PORTE	set	9
   990  0008                     _PORTD	set	8
   991  0007                     _PORTC	set	7
   992  0005                     _PORTA	set	5
   993  001E                     _ADRESH	set	30
   994  001F                     _ADCON0bits	set	31
   995  0013                     _SSPBUF	set	19
   996  0014                     _SSPCON	set	20
   997  0010                     _T1CONbits	set	16
   998  0018                     _RCSTAbits	set	24
   999  000B                     _INTCONbits	set	11
  1000  0006                     _PORTB	set	6
  1001  0007                     _PORTCbits	set	7
  1002  0001                     _TMR0	set	1
  1003  000E                     _TMR1L	set	14
  1004  000F                     _TMR1H	set	15
  1005  000C                     _PIR1bits	set	12
  1006  001A                     _RCREG	set	26
  1007  0064                     _TXIF	set	100
  1008  0049                     _RE1	set	73
  1009  0048                     _RE0	set	72
  1010  0047                     _RD7	set	71
  1011  0046                     _RD6	set	70
  1012  0045                     _RD5	set	69
  1013  0044                     _RD4	set	68
  1014  0043                     _RD3	set	67
  1015  0042                     _RD2	set	66
  1016  0041                     _RD1	set	65
  1017  0040                     _RD0	set	64
  1018  005A                     _T0IF	set	90
  1019  0065                     _RCIF	set	101
  1020  0095                     _WPUB	set	149
  1021  0096                     _IOCB	set	150
  1022  0089                     _TRISE	set	137
  1023  0088                     _TRISD	set	136
  1024  0087                     _TRISC	set	135
  1025  0085                     _TRISA	set	133
  1026  0094                     _SSPSTATbits	set	148
  1027  0094                     _SSPSTAT	set	148
  1028  0081                     _OPTION_REGbits	set	129
  1029  0098                     _TXSTAbits	set	152
  1030  0099                     _SPBRG	set	153
  1031  009A                     _SPBRGH	set	154
  1032  008C                     _PIE1bits	set	140
  1033  0086                     _TRISB	set	134
  1034  008F                     _OSCCONbits	set	143
  1035  043B                     _TRISC3	set	1083
  1036  043D                     _TRISC5	set	1085
  1037  04C2                     _BRGH	set	1218
  1038  043A                     _TRISC2	set	1082
  1039  0189                     _ANSELH	set	393
  1040  0188                     _ANSEL	set	392
  1041  0C3B                     _BRG16	set	3131
  1042                           
  1043                           	psect	strings
  1044  0800                     __pstrings:
  1045  0800                     stringtab:
  1046  0800                     __stringtab:
  1047  0800                     stringcode:	
  1048                           ;	String table - string pointers are 1 byte each
  1049                           
  1050  0800                     stringdir:
  1051  0800  3008               	movlw	high stringdir
  1052  0801  008A               	movwf	10
  1053  0802  0804               	movf	4,w
  1054  0803  0A84               	incf	4,f
  1055  0804  0782               	addwf	2,f
  1056  0805                     __stringbase:
  1057  0805  3400               	retlw	0
  1058  0806                     __end_of__stringtab:
  1059  0806                     STR_2:
  1060  0806  340A               	retlw	10
  1061  0807  3400               	retlw	0
  1062  0808                     STR_1:
  1063  0808  340D               	retlw	13
  1064  0809  3400               	retlw	0
  1065                           
  1066                           	psect	cinit
  1067  0011                     start_initialization:	
  1068                           ; #config settings
  1069                           
  1070  0011                     __initialization:
  1071                           
  1072                           ; Initialize objects allocated to BANK1
  1073  0011  1383               	bcf	3,7	;select IRP bank0
  1074  0012  30D4               	movlw	low (__pdataBANK1+52)
  1075  0013  00FD               	movwf	btemp+-1
  1076  0014  3007               	movlw	high __pidataBANK1
  1077  0015  00FE               	movwf	btemp
  1078  0016  30B9               	movlw	low __pidataBANK1
  1079  0017  00FF               	movwf	btemp+1
  1080  0018  30A0               	movlw	low __pdataBANK1
  1081  0019  0084               	movwf	4
  1082  001A  120A  118A  27F1  120A  118A  	fcall	init_ram0
  1083                           
  1084                           ; Clear objects allocated to BANK0
  1085  001F  01D8               	clrf	__pbssBANK0& (0+127)
  1086  0020  01D9               	clrf	(__pbssBANK0+1)& (0+127)
  1087  0021  01DA               	clrf	(__pbssBANK0+2)& (0+127)
  1088  0022  01DB               	clrf	(__pbssBANK0+3)& (0+127)
  1089  0023  01DC               	clrf	(__pbssBANK0+4)& (0+127)
  1090  0024  01DD               	clrf	(__pbssBANK0+5)& (0+127)
  1091  0025  01DE               	clrf	(__pbssBANK0+6)& (0+127)
  1092                           
  1093                           ; Clear objects allocated to COMMON
  1094  0026  01F0               	clrf	__pbssCOMMON& (0+127)
  1095  0027  01F1               	clrf	(__pbssCOMMON+1)& (0+127)
  1096  0028  01F2               	clrf	(__pbssCOMMON+2)& (0+127)
  1097  0029  01F3               	clrf	(__pbssCOMMON+3)& (0+127)
  1098  002A  01F4               	clrf	(__pbssCOMMON+4)& (0+127)
  1099  002B  01F5               	clrf	(__pbssCOMMON+5)& (0+127)
  1100  002C                     end_of_initialization:	
  1101                           ;End of C runtime variable initialization code
  1102                           
  1103  002C                     __end_of__initialization:
  1104  002C  0183               	clrf	3
  1105  002D  120A  118A  2B91   	ljmp	_main	;jump to C main() function
  1106                           
  1107                           	psect	bssCOMMON
  1108  0070                     __pbssCOMMON:
  1109  0070                     _contador:
  1110  0070                     	ds	1
  1111  0071                     _temporal:
  1112  0071                     	ds	1
  1113  0072                     _dato1:
  1114  0072                     	ds	1
  1115  0073                     _bandera_SPI:
  1116  0073                     	ds	1
  1117  0074                     _mandar_datos:
  1118  0074                     	ds	1
  1119  0075                     _Entrada:
  1120  0075                     	ds	1
  1121                           
  1122                           	psect	bssBANK0
  1123  0058                     __pbssBANK0:
  1124  0058                     _recibido3:
  1125  0058                     	ds	1
  1126  0059                     _recibido2:
  1127  0059                     	ds	1
  1128  005A                     _recibido1:
  1129  005A                     	ds	1
  1130  005B                     _bandera_recibido:
  1131  005B                     	ds	1
  1132  005C                     _dato2:
  1133  005C                     	ds	1
  1134  005D                     _pot2:
  1135  005D                     	ds	1
  1136  005E                     _pot1:
  1137  005E                     	ds	1
  1138                           
  1139                           	psect	dataBANK1
  1140  00A0                     __pdataBANK1:
  1141  00A0                     BCH_DISPLAY@F1449:
  1142  00A0                     	ds	32
  1143  00C0                     BCD_DISPLAY@F1449:
  1144  00C0                     	ds	20
  1145                           
  1146                           	psect	inittext
  1147  07ED                     init_fetch0:	
  1148                           ;	Called with low address in FSR and high address in W
  1149                           
  1150  07ED  087E               	movf	btemp,w
  1151  07EE  008A               	movwf	10
  1152  07EF  087F               	movf	btemp+1,w
  1153  07F0  0082               	movwf	2
  1154  07F1                     init_ram0:	
  1155                           ;Called with:
  1156                           ;	high address of idata address in btemp 
  1157                           ;	low address of idata address in btemp+1 
  1158                           ;	low address of data in FSR
  1159                           ;	high address + 1 of data in btemp-1
  1160                           
  1161  07F1  120A  118A  27ED  120A  118A  	fcall	init_fetch0
  1162  07F6  0080               	movwf	0
  1163  07F7  0A84               	incf	4,f
  1164  07F8  0804               	movf	4,w
  1165  07F9  067D               	xorwf	btemp+-1,w
  1166  07FA  1903               	btfsc	3,2
  1167  07FB  3400               	retlw	0
  1168  07FC  0AFF               	incf	btemp+1,f
  1169  07FD  1903               	btfsc	3,2
  1170  07FE  0AFE               	incf	btemp,f
  1171  07FF  2FF1               	goto	init_ram0
  1172                           
  1173                           	psect	cstackCOMMON
  1174  0076                     __pcstackCOMMON:
  1175  0076                     ?_spiWrite:
  1176  0076                     ??_spiWrite:	
  1177                           ; 1 bytes @ 0x0
  1178                           
  1179  0076                     ?_spiRead:	
  1180                           ; 1 bytes @ 0x0
  1181                           
  1182  0076                     ??_spiRead:	
  1183                           ; 1 bytes @ 0x0
  1184                           
  1185  0076                     ?_setup:	
  1186                           ; 1 bytes @ 0x0
  1187                           
  1188  0076                     ?_enviar_letra:	
  1189                           ; 1 bytes @ 0x0
  1190                           
  1191  0076                     ?_print:	
  1192                           ; 1 bytes @ 0x0
  1193                           
  1194  0076                     ?_isr:	
  1195                           ; 1 bytes @ 0x0
  1196                           
  1197  0076                     ?_main:	
  1198                           ; 1 bytes @ 0x0
  1199                           
  1200  0076                     ?_spiReceiveWait:	
  1201                           ; 1 bytes @ 0x0
  1202                           
  1203  0076                     ??_spiReceiveWait:	
  1204                           ; 1 bytes @ 0x0
  1205                           
  1206  0076                     spiWrite@dat:	
  1207                           ; 1 bytes @ 0x0
  1208                           
  1209                           
  1210                           ; 1 bytes @ 0x0
  1211  0076                     	ds	1
  1212  0077                     ??_isr:
  1213                           
  1214                           ; 1 bytes @ 0x1
  1215  0077                     	ds	5
  1216                           
  1217                           	psect	cstackBANK0
  1218  0020                     __pcstackBANK0:
  1219  0020                     ??_enviar_letra:
  1220  0020                     ??_print:	
  1221                           ; 1 bytes @ 0x0
  1222                           
  1223  0020                     ?_spiInit:	
  1224                           ; 1 bytes @ 0x0
  1225                           
  1226  0020                     ?_string_int:	
  1227                           ; 1 bytes @ 0x0
  1228                           
  1229  0020                     ?__Umul8_16:	
  1230                           ; 2 bytes @ 0x0
  1231                           
  1232  0020                     ?___awdiv:	
  1233                           ; 2 bytes @ 0x0
  1234                           
  1235  0020                     ?___awmod:	
  1236                           ; 2 bytes @ 0x0
  1237                           
  1238  0020                     ?___xxtofl:	
  1239                           ; 2 bytes @ 0x0
  1240                           
  1241  0020                     spiInit@sDataSample:	
  1242                           ; 4 bytes @ 0x0
  1243                           
  1244  0020                     enviar_letra@letra:	
  1245                           ; 1 bytes @ 0x0
  1246                           
  1247  0020                     __Umul8_16@multiplicand:	
  1248                           ; 1 bytes @ 0x0
  1249                           
  1250  0020                     string_int@valor:	
  1251                           ; 1 bytes @ 0x0
  1252                           
  1253  0020                     ___awdiv@divisor:	
  1254                           ; 2 bytes @ 0x0
  1255                           
  1256  0020                     ___awmod@divisor:	
  1257                           ; 2 bytes @ 0x0
  1258                           
  1259  0020                     ___xxtofl@val:	
  1260                           ; 2 bytes @ 0x0
  1261                           
  1262                           
  1263                           ; 4 bytes @ 0x0
  1264  0020                     	ds	1
  1265  0021                     spiInit@sClockIdle:
  1266  0021                     print@palabra:	
  1267                           ; 1 bytes @ 0x1
  1268                           
  1269                           
  1270                           ; 1 bytes @ 0x1
  1271  0021                     	ds	1
  1272  0022                     ??_string_int:
  1273  0022                     ??__Umul8_16:	
  1274                           ; 1 bytes @ 0x2
  1275                           
  1276  0022                     ?___bmul:	
  1277                           ; 1 bytes @ 0x2
  1278                           
  1279  0022                     spiInit@sTransmitEdge:	
  1280                           ; 1 bytes @ 0x2
  1281                           
  1282  0022                     ___bmul@multiplicand:	
  1283                           ; 1 bytes @ 0x2
  1284                           
  1285  0022                     ___awdiv@dividend:	
  1286                           ; 1 bytes @ 0x2
  1287                           
  1288  0022                     ___awmod@dividend:	
  1289                           ; 2 bytes @ 0x2
  1290                           
  1291                           
  1292                           ; 2 bytes @ 0x2
  1293  0022                     	ds	1
  1294  0023                     ??_spiInit:
  1295  0023                     ??___bmul:	
  1296                           ; 1 bytes @ 0x3
  1297                           
  1298  0023                     spiInit@sType:	
  1299                           ; 1 bytes @ 0x3
  1300                           
  1301                           
  1302                           ; 1 bytes @ 0x3
  1303  0023                     	ds	1
  1304  0024                     ??_setup:
  1305  0024                     ??___awdiv:	
  1306                           ; 1 bytes @ 0x4
  1307                           
  1308  0024                     ??___awmod:	
  1309                           ; 1 bytes @ 0x4
  1310                           
  1311  0024                     ??___xxtofl:	
  1312                           ; 1 bytes @ 0x4
  1313                           
  1314  0024                     ___bmul@product:	
  1315                           ; 1 bytes @ 0x4
  1316                           
  1317  0024                     __Umul8_16@product:	
  1318                           ; 1 bytes @ 0x4
  1319                           
  1320                           
  1321                           ; 2 bytes @ 0x4
  1322  0024                     	ds	1
  1323  0025                     ___bmul@multiplier:
  1324  0025                     ___awdiv@counter:	
  1325                           ; 1 bytes @ 0x5
  1326                           
  1327  0025                     ___awmod@counter:	
  1328                           ; 1 bytes @ 0x5
  1329                           
  1330                           
  1331                           ; 1 bytes @ 0x5
  1332  0025                     	ds	1
  1333  0026                     ___awdiv@sign:
  1334  0026                     ___awmod@sign:	
  1335                           ; 1 bytes @ 0x6
  1336                           
  1337  0026                     __Umul8_16@word_mpld:	
  1338                           ; 1 bytes @ 0x6
  1339                           
  1340                           
  1341                           ; 2 bytes @ 0x6
  1342  0026                     	ds	1
  1343  0027                     ?_BTD_UNIDAD:
  1344  0027                     BTD_UNIDAD@valor2:	
  1345                           ; 2 bytes @ 0x7
  1346                           
  1347  0027                     ___awdiv@quotient:	
  1348                           ; 2 bytes @ 0x7
  1349                           
  1350                           
  1351                           ; 2 bytes @ 0x7
  1352  0027                     	ds	1
  1353  0028                     __Umul8_16@multiplier:
  1354  0028                     ___xxtofl@sign:	
  1355                           ; 1 bytes @ 0x8
  1356                           
  1357                           
  1358                           ; 1 bytes @ 0x8
  1359  0028                     	ds	1
  1360  0029                     ??_BTD_UNIDAD:
  1361  0029                     ?_BTD_DECIMAL:	
  1362                           ; 1 bytes @ 0x9
  1363                           
  1364  0029                     ___xxtofl@exp:	
  1365                           ; 2 bytes @ 0x9
  1366                           
  1367  0029                     BTD_DECIMAL@valor1:	
  1368                           ; 1 bytes @ 0x9
  1369                           
  1370  0029                     BTD_UNIDAD@temporal2:	
  1371                           ; 2 bytes @ 0x9
  1372                           
  1373                           
  1374                           ; 2 bytes @ 0x9
  1375  0029                     	ds	1
  1376  002A                     ___xxtofl@arg:
  1377                           
  1378                           ; 4 bytes @ 0xA
  1379  002A                     	ds	1
  1380  002B                     ??_BTD_DECIMAL:
  1381  002B                     BTD_DECIMAL@temporal1:	
  1382                           ; 1 bytes @ 0xB
  1383                           
  1384  002B                     BTD_UNIDAD@salida2:	
  1385                           ; 2 bytes @ 0xB
  1386                           
  1387                           
  1388                           ; 2 bytes @ 0xB
  1389  002B                     	ds	2
  1390  002D                     BTD_DECIMAL@salida1:
  1391                           
  1392                           ; 2 bytes @ 0xD
  1393  002D                     	ds	1
  1394  002E                     ?___flmul:
  1395  002E                     ___flmul@b:	
  1396                           ; 4 bytes @ 0xE
  1397                           
  1398                           
  1399                           ; 4 bytes @ 0xE
  1400  002E                     	ds	1
  1401  002F                     ?_int_string:
  1402  002F                     int_string@valor:	
  1403                           ; 2 bytes @ 0xF
  1404                           
  1405                           
  1406                           ; 2 bytes @ 0xF
  1407  002F                     	ds	2
  1408  0031                     ??_int_string:
  1409                           
  1410                           ; 1 bytes @ 0x11
  1411  0031                     	ds	1
  1412  0032                     ___flmul@a:
  1413                           
  1414                           ; 4 bytes @ 0x12
  1415  0032                     	ds	4
  1416  0036                     ??___flmul:
  1417                           
  1418                           ; 1 bytes @ 0x16
  1419  0036                     	ds	5
  1420  003B                     ___flmul@sign:
  1421                           
  1422                           ; 1 bytes @ 0x1B
  1423  003B                     	ds	1
  1424  003C                     ___flmul@aexp:
  1425                           
  1426                           ; 1 bytes @ 0x1C
  1427  003C                     	ds	1
  1428  003D                     ___flmul@grs:
  1429                           
  1430                           ; 4 bytes @ 0x1D
  1431  003D                     	ds	4
  1432  0041                     ___flmul@bexp:
  1433                           
  1434                           ; 1 bytes @ 0x21
  1435  0041                     	ds	1
  1436  0042                     ___flmul@prod:
  1437                           
  1438                           ; 4 bytes @ 0x22
  1439  0042                     	ds	4
  1440  0046                     ___flmul@temp:
  1441                           
  1442                           ; 2 bytes @ 0x26
  1443  0046                     	ds	2
  1444  0048                     ?___fltol:
  1445  0048                     ___fltol@f1:	
  1446                           ; 4 bytes @ 0x28
  1447                           
  1448                           
  1449                           ; 4 bytes @ 0x28
  1450  0048                     	ds	4
  1451  004C                     ??___fltol:
  1452                           
  1453                           ; 1 bytes @ 0x2C
  1454  004C                     	ds	5
  1455  0051                     ___fltol@sign1:
  1456                           
  1457                           ; 1 bytes @ 0x31
  1458  0051                     	ds	1
  1459  0052                     ___fltol@exp1:
  1460                           
  1461                           ; 1 bytes @ 0x32
  1462  0052                     	ds	1
  1463  0053                     ??_main:
  1464                           
  1465                           ; 1 bytes @ 0x33
  1466  0053                     	ds	5
  1467                           
  1468                           	psect	maintext
  1469  0391                     __pmaintext:	
  1470 ;;
  1471 ;;Main: autosize = 0, tempsize = 5, incstack = 0, save=0
  1472 ;;
  1473 ;; *************** function _main *****************
  1474 ;; Defined at:
  1475 ;;		line 98 in file "main.c"
  1476 ;; Parameters:    Size  Location     Type
  1477 ;;		None
  1478 ;; Auto vars:     Size  Location     Type
  1479 ;;		None
  1480 ;; Return value:  Size  Location     Type
  1481 ;;                  1    wreg      void 
  1482 ;; Registers used:
  1483 ;;		wreg, fsr0l, fsr0h, status,2, status,0, btemp+1, pclath, cstack
  1484 ;; Tracked objects:
  1485 ;;		On entry : B00/0
  1486 ;;		On exit  : 0/0
  1487 ;;		Unchanged: 0/0
  1488 ;; Data sizes:     COMMON   BANK0   BANK1   BANK3   BANK2
  1489 ;;      Params:         0       0       0       0       0
  1490 ;;      Locals:         0       0       0       0       0
  1491 ;;      Temps:          0       5       0       0       0
  1492 ;;      Totals:         0       5       0       0       0
  1493 ;;Total ram usage:        5 bytes
  1494 ;; Hardware stack levels required when called:    5
  1495 ;; This function calls:
  1496 ;;		_BTD_DECIMAL
  1497 ;;		_BTD_UNIDAD
  1498 ;;		___bmul
  1499 ;;		___flmul
  1500 ;;		___fltol
  1501 ;;		___xxtofl
  1502 ;;		_enviar_letra
  1503 ;;		_int_string
  1504 ;;		_print
  1505 ;;		_setup
  1506 ;;		_string_int
  1507 ;; This function is called by:
  1508 ;;		Startup code after reset
  1509 ;; This function uses a non-reentrant model
  1510 ;;
  1511                           
  1512                           
  1513                           ;psect for function _main
  1514  0391                     _main:
  1515  0391                     l3041:	
  1516                           ;incstack = 0
  1517                           ; Regs used in _main: [wreg-fsr0h+status,2+status,0+btemp+1+pclath+cstack]
  1518                           
  1519                           
  1520                           ;main.c: 100: setup();
  1521  0391  120A  158A  26FF  120A  118A  	fcall	_setup
  1522  0396                     l3043:
  1523                           
  1524                           ;main.c: 101: bandera_SPI = 1;
  1525  0396  01F3               	clrf	_bandera_SPI
  1526  0397  0AF3               	incf	_bandera_SPI,f
  1527  0398                     l3045:
  1528                           
  1529                           ;main.c: 102: bandera_recibido = 1;
  1530  0398  1283               	bcf	3,5	;RP0=0, select bank0
  1531  0399  1303               	bcf	3,6	;RP1=0, select bank0
  1532  039A  01DB               	clrf	_bandera_recibido
  1533  039B  0ADB               	incf	_bandera_recibido,f
  1534  039C                     l3047:
  1535                           
  1536                           ;main.c: 103: PORTCbits.RC2 = 0;
  1537  039C  1107               	bcf	7,2	;volatile
  1538  039D                     l3049:
  1539                           
  1540                           ;main.c: 105: {;main.c: 106:     contador = 0;
  1541  039D  01F0               	clrf	_contador
  1542  039E                     l3051:
  1543                           
  1544                           ;main.c: 107:     temporal = string_int(recibido1) *100;
  1545  039E  3064               	movlw	100
  1546  039F  1283               	bcf	3,5	;RP0=0, select bank0
  1547  03A0  1303               	bcf	3,6	;RP1=0, select bank0
  1548  03A1  00D3               	movwf	??_main
  1549  03A2  0853               	movf	??_main,w
  1550  03A3  00A2               	movwf	___bmul@multiplicand
  1551  03A4  085A               	movf	_recibido1,w
  1552  03A5  00D4               	movwf	??_main+1
  1553  03A6  01D5               	clrf	??_main+2
  1554  03A7  0854               	movf	??_main+1,w
  1555  03A8  00A0               	movwf	string_int@valor
  1556  03A9  0855               	movf	??_main+2,w
  1557  03AA  00A1               	movwf	string_int@valor+1
  1558  03AB  120A  158A  274C  120A  118A  	fcall	_string_int
  1559  03B0  1283               	bcf	3,5	;RP0=0, select bank0
  1560  03B1  1303               	bcf	3,6	;RP1=0, select bank0
  1561  03B2  0820               	movf	?_string_int,w
  1562  03B3  120A  158A  2626  120A  118A  	fcall	___bmul
  1563  03B8  1283               	bcf	3,5	;RP0=0, select bank0
  1564  03B9  1303               	bcf	3,6	;RP1=0, select bank0
  1565  03BA  00D6               	movwf	??_main+3
  1566  03BB  0856               	movf	??_main+3,w
  1567  03BC  00F1               	movwf	_temporal
  1568  03BD                     l3053:
  1569                           
  1570                           ;main.c: 108:     contador = contador + temporal;
  1571  03BD  0871               	movf	_temporal,w
  1572  03BE  0770               	addwf	_contador,w
  1573  03BF  00D3               	movwf	??_main
  1574  03C0  0853               	movf	??_main,w
  1575  03C1  00F0               	movwf	_contador
  1576  03C2                     l3055:
  1577                           
  1578                           ;main.c: 109:     temporal = string_int(recibido2) * 10;
  1579  03C2  300A               	movlw	10
  1580  03C3  00D3               	movwf	??_main
  1581  03C4  0853               	movf	??_main,w
  1582  03C5  00A2               	movwf	___bmul@multiplicand
  1583  03C6  0859               	movf	_recibido2,w
  1584  03C7  00D4               	movwf	??_main+1
  1585  03C8  01D5               	clrf	??_main+2
  1586  03C9  0854               	movf	??_main+1,w
  1587  03CA  00A0               	movwf	string_int@valor
  1588  03CB  0855               	movf	??_main+2,w
  1589  03CC  00A1               	movwf	string_int@valor+1
  1590  03CD  120A  158A  274C  120A  118A  	fcall	_string_int
  1591  03D2  1283               	bcf	3,5	;RP0=0, select bank0
  1592  03D3  1303               	bcf	3,6	;RP1=0, select bank0
  1593  03D4  0820               	movf	?_string_int,w
  1594  03D5  120A  158A  2626  120A  118A  	fcall	___bmul
  1595  03DA  1283               	bcf	3,5	;RP0=0, select bank0
  1596  03DB  1303               	bcf	3,6	;RP1=0, select bank0
  1597  03DC  00D6               	movwf	??_main+3
  1598  03DD  0856               	movf	??_main+3,w
  1599  03DE  00F1               	movwf	_temporal
  1600  03DF                     l3057:
  1601                           
  1602                           ;main.c: 110:     contador = contador + temporal;
  1603  03DF  0871               	movf	_temporal,w
  1604  03E0  0770               	addwf	_contador,w
  1605  03E1  00D3               	movwf	??_main
  1606  03E2  0853               	movf	??_main,w
  1607  03E3  00F0               	movwf	_contador
  1608  03E4                     l3059:
  1609                           
  1610                           ;main.c: 111:     temporal = string_int(recibido3);
  1611  03E4  0858               	movf	_recibido3,w
  1612  03E5  00D3               	movwf	??_main
  1613  03E6  01D4               	clrf	??_main+1
  1614  03E7  0853               	movf	??_main,w
  1615  03E8  00A0               	movwf	string_int@valor
  1616  03E9  0854               	movf	??_main+1,w
  1617  03EA  00A1               	movwf	string_int@valor+1
  1618  03EB  120A  158A  274C  120A  118A  	fcall	_string_int
  1619  03F0  1283               	bcf	3,5	;RP0=0, select bank0
  1620  03F1  1303               	bcf	3,6	;RP1=0, select bank0
  1621  03F2  0820               	movf	?_string_int,w
  1622  03F3  00D5               	movwf	??_main+2
  1623  03F4  0855               	movf	??_main+2,w
  1624  03F5  00F1               	movwf	_temporal
  1625  03F6                     l3061:
  1626                           
  1627                           ;main.c: 112:     contador = contador + temporal;
  1628  03F6  0871               	movf	_temporal,w
  1629  03F7  0770               	addwf	_contador,w
  1630  03F8  00D3               	movwf	??_main
  1631  03F9  0853               	movf	??_main,w
  1632  03FA  00F0               	movwf	_contador
  1633  03FB                     l3063:
  1634                           
  1635                           ;main.c: 113:     PORTB = contador;
  1636  03FB  0870               	movf	_contador,w
  1637  03FC  0086               	movwf	6	;volatile
  1638  03FD                     l3065:
  1639                           
  1640                           ;main.c: 116: dato1 = pot1*0.196;
  1641  03FD  085E               	movf	_pot1,w
  1642  03FE  00D3               	movwf	??_main
  1643  03FF  01D4               	clrf	??_main+1
  1644  0400  01D5               	clrf	??_main+2
  1645  0401  01D6               	clrf	??_main+3
  1646  0402  0856               	movf	??_main+3,w
  1647  0403  00A3               	movwf	___xxtofl@val+3
  1648  0404  0855               	movf	??_main+2,w
  1649  0405  00A2               	movwf	___xxtofl@val+2
  1650  0406  0854               	movf	??_main+1,w
  1651  0407  00A1               	movwf	___xxtofl@val+1
  1652  0408  0853               	movf	??_main,w
  1653  0409  00A0               	movwf	___xxtofl@val
  1654  040A  3001               	movlw	1
  1655  040B  120A  118A  2533  120A  118A  	fcall	___xxtofl
  1656  0410  1283               	bcf	3,5	;RP0=0, select bank0
  1657  0411  1303               	bcf	3,6	;RP1=0, select bank0
  1658  0412  0823               	movf	?___xxtofl+3,w
  1659  0413  00B5               	movwf	___flmul@a+3
  1660  0414  0822               	movf	?___xxtofl+2,w
  1661  0415  00B4               	movwf	___flmul@a+2
  1662  0416  0821               	movf	?___xxtofl+1,w
  1663  0417  00B3               	movwf	___flmul@a+1
  1664  0418  0820               	movf	?___xxtofl,w
  1665  0419  00B2               	movwf	___flmul@a
  1666  041A  303E               	movlw	62
  1667  041B  00B1               	movwf	___flmul@b+3
  1668  041C  3048               	movlw	72
  1669  041D  00B0               	movwf	___flmul@b+2
  1670  041E  30B4               	movlw	180
  1671  041F  00AF               	movwf	___flmul@b+1
  1672  0420  3039               	movlw	57
  1673  0421  00AE               	movwf	___flmul@b
  1674  0422  120A  118A  2030  120A  118A  	fcall	___flmul
  1675  0427  1283               	bcf	3,5	;RP0=0, select bank0
  1676  0428  1303               	bcf	3,6	;RP1=0, select bank0
  1677  0429  0831               	movf	?___flmul+3,w
  1678  042A  00CB               	movwf	___fltol@f1+3
  1679  042B  0830               	movf	?___flmul+2,w
  1680  042C  00CA               	movwf	___fltol@f1+2
  1681  042D  082F               	movf	?___flmul+1,w
  1682  042E  00C9               	movwf	___fltol@f1+1
  1683  042F  082E               	movf	?___flmul,w
  1684  0430  00C8               	movwf	___fltol@f1
  1685  0431  120A  118A  2679  120A  118A  	fcall	___fltol
  1686  0436  1283               	bcf	3,5	;RP0=0, select bank0
  1687  0437  1303               	bcf	3,6	;RP1=0, select bank0
  1688  0438  0848               	movf	?___fltol,w
  1689  0439  00D7               	movwf	??_main+4
  1690  043A  0857               	movf	??_main+4,w
  1691  043B  00F2               	movwf	_dato1
  1692  043C                     l3067:
  1693                           
  1694                           ;main.c: 117: dato2 = pot2*0.196;
  1695  043C  085D               	movf	_pot2,w
  1696  043D  00D3               	movwf	??_main
  1697  043E  01D4               	clrf	??_main+1
  1698  043F  01D5               	clrf	??_main+2
  1699  0440  01D6               	clrf	??_main+3
  1700  0441  0856               	movf	??_main+3,w
  1701  0442  00A3               	movwf	___xxtofl@val+3
  1702  0443  0855               	movf	??_main+2,w
  1703  0444  00A2               	movwf	___xxtofl@val+2
  1704  0445  0854               	movf	??_main+1,w
  1705  0446  00A1               	movwf	___xxtofl@val+1
  1706  0447  0853               	movf	??_main,w
  1707  0448  00A0               	movwf	___xxtofl@val
  1708  0449  3001               	movlw	1
  1709  044A  120A  118A  2533  120A  118A  	fcall	___xxtofl
  1710  044F  1283               	bcf	3,5	;RP0=0, select bank0
  1711  0450  1303               	bcf	3,6	;RP1=0, select bank0
  1712  0451  0823               	movf	?___xxtofl+3,w
  1713  0452  00B5               	movwf	___flmul@a+3
  1714  0453  0822               	movf	?___xxtofl+2,w
  1715  0454  00B4               	movwf	___flmul@a+2
  1716  0455  0821               	movf	?___xxtofl+1,w
  1717  0456  00B3               	movwf	___flmul@a+1
  1718  0457  0820               	movf	?___xxtofl,w
  1719  0458  00B2               	movwf	___flmul@a
  1720  0459  303E               	movlw	62
  1721  045A  00B1               	movwf	___flmul@b+3
  1722  045B  3048               	movlw	72
  1723  045C  00B0               	movwf	___flmul@b+2
  1724  045D  30B4               	movlw	180
  1725  045E  00AF               	movwf	___flmul@b+1
  1726  045F  3039               	movlw	57
  1727  0460  00AE               	movwf	___flmul@b
  1728  0461  120A  118A  2030  120A  118A  	fcall	___flmul
  1729  0466  1283               	bcf	3,5	;RP0=0, select bank0
  1730  0467  1303               	bcf	3,6	;RP1=0, select bank0
  1731  0468  0831               	movf	?___flmul+3,w
  1732  0469  00CB               	movwf	___fltol@f1+3
  1733  046A  0830               	movf	?___flmul+2,w
  1734  046B  00CA               	movwf	___fltol@f1+2
  1735  046C  082F               	movf	?___flmul+1,w
  1736  046D  00C9               	movwf	___fltol@f1+1
  1737  046E  082E               	movf	?___flmul,w
  1738  046F  00C8               	movwf	___fltol@f1
  1739  0470  120A  118A  2679  120A  118A  	fcall	___fltol
  1740  0475  1283               	bcf	3,5	;RP0=0, select bank0
  1741  0476  1303               	bcf	3,6	;RP1=0, select bank0
  1742  0477  0848               	movf	?___fltol,w
  1743  0478  00D7               	movwf	??_main+4
  1744  0479  0857               	movf	??_main+4,w
  1745  047A  00DC               	movwf	_dato2
  1746  047B                     l3069:
  1747                           
  1748                           ;main.c: 119:     if (mandar_datos){
  1749  047B  0874               	movf	_mandar_datos,w
  1750  047C  1903               	btfsc	3,2
  1751  047D  2C7F               	goto	u2801
  1752  047E  2C80               	goto	u2800
  1753  047F                     u2801:
  1754  047F  2B9D               	goto	l3049
  1755  0480                     u2800:
  1756  0480                     l3071:
  1757                           
  1758                           ;main.c: 120:        enviar_letra('[');
  1759  0480  305B               	movlw	91
  1760  0481  120A  158A  261C  120A  118A  	fcall	_enviar_letra
  1761  0486                     l3073:
  1762                           
  1763                           ;main.c: 121:        enviar_letra(int_string(BTD_DECIMAL(dato1)));
  1764  0486  0872               	movf	_dato1,w
  1765  0487  1283               	bcf	3,5	;RP0=0, select bank0
  1766  0488  1303               	bcf	3,6	;RP1=0, select bank0
  1767  0489  00D3               	movwf	??_main
  1768  048A  01D4               	clrf	??_main+1
  1769  048B  0853               	movf	??_main,w
  1770  048C  00A9               	movwf	BTD_DECIMAL@valor1
  1771  048D  0854               	movf	??_main+1,w
  1772  048E  00AA               	movwf	BTD_DECIMAL@valor1+1
  1773  048F  120A  158A  26A5  120A  118A  	fcall	_BTD_DECIMAL
  1774  0494  1283               	bcf	3,5	;RP0=0, select bank0
  1775  0495  1303               	bcf	3,6	;RP1=0, select bank0
  1776  0496  082A               	movf	?_BTD_DECIMAL+1,w
  1777  0497  00B0               	movwf	int_string@valor+1
  1778  0498  0829               	movf	?_BTD_DECIMAL,w
  1779  0499  00AF               	movwf	int_string@valor
  1780  049A  120A  118A  275E  120A  118A  	fcall	_int_string
  1781  049F  1283               	bcf	3,5	;RP0=0, select bank0
  1782  04A0  1303               	bcf	3,6	;RP1=0, select bank0
  1783  04A1  082F               	movf	?_int_string,w
  1784  04A2  120A  158A  261C  120A  118A  	fcall	_enviar_letra
  1785  04A7                     l3075:
  1786                           
  1787                           ;main.c: 122:        enviar_letra('.');
  1788  04A7  302E               	movlw	46
  1789  04A8  120A  158A  261C  120A  118A  	fcall	_enviar_letra
  1790                           
  1791                           ;main.c: 123:        enviar_letra(int_string(BTD_UNIDAD(dato1)));
  1792  04AD  0872               	movf	_dato1,w
  1793  04AE  1283               	bcf	3,5	;RP0=0, select bank0
  1794  04AF  1303               	bcf	3,6	;RP1=0, select bank0
  1795  04B0  00D3               	movwf	??_main
  1796  04B1  01D4               	clrf	??_main+1
  1797  04B2  0853               	movf	??_main,w
  1798  04B3  00A7               	movwf	BTD_UNIDAD@valor2
  1799  04B4  0854               	movf	??_main+1,w
  1800  04B5  00A8               	movwf	BTD_UNIDAD@valor2+1
  1801  04B6  120A  158A  26D2  120A  118A  	fcall	_BTD_UNIDAD
  1802  04BB  1283               	bcf	3,5	;RP0=0, select bank0
  1803  04BC  1303               	bcf	3,6	;RP1=0, select bank0
  1804  04BD  0828               	movf	?_BTD_UNIDAD+1,w
  1805  04BE  00B0               	movwf	int_string@valor+1
  1806  04BF  0827               	movf	?_BTD_UNIDAD,w
  1807  04C0  00AF               	movwf	int_string@valor
  1808  04C1  120A  118A  275E  120A  118A  	fcall	_int_string
  1809  04C6  1283               	bcf	3,5	;RP0=0, select bank0
  1810  04C7  1303               	bcf	3,6	;RP1=0, select bank0
  1811  04C8  082F               	movf	?_int_string,w
  1812  04C9  120A  158A  261C  120A  118A  	fcall	_enviar_letra
  1813  04CE                     l3077:
  1814                           
  1815                           ;main.c: 124:        enviar_letra(',');
  1816  04CE  302C               	movlw	44
  1817  04CF  120A  158A  261C  120A  118A  	fcall	_enviar_letra
  1818  04D4                     l3079:
  1819                           
  1820                           ;main.c: 125:        enviar_letra(int_string(BTD_DECIMAL(dato2)));
  1821  04D4  1283               	bcf	3,5	;RP0=0, select bank0
  1822  04D5  1303               	bcf	3,6	;RP1=0, select bank0
  1823  04D6  085C               	movf	_dato2,w
  1824  04D7  00D3               	movwf	??_main
  1825  04D8  01D4               	clrf	??_main+1
  1826  04D9  0853               	movf	??_main,w
  1827  04DA  00A9               	movwf	BTD_DECIMAL@valor1
  1828  04DB  0854               	movf	??_main+1,w
  1829  04DC  00AA               	movwf	BTD_DECIMAL@valor1+1
  1830  04DD  120A  158A  26A5  120A  118A  	fcall	_BTD_DECIMAL
  1831  04E2  1283               	bcf	3,5	;RP0=0, select bank0
  1832  04E3  1303               	bcf	3,6	;RP1=0, select bank0
  1833  04E4  082A               	movf	?_BTD_DECIMAL+1,w
  1834  04E5  00B0               	movwf	int_string@valor+1
  1835  04E6  0829               	movf	?_BTD_DECIMAL,w
  1836  04E7  00AF               	movwf	int_string@valor
  1837  04E8  120A  118A  275E  120A  118A  	fcall	_int_string
  1838  04ED  1283               	bcf	3,5	;RP0=0, select bank0
  1839  04EE  1303               	bcf	3,6	;RP1=0, select bank0
  1840  04EF  082F               	movf	?_int_string,w
  1841  04F0  120A  158A  261C  120A  118A  	fcall	_enviar_letra
  1842                           
  1843                           ;main.c: 126:        enviar_letra('.');
  1844  04F5  302E               	movlw	46
  1845  04F6  120A  158A  261C  120A  118A  	fcall	_enviar_letra
  1846  04FB                     l3081:
  1847                           
  1848                           ;main.c: 127:        enviar_letra(int_string(BTD_UNIDAD(dato2)));
  1849  04FB  1283               	bcf	3,5	;RP0=0, select bank0
  1850  04FC  1303               	bcf	3,6	;RP1=0, select bank0
  1851  04FD  085C               	movf	_dato2,w
  1852  04FE  00D3               	movwf	??_main
  1853  04FF  01D4               	clrf	??_main+1
  1854  0500  0853               	movf	??_main,w
  1855  0501  00A7               	movwf	BTD_UNIDAD@valor2
  1856  0502  0854               	movf	??_main+1,w
  1857  0503  00A8               	movwf	BTD_UNIDAD@valor2+1
  1858  0504  120A  158A  26D2  120A  118A  	fcall	_BTD_UNIDAD
  1859  0509  1283               	bcf	3,5	;RP0=0, select bank0
  1860  050A  1303               	bcf	3,6	;RP1=0, select bank0
  1861  050B  0828               	movf	?_BTD_UNIDAD+1,w
  1862  050C  00B0               	movwf	int_string@valor+1
  1863  050D  0827               	movf	?_BTD_UNIDAD,w
  1864  050E  00AF               	movwf	int_string@valor
  1865  050F  120A  118A  275E  120A  118A  	fcall	_int_string
  1866  0514  1283               	bcf	3,5	;RP0=0, select bank0
  1867  0515  1303               	bcf	3,6	;RP1=0, select bank0
  1868  0516  082F               	movf	?_int_string,w
  1869  0517  120A  158A  261C  120A  118A  	fcall	_enviar_letra
  1870  051C                     l3083:
  1871                           
  1872                           ;main.c: 128:        enviar_letra(']');
  1873  051C  305D               	movlw	93
  1874  051D  120A  158A  261C  120A  118A  	fcall	_enviar_letra
  1875                           
  1876                           ;main.c: 129:        print("\r");
  1877  0522  3003               	movlw	(low ((STR_1-__stringbase)| (0+32768)))& (0+255)
  1878  0523  120A  158A  265B  120A  118A  	fcall	_print
  1879                           
  1880                           ;main.c: 130:        print("\n");
  1881  0528  3001               	movlw	(low ((STR_2-__stringbase)| (0+32768)))& (0+255)
  1882  0529  120A  158A  265B  120A  118A  	fcall	_print
  1883  052E                     l3085:
  1884                           
  1885                           ;main.c: 131:        mandar_datos = 0;
  1886  052E  01F4               	clrf	_mandar_datos
  1887  052F  2B9D               	goto	l3049
  1888  0530  120A  118A  280E   	ljmp	start
  1889  0533                     __end_of_main:
  1890                           
  1891                           	psect	text1
  1892  0F4C                     __ptext1:	
  1893 ;; *************** function _string_int *****************
  1894 ;; Defined at:
  1895 ;;		line 55 in file "PRINT_SERIAL.c"
  1896 ;; Parameters:    Size  Location     Type
  1897 ;;  valor           2    0[BANK0 ] int 
  1898 ;; Auto vars:     Size  Location     Type
  1899 ;;		None
  1900 ;; Return value:  Size  Location     Type
  1901 ;;                  2    0[BANK0 ] int 
  1902 ;; Registers used:
  1903 ;;		wreg, fsr0l, fsr0h, status,2, status,0
  1904 ;; Tracked objects:
  1905 ;;		On entry : 0/0
  1906 ;;		On exit  : 0/0
  1907 ;;		Unchanged: 0/0
  1908 ;; Data sizes:     COMMON   BANK0   BANK1   BANK3   BANK2
  1909 ;;      Params:         0       2       0       0       0
  1910 ;;      Locals:         0       0       0       0       0
  1911 ;;      Temps:          0       0       0       0       0
  1912 ;;      Totals:         0       2       0       0       0
  1913 ;;Total ram usage:        2 bytes
  1914 ;; Hardware stack levels used:    1
  1915 ;; Hardware stack levels required when called:    3
  1916 ;; This function calls:
  1917 ;;		Nothing
  1918 ;; This function is called by:
  1919 ;;		_main
  1920 ;; This function uses a non-reentrant model
  1921 ;;
  1922                           
  1923                           
  1924                           ;psect for function _string_int
  1925  0F4C                     _string_int:
  1926  0F4C                     l2737:	
  1927                           ;incstack = 0
  1928                           ; Regs used in _string_int: [wreg-fsr0h+status,2+status,0]
  1929                           
  1930                           
  1931                           ;PRINT_SERIAL.c: 57:     switch (valor){
  1932  0F4C  2F7D               	goto	l2801
  1933  0F4D                     l2739:
  1934  0F4D  01A0               	clrf	?_string_int
  1935  0F4E  01A1               	clrf	?_string_int+1
  1936  0F4F  2FA4               	goto	l347
  1937  0F50                     l2745:
  1938  0F50  3001               	movlw	1
  1939  0F51  00A0               	movwf	?_string_int
  1940  0F52  3000               	movlw	0
  1941  0F53  00A1               	movwf	?_string_int+1
  1942  0F54  2FA4               	goto	l347
  1943  0F55                     l2751:
  1944  0F55  3002               	movlw	2
  1945  0F56  00A0               	movwf	?_string_int
  1946  0F57  3000               	movlw	0
  1947  0F58  00A1               	movwf	?_string_int+1
  1948  0F59  2FA4               	goto	l347
  1949  0F5A                     l2757:
  1950  0F5A  3003               	movlw	3
  1951  0F5B  00A0               	movwf	?_string_int
  1952  0F5C  3000               	movlw	0
  1953  0F5D  00A1               	movwf	?_string_int+1
  1954  0F5E  2FA4               	goto	l347
  1955  0F5F                     l2763:
  1956  0F5F  3004               	movlw	4
  1957  0F60  00A0               	movwf	?_string_int
  1958  0F61  3000               	movlw	0
  1959  0F62  00A1               	movwf	?_string_int+1
  1960  0F63  2FA4               	goto	l347
  1961  0F64                     l2769:
  1962  0F64  3005               	movlw	5
  1963  0F65  00A0               	movwf	?_string_int
  1964  0F66  3000               	movlw	0
  1965  0F67  00A1               	movwf	?_string_int+1
  1966  0F68  2FA4               	goto	l347
  1967  0F69                     l2775:
  1968  0F69  3006               	movlw	6
  1969  0F6A  00A0               	movwf	?_string_int
  1970  0F6B  3000               	movlw	0
  1971  0F6C  00A1               	movwf	?_string_int+1
  1972  0F6D  2FA4               	goto	l347
  1973  0F6E                     l2781:
  1974  0F6E  3007               	movlw	7
  1975  0F6F  00A0               	movwf	?_string_int
  1976  0F70  3000               	movlw	0
  1977  0F71  00A1               	movwf	?_string_int+1
  1978  0F72  2FA4               	goto	l347
  1979  0F73                     l2787:
  1980  0F73  3008               	movlw	8
  1981  0F74  00A0               	movwf	?_string_int
  1982  0F75  3000               	movlw	0
  1983  0F76  00A1               	movwf	?_string_int+1
  1984  0F77  2FA4               	goto	l347
  1985  0F78                     l2793:
  1986  0F78  3009               	movlw	9
  1987  0F79  00A0               	movwf	?_string_int
  1988  0F7A  3000               	movlw	0
  1989  0F7B  00A1               	movwf	?_string_int+1
  1990  0F7C  2FA4               	goto	l347
  1991  0F7D                     l2801:
  1992                           
  1993                           ; Switch on 2 bytes has been partitioned into a top level switch of size 1, and 1 sub-sw
      +                          itches
  1994                           ; Switch size 1, requested type "simple"
  1995                           ; Number of cases is 1, Range of values is 0 to 0
  1996                           ; switch strategies available:
  1997                           ; Name         Instructions Cycles
  1998                           ; simple_byte            4     3 (average)
  1999                           ; direct_byte           11     8 (fixed)
  2000                           ; jumptable            260     6 (fixed)
  2001                           ;	Chosen strategy is simple_byte
  2002  0F7D  1283               	bcf	3,5	;RP0=0, select bank0
  2003  0F7E  1303               	bcf	3,6	;RP1=0, select bank0
  2004  0F7F  0821               	movf	string_int@valor+1,w
  2005  0F80  3A00               	xorlw	0	; case 0
  2006  0F81  1903               	skipnz
  2007  0F82  2F84               	goto	l3161
  2008  0F83  2FA4               	goto	l347
  2009  0F84                     l3161:
  2010                           
  2011                           ; Switch size 1, requested type "simple"
  2012                           ; Number of cases is 10, Range of values is 48 to 57
  2013                           ; switch strategies available:
  2014                           ; Name         Instructions Cycles
  2015                           ; simple_byte           31    16 (average)
  2016                           ; direct_byte           41    11 (fixed)
  2017                           ; jumptable            263     9 (fixed)
  2018                           ;	Chosen strategy is simple_byte
  2019  0F84  0820               	movf	string_int@valor,w
  2020  0F85  3A30               	xorlw	48	; case 48
  2021  0F86  1903               	skipnz
  2022  0F87  2F4D               	goto	l2739
  2023  0F88  3A01               	xorlw	1	; case 49
  2024  0F89  1903               	skipnz
  2025  0F8A  2F50               	goto	l2745
  2026  0F8B  3A03               	xorlw	3	; case 50
  2027  0F8C  1903               	skipnz
  2028  0F8D  2F55               	goto	l2751
  2029  0F8E  3A01               	xorlw	1	; case 51
  2030  0F8F  1903               	skipnz
  2031  0F90  2F5A               	goto	l2757
  2032  0F91  3A07               	xorlw	7	; case 52
  2033  0F92  1903               	skipnz
  2034  0F93  2F5F               	goto	l2763
  2035  0F94  3A01               	xorlw	1	; case 53
  2036  0F95  1903               	skipnz
  2037  0F96  2F64               	goto	l2769
  2038  0F97  3A03               	xorlw	3	; case 54
  2039  0F98  1903               	skipnz
  2040  0F99  2F69               	goto	l2775
  2041  0F9A  3A01               	xorlw	1	; case 55
  2042  0F9B  1903               	skipnz
  2043  0F9C  2F6E               	goto	l2781
  2044  0F9D  3A0F               	xorlw	15	; case 56
  2045  0F9E  1903               	skipnz
  2046  0F9F  2F73               	goto	l2787
  2047  0FA0  3A01               	xorlw	1	; case 57
  2048  0FA1  1903               	skipnz
  2049  0FA2  2F78               	goto	l2793
  2050  0FA3  2FA4               	goto	l347
  2051  0FA4                     l347:
  2052  0FA4  0008               	return
  2053  0FA5                     __end_of_string_int:
  2054                           
  2055                           	psect	text2
  2056  0EFF                     __ptext2:	
  2057 ;; *************** function _setup *****************
  2058 ;; Defined at:
  2059 ;;		line 136 in file "main.c"
  2060 ;; Parameters:    Size  Location     Type
  2061 ;;		None
  2062 ;; Auto vars:     Size  Location     Type
  2063 ;;		None
  2064 ;; Return value:  Size  Location     Type
  2065 ;;                  1    wreg      void 
  2066 ;; Registers used:
  2067 ;;		wreg, status,2, status,0, pclath, cstack
  2068 ;; Tracked objects:
  2069 ;;		On entry : 0/0
  2070 ;;		On exit  : 0/0
  2071 ;;		Unchanged: 0/0
  2072 ;; Data sizes:     COMMON   BANK0   BANK1   BANK3   BANK2
  2073 ;;      Params:         0       0       0       0       0
  2074 ;;      Locals:         0       0       0       0       0
  2075 ;;      Temps:          0       0       0       0       0
  2076 ;;      Totals:         0       0       0       0       0
  2077 ;;Total ram usage:        0 bytes
  2078 ;; Hardware stack levels used:    1
  2079 ;; Hardware stack levels required when called:    4
  2080 ;; This function calls:
  2081 ;;		_spiInit
  2082 ;; This function is called by:
  2083 ;;		_main
  2084 ;; This function uses a non-reentrant model
  2085 ;;
  2086                           
  2087                           
  2088                           ;psect for function _setup
  2089  0EFF                     _setup:
  2090  0EFF                     l2675:	
  2091                           ;incstack = 0
  2092                           ; Regs used in _setup: [wreg+status,2+status,0+pclath+cstack]
  2093                           
  2094                           
  2095                           ;main.c: 139:     OSCCONbits.SCS = 1;
  2096  0EFF  1683               	bsf	3,5	;RP0=1, select bank1
  2097  0F00  1303               	bcf	3,6	;RP1=0, select bank1
  2098  0F01  140F               	bsf	15,0	;volatile
  2099                           
  2100                           ;main.c: 140:     OSCCONbits.IRCF2 = 1;
  2101  0F02  170F               	bsf	15,6	;volatile
  2102                           
  2103                           ;main.c: 141:     OSCCONbits.IRCF1 = 0;
  2104  0F03  128F               	bcf	15,5	;volatile
  2105                           
  2106                           ;main.c: 142:     OSCCONbits.IRCF0 = 0;
  2107  0F04  120F               	bcf	15,4	;volatile
  2108  0F05                     l2677:
  2109                           
  2110                           ;main.c: 145:     PORTB = 0X00;
  2111  0F05  1283               	bcf	3,5	;RP0=0, select bank0
  2112  0F06  1303               	bcf	3,6	;RP1=0, select bank0
  2113  0F07  0186               	clrf	6	;volatile
  2114                           
  2115                           ;main.c: 146:     ANSEL = 0X00;
  2116  0F08  1683               	bsf	3,5	;RP0=1, select bank3
  2117  0F09  1703               	bsf	3,6	;RP1=1, select bank3
  2118  0F0A  0188               	clrf	8	;volatile
  2119                           
  2120                           ;main.c: 147:     ANSELH = 0X00;
  2121  0F0B  0189               	clrf	9	;volatile
  2122                           
  2123                           ;main.c: 148:     TRISB = 0X00;
  2124  0F0C  1683               	bsf	3,5	;RP0=1, select bank1
  2125  0F0D  1303               	bcf	3,6	;RP1=0, select bank1
  2126  0F0E  0186               	clrf	6	;volatile
  2127  0F0F                     l2679:
  2128                           
  2129                           ;main.c: 149:     TRISC2 = 0;
  2130  0F0F  1107               	bcf	7,2	;volatile
  2131  0F10                     l2681:
  2132                           
  2133                           ;main.c: 151:     INTCONbits.GIE = 1;
  2134  0F10  178B               	bsf	11,7	;volatile
  2135  0F11                     l2683:
  2136                           
  2137                           ;main.c: 152:     INTCONbits.PEIE= 1;
  2138  0F11  170B               	bsf	11,6	;volatile
  2139  0F12                     l2685:
  2140                           
  2141                           ;main.c: 153:     PIE1bits.ADIE = 1;
  2142  0F12  170C               	bsf	12,6	;volatile
  2143                           
  2144                           ;main.c: 157:     SPBRGH = 0;
  2145  0F13  019A               	clrf	26	;volatile
  2146  0F14                     l2687:
  2147                           
  2148                           ;main.c: 158:     SPBRG = 25;
  2149  0F14  3019               	movlw	25
  2150  0F15  0099               	movwf	25	;volatile
  2151  0F16                     l2689:
  2152                           
  2153                           ;main.c: 159:     BRGH = 1;
  2154  0F16  1518               	bsf	24,2	;volatile
  2155  0F17                     l2691:
  2156                           
  2157                           ;main.c: 160:     BRG16 = 1;
  2158  0F17  1683               	bsf	3,5	;RP0=1, select bank3
  2159  0F18  1703               	bsf	3,6	;RP1=1, select bank3
  2160  0F19  1587               	bsf	7,3	;volatile
  2161  0F1A                     l2693:
  2162                           
  2163                           ;main.c: 162:     TXSTAbits.SYNC= 0;
  2164  0F1A  1683               	bsf	3,5	;RP0=1, select bank1
  2165  0F1B  1303               	bcf	3,6	;RP1=0, select bank1
  2166  0F1C  1218               	bcf	24,4	;volatile
  2167  0F1D                     l2695:
  2168                           
  2169                           ;main.c: 163:     RCSTAbits.SPEN= 1;
  2170  0F1D  1283               	bcf	3,5	;RP0=0, select bank0
  2171  0F1E  1303               	bcf	3,6	;RP1=0, select bank0
  2172  0F1F  1798               	bsf	24,7	;volatile
  2173  0F20                     l2697:
  2174                           
  2175                           ;main.c: 164:     TXSTAbits.TXEN= 1;
  2176  0F20  1683               	bsf	3,5	;RP0=1, select bank1
  2177  0F21  1303               	bcf	3,6	;RP1=0, select bank1
  2178  0F22  1698               	bsf	24,5	;volatile
  2179  0F23                     l2699:
  2180                           
  2181                           ;main.c: 165:     RCSTAbits.CREN = 1;
  2182  0F23  1283               	bcf	3,5	;RP0=0, select bank0
  2183  0F24  1303               	bcf	3,6	;RP1=0, select bank0
  2184  0F25  1618               	bsf	24,4	;volatile
  2185  0F26                     l2701:
  2186                           
  2187                           ;main.c: 167:     PIE1bits.RCIE = 1;
  2188  0F26  1683               	bsf	3,5	;RP0=1, select bank1
  2189  0F27  1303               	bcf	3,6	;RP1=0, select bank1
  2190  0F28  168C               	bsf	12,5	;volatile
  2191  0F29                     l2703:
  2192                           
  2193                           ;main.c: 170:     OPTION_REGbits.T0CS = 0;
  2194  0F29  1281               	bcf	1,5	;volatile
  2195  0F2A                     l2705:
  2196                           
  2197                           ;main.c: 172:     OPTION_REGbits.PSA = 0;
  2198  0F2A  1181               	bcf	1,3	;volatile
  2199  0F2B                     l2707:
  2200                           
  2201                           ;main.c: 173:     OPTION_REGbits.PS2 = 1;
  2202  0F2B  1501               	bsf	1,2	;volatile
  2203  0F2C                     l2709:
  2204                           
  2205                           ;main.c: 174:     OPTION_REGbits.PS1 = 1;
  2206  0F2C  1481               	bsf	1,1	;volatile
  2207  0F2D                     l2711:
  2208                           
  2209                           ;main.c: 175:     OPTION_REGbits.PS0 = 0;
  2210  0F2D  1001               	bcf	1,0	;volatile
  2211  0F2E                     l2713:
  2212                           
  2213                           ;main.c: 176:     TMR0 = 60;
  2214  0F2E  303C               	movlw	60
  2215  0F2F  1283               	bcf	3,5	;RP0=0, select bank0
  2216  0F30  1303               	bcf	3,6	;RP1=0, select bank0
  2217  0F31  0081               	movwf	1	;volatile
  2218  0F32                     l2715:
  2219                           
  2220                           ;main.c: 180: T1CONbits.T1CKPS1 =0;
  2221  0F32  1290               	bcf	16,5	;volatile
  2222  0F33                     l2717:
  2223                           
  2224                           ;main.c: 181: T1CONbits.T1CKPS0 =1;
  2225  0F33  1610               	bsf	16,4	;volatile
  2226  0F34                     l2719:
  2227                           
  2228                           ;main.c: 182: T1CONbits.T1OSCEN =1;
  2229  0F34  1590               	bsf	16,3	;volatile
  2230  0F35                     l2721:
  2231                           
  2232                           ;main.c: 183: T1CONbits.T1SYNC =1;
  2233  0F35  1510               	bsf	16,2	;volatile
  2234  0F36                     l2723:
  2235                           
  2236                           ;main.c: 184: T1CONbits.TMR1CS =0;
  2237  0F36  1090               	bcf	16,1	;volatile
  2238  0F37                     l2725:
  2239                           
  2240                           ;main.c: 185: T1CONbits.TMR1ON =1;
  2241  0F37  1410               	bsf	16,0	;volatile
  2242  0F38                     l2727:
  2243                           
  2244                           ;main.c: 186: PIE1bits.TMR1IE = 1;
  2245  0F38  1683               	bsf	3,5	;RP0=1, select bank1
  2246  0F39  1303               	bcf	3,6	;RP1=0, select bank1
  2247  0F3A  140C               	bsf	12,0	;volatile
  2248  0F3B                     l2729:
  2249                           
  2250                           ;main.c: 187: TMR1H = 0xE6;
  2251  0F3B  30E6               	movlw	230
  2252  0F3C  1283               	bcf	3,5	;RP0=0, select bank0
  2253  0F3D  1303               	bcf	3,6	;RP1=0, select bank0
  2254  0F3E  008F               	movwf	15	;volatile
  2255  0F3F                     l2731:
  2256                           
  2257                           ;main.c: 188: TMR1L = 0xD4;
  2258  0F3F  30D4               	movlw	212
  2259  0F40  008E               	movwf	14	;volatile
  2260  0F41                     l2733:
  2261                           
  2262                           ;main.c: 191: PORTCbits.RC2 = 1;
  2263  0F41  1507               	bsf	7,2	;volatile
  2264  0F42                     l2735:
  2265                           
  2266                           ;main.c: 192: spiInit(SPI_MASTER_OSC_DIV4, SPI_DATA_SAMPLE_MIDDLE, SPI_CLOCK_IDLE_LOW, S
      +                          PI_IDLE_2_ACTIVE);
  2267  0F42  01A0               	clrf	spiInit@sDataSample
  2268  0F43  01A1               	clrf	spiInit@sClockIdle
  2269  0F44  01A2               	clrf	spiInit@sTransmitEdge
  2270  0F45  3020               	movlw	32
  2271  0F46  120A  158A  263D  120A  158A  	fcall	_spiInit
  2272  0F4B                     l123:
  2273  0F4B  0008               	return
  2274  0F4C                     __end_of_setup:
  2275                           
  2276                           	psect	text3
  2277  0E3D                     __ptext3:	
  2278 ;; *************** function _spiInit *****************
  2279 ;; Defined at:
  2280 ;;		line 12 in file "SPI.c"
  2281 ;; Parameters:    Size  Location     Type
  2282 ;;  sType           1    wreg     enum E1264
  2283 ;;  sDataSample     1    0[BANK0 ] enum E1272
  2284 ;;  sClockIdle      1    1[BANK0 ] enum E1276
  2285 ;;  sTransmitEdg    1    2[BANK0 ] enum E1280
  2286 ;; Auto vars:     Size  Location     Type
  2287 ;;  sType           1    3[BANK0 ] enum E1264
  2288 ;; Return value:  Size  Location     Type
  2289 ;;                  1    wreg      void 
  2290 ;; Registers used:
  2291 ;;		wreg, status,2, status,0
  2292 ;; Tracked objects:
  2293 ;;		On entry : 0/0
  2294 ;;		On exit  : 0/0
  2295 ;;		Unchanged: 0/0
  2296 ;; Data sizes:     COMMON   BANK0   BANK1   BANK3   BANK2
  2297 ;;      Params:         0       3       0       0       0
  2298 ;;      Locals:         0       1       0       0       0
  2299 ;;      Temps:          0       0       0       0       0
  2300 ;;      Totals:         0       4       0       0       0
  2301 ;;Total ram usage:        4 bytes
  2302 ;; Hardware stack levels used:    1
  2303 ;; Hardware stack levels required when called:    3
  2304 ;; This function calls:
  2305 ;;		Nothing
  2306 ;; This function is called by:
  2307 ;;		_setup
  2308 ;; This function uses a non-reentrant model
  2309 ;;
  2310                           
  2311                           
  2312                           ;psect for function _spiInit
  2313  0E3D                     _spiInit:
  2314                           
  2315                           ;incstack = 0
  2316                           ; Regs used in _spiInit: [wreg+status,2+status,0]
  2317                           ;spiInit@sType stored from wreg
  2318  0E3D  1283               	bcf	3,5	;RP0=0, select bank0
  2319  0E3E  1303               	bcf	3,6	;RP1=0, select bank0
  2320  0E3F  00A3               	movwf	spiInit@sType
  2321  0E40                     l2569:
  2322                           
  2323                           ;SPI.c: 12: void spiInit(Spi_Type sType, Spi_Data_Sample sDataSample, Spi_Clock_Idle sCl
      +                          ockIdle, Spi_Transmit_Edge sTransmitEdge);SPI.c: 13: {;SPI.c: 14:     TRISC5 = 0;
  2324  0E40  1683               	bsf	3,5	;RP0=1, select bank1
  2325  0E41  1303               	bcf	3,6	;RP1=0, select bank1
  2326  0E42  1287               	bcf	7,5	;volatile
  2327                           
  2328                           ;SPI.c: 15:     if(sType & 0b00000100)
  2329  0E43  1283               	bcf	3,5	;RP0=0, select bank0
  2330  0E44  1303               	bcf	3,6	;RP1=0, select bank0
  2331  0E45  1D23               	btfss	spiInit@sType,2
  2332  0E46  2E48               	goto	u2171
  2333  0E47  2E49               	goto	u2170
  2334  0E48                     u2171:
  2335  0E48  2E4F               	goto	l2575
  2336  0E49                     u2170:
  2337  0E49                     l2571:
  2338                           
  2339                           ;SPI.c: 16:     {;SPI.c: 17:         SSPSTAT = sTransmitEdge;
  2340  0E49  0822               	movf	spiInit@sTransmitEdge,w
  2341  0E4A  1683               	bsf	3,5	;RP0=1, select bank1
  2342  0E4B  1303               	bcf	3,6	;RP1=0, select bank1
  2343  0E4C  0094               	movwf	20	;volatile
  2344  0E4D                     l2573:
  2345                           
  2346                           ;SPI.c: 18:         TRISC3 = 1;
  2347  0E4D  1587               	bsf	7,3	;volatile
  2348                           
  2349                           ;SPI.c: 19:     }
  2350  0E4E  2E55               	goto	l139
  2351  0E4F                     l2575:
  2352                           
  2353                           ;SPI.c: 21:     {;SPI.c: 22:         SSPSTAT = sDataSample | sTransmitEdge;
  2354  0E4F  0820               	movf	spiInit@sDataSample,w
  2355  0E50  0422               	iorwf	spiInit@sTransmitEdge,w
  2356  0E51  1683               	bsf	3,5	;RP0=1, select bank1
  2357  0E52  1303               	bcf	3,6	;RP1=0, select bank1
  2358  0E53  0094               	movwf	20	;volatile
  2359  0E54                     l2577:
  2360                           
  2361                           ;SPI.c: 23:         TRISC3 = 0;
  2362  0E54  1187               	bcf	7,3	;volatile
  2363  0E55                     l139:	
  2364                           ;SPI.c: 24:     }
  2365                           
  2366                           
  2367                           ;SPI.c: 26:     SSPCON = sType | sClockIdle;
  2368  0E55  1283               	bcf	3,5	;RP0=0, select bank0
  2369  0E56  1303               	bcf	3,6	;RP1=0, select bank0
  2370  0E57  0823               	movf	spiInit@sType,w
  2371  0E58  0421               	iorwf	spiInit@sClockIdle,w
  2372  0E59  0094               	movwf	20	;volatile
  2373  0E5A                     l140:
  2374  0E5A  0008               	return
  2375  0E5B                     __end_of_spiInit:
  2376                           
  2377                           	psect	text4
  2378  0E5B                     __ptext4:	
  2379 ;; *************** function _print *****************
  2380 ;; Defined at:
  2381 ;;		line 16 in file "PRINT_SERIAL.c"
  2382 ;; Parameters:    Size  Location     Type
  2383 ;;  palabra         1    wreg     PTR unsigned char 
  2384 ;;		 -> STR_2(2), STR_1(2), 
  2385 ;; Auto vars:     Size  Location     Type
  2386 ;;  palabra         1    1[BANK0 ] PTR unsigned char 
  2387 ;;		 -> STR_2(2), STR_1(2), 
  2388 ;; Return value:  Size  Location     Type
  2389 ;;                  1    wreg      void 
  2390 ;; Registers used:
  2391 ;;		wreg, fsr0l, fsr0h, status,2, status,0, pclath
  2392 ;; Tracked objects:
  2393 ;;		On entry : 0/0
  2394 ;;		On exit  : 0/0
  2395 ;;		Unchanged: 0/0
  2396 ;; Data sizes:     COMMON   BANK0   BANK1   BANK3   BANK2
  2397 ;;      Params:         0       0       0       0       0
  2398 ;;      Locals:         0       1       0       0       0
  2399 ;;      Temps:          0       1       0       0       0
  2400 ;;      Totals:         0       2       0       0       0
  2401 ;;Total ram usage:        2 bytes
  2402 ;; Hardware stack levels used:    1
  2403 ;; Hardware stack levels required when called:    3
  2404 ;; This function calls:
  2405 ;;		Nothing
  2406 ;; This function is called by:
  2407 ;;		_main
  2408 ;; This function uses a non-reentrant model
  2409 ;;
  2410                           
  2411                           
  2412                           ;psect for function _print
  2413  0E5B                     _print:
  2414                           
  2415                           ;incstack = 0
  2416                           ; Regs used in _print: [wreg-fsr0h+status,2+status,0+pclath]
  2417                           ;print@palabra stored from wreg
  2418  0E5B  1283               	bcf	3,5	;RP0=0, select bank0
  2419  0E5C  1303               	bcf	3,6	;RP1=0, select bank0
  2420  0E5D  00A1               	movwf	print@palabra
  2421  0E5E                     l2893:
  2422                           
  2423                           ;PRINT_SERIAL.c: 17:     while((*palabra) != '\0'){
  2424  0E5E  2E6F               	goto	l2899
  2425  0E5F                     l308:
  2426  0E5F  1E0C               	btfss	12,4	;volatile
  2427  0E60  2E62               	goto	u2411
  2428  0E61  2E63               	goto	u2410
  2429  0E62                     u2411:
  2430  0E62  2E5F               	goto	l308
  2431  0E63                     u2410:
  2432  0E63                     l2895:
  2433                           
  2434                           ;PRINT_SERIAL.c: 19:         TXREG = (*palabra);
  2435  0E63  0821               	movf	print@palabra,w
  2436  0E64  0084               	movwf	4
  2437  0E65  120A  158A  2000  120A  158A  	fcall	stringdir
  2438  0E6A  0099               	movwf	25	;volatile
  2439  0E6B                     l2897:
  2440                           
  2441                           ;PRINT_SERIAL.c: 20:         *palabra++;
  2442  0E6B  3001               	movlw	1
  2443  0E6C  00A0               	movwf	??_print
  2444  0E6D  0820               	movf	??_print,w
  2445  0E6E  07A1               	addwf	print@palabra,f
  2446  0E6F                     l2899:
  2447                           
  2448                           ;PRINT_SERIAL.c: 17:     while((*palabra) != '\0'){
  2449  0E6F  0821               	movf	print@palabra,w
  2450  0E70  0084               	movwf	4
  2451  0E71  120A  158A  2000  120A  158A  	fcall	stringdir
  2452  0E76  3A00               	xorlw	0
  2453  0E77  1D03               	skipz
  2454  0E78  2E7A               	goto	u2421
  2455  0E79  2E7B               	goto	u2420
  2456  0E7A                     u2421:
  2457  0E7A  2E5F               	goto	l308
  2458  0E7B                     u2420:
  2459  0E7B                     l312:
  2460  0E7B  0008               	return
  2461  0E7C                     __end_of_print:
  2462                           
  2463                           	psect	text5
  2464  075E                     __ptext5:	
  2465 ;; *************** function _int_string *****************
  2466 ;; Defined at:
  2467 ;;		line 39 in file "PRINT_SERIAL.c"
  2468 ;; Parameters:    Size  Location     Type
  2469 ;;  valor           2   15[BANK0 ] int 
  2470 ;; Auto vars:     Size  Location     Type
  2471 ;;		None
  2472 ;; Return value:  Size  Location     Type
  2473 ;;                  2   15[BANK0 ] int 
  2474 ;; Registers used:
  2475 ;;		wreg, fsr0l, fsr0h, status,2, status,0
  2476 ;; Tracked objects:
  2477 ;;		On entry : 0/0
  2478 ;;		On exit  : 0/0
  2479 ;;		Unchanged: 0/0
  2480 ;; Data sizes:     COMMON   BANK0   BANK1   BANK3   BANK2
  2481 ;;      Params:         0       2       0       0       0
  2482 ;;      Locals:         0       0       0       0       0
  2483 ;;      Temps:          0       0       0       0       0
  2484 ;;      Totals:         0       2       0       0       0
  2485 ;;Total ram usage:        2 bytes
  2486 ;; Hardware stack levels used:    1
  2487 ;; Hardware stack levels required when called:    3
  2488 ;; This function calls:
  2489 ;;		Nothing
  2490 ;; This function is called by:
  2491 ;;		_main
  2492 ;; This function uses a non-reentrant model
  2493 ;;
  2494                           
  2495                           
  2496                           ;psect for function _int_string
  2497  075E                     _int_string:
  2498  075E                     l2817:	
  2499                           ;incstack = 0
  2500                           ; Regs used in _int_string: [wreg-fsr0h+status,2+status,0]
  2501                           
  2502                           
  2503                           ;PRINT_SERIAL.c: 41:     switch (valor){
  2504  075E  2F91               	goto	l2881
  2505  075F                     l2819:
  2506  075F  3030               	movlw	48
  2507  0760  00AF               	movwf	?_int_string
  2508  0761  3000               	movlw	0
  2509  0762  00B0               	movwf	?_int_string+1
  2510  0763  2FB8               	goto	l332
  2511  0764                     l2825:
  2512  0764  3031               	movlw	49
  2513  0765  00AF               	movwf	?_int_string
  2514  0766  3000               	movlw	0
  2515  0767  00B0               	movwf	?_int_string+1
  2516  0768  2FB8               	goto	l332
  2517  0769                     l2831:
  2518  0769  3032               	movlw	50
  2519  076A  00AF               	movwf	?_int_string
  2520  076B  3000               	movlw	0
  2521  076C  00B0               	movwf	?_int_string+1
  2522  076D  2FB8               	goto	l332
  2523  076E                     l2837:
  2524  076E  3033               	movlw	51
  2525  076F  00AF               	movwf	?_int_string
  2526  0770  3000               	movlw	0
  2527  0771  00B0               	movwf	?_int_string+1
  2528  0772  2FB8               	goto	l332
  2529  0773                     l2843:
  2530  0773  3034               	movlw	52
  2531  0774  00AF               	movwf	?_int_string
  2532  0775  3000               	movlw	0
  2533  0776  00B0               	movwf	?_int_string+1
  2534  0777  2FB8               	goto	l332
  2535  0778                     l2849:
  2536  0778  3035               	movlw	53
  2537  0779  00AF               	movwf	?_int_string
  2538  077A  3000               	movlw	0
  2539  077B  00B0               	movwf	?_int_string+1
  2540  077C  2FB8               	goto	l332
  2541  077D                     l2855:
  2542  077D  3036               	movlw	54
  2543  077E  00AF               	movwf	?_int_string
  2544  077F  3000               	movlw	0
  2545  0780  00B0               	movwf	?_int_string+1
  2546  0781  2FB8               	goto	l332
  2547  0782                     l2861:
  2548  0782  3037               	movlw	55
  2549  0783  00AF               	movwf	?_int_string
  2550  0784  3000               	movlw	0
  2551  0785  00B0               	movwf	?_int_string+1
  2552  0786  2FB8               	goto	l332
  2553  0787                     l2867:
  2554  0787  3038               	movlw	56
  2555  0788  00AF               	movwf	?_int_string
  2556  0789  3000               	movlw	0
  2557  078A  00B0               	movwf	?_int_string+1
  2558  078B  2FB8               	goto	l332
  2559  078C                     l2873:
  2560  078C  3039               	movlw	57
  2561  078D  00AF               	movwf	?_int_string
  2562  078E  3000               	movlw	0
  2563  078F  00B0               	movwf	?_int_string+1
  2564  0790  2FB8               	goto	l332
  2565  0791                     l2881:
  2566                           
  2567                           ; Switch on 2 bytes has been partitioned into a top level switch of size 1, and 1 sub-sw
      +                          itches
  2568                           ; Switch size 1, requested type "simple"
  2569                           ; Number of cases is 1, Range of values is 0 to 0
  2570                           ; switch strategies available:
  2571                           ; Name         Instructions Cycles
  2572                           ; simple_byte            4     3 (average)
  2573                           ; direct_byte           11     8 (fixed)
  2574                           ; jumptable            260     6 (fixed)
  2575                           ;	Chosen strategy is simple_byte
  2576  0791  1283               	bcf	3,5	;RP0=0, select bank0
  2577  0792  1303               	bcf	3,6	;RP1=0, select bank0
  2578  0793  0830               	movf	int_string@valor+1,w
  2579  0794  3A00               	xorlw	0	; case 0
  2580  0795  1903               	skipnz
  2581  0796  2F98               	goto	l3163
  2582  0797  2FB8               	goto	l332
  2583  0798                     l3163:
  2584                           
  2585                           ; Switch size 1, requested type "simple"
  2586                           ; Number of cases is 10, Range of values is 0 to 9
  2587                           ; switch strategies available:
  2588                           ; Name         Instructions Cycles
  2589                           ; simple_byte           31    16 (average)
  2590                           ; direct_byte           38     8 (fixed)
  2591                           ; jumptable            260     6 (fixed)
  2592                           ;	Chosen strategy is simple_byte
  2593  0798  082F               	movf	int_string@valor,w
  2594  0799  3A00               	xorlw	0	; case 0
  2595  079A  1903               	skipnz
  2596  079B  2F5F               	goto	l2819
  2597  079C  3A01               	xorlw	1	; case 1
  2598  079D  1903               	skipnz
  2599  079E  2F64               	goto	l2825
  2600  079F  3A03               	xorlw	3	; case 2
  2601  07A0  1903               	skipnz
  2602  07A1  2F69               	goto	l2831
  2603  07A2  3A01               	xorlw	1	; case 3
  2604  07A3  1903               	skipnz
  2605  07A4  2F6E               	goto	l2837
  2606  07A5  3A07               	xorlw	7	; case 4
  2607  07A6  1903               	skipnz
  2608  07A7  2F73               	goto	l2843
  2609  07A8  3A01               	xorlw	1	; case 5
  2610  07A9  1903               	skipnz
  2611  07AA  2F78               	goto	l2849
  2612  07AB  3A03               	xorlw	3	; case 6
  2613  07AC  1903               	skipnz
  2614  07AD  2F7D               	goto	l2855
  2615  07AE  3A01               	xorlw	1	; case 7
  2616  07AF  1903               	skipnz
  2617  07B0  2F82               	goto	l2861
  2618  07B1  3A0F               	xorlw	15	; case 8
  2619  07B2  1903               	skipnz
  2620  07B3  2F87               	goto	l2867
  2621  07B4  3A01               	xorlw	1	; case 9
  2622  07B5  1903               	skipnz
  2623  07B6  2F8C               	goto	l2873
  2624  07B7  2FB8               	goto	l332
  2625  07B8                     l332:
  2626  07B8  0008               	return
  2627  07B9                     __end_of_int_string:
  2628                           
  2629                           	psect	text6
  2630  0E1C                     __ptext6:	
  2631 ;; *************** function _enviar_letra *****************
  2632 ;; Defined at:
  2633 ;;		line 34 in file "PRINT_SERIAL.c"
  2634 ;; Parameters:    Size  Location     Type
  2635 ;;  letra           1    wreg     unsigned char 
  2636 ;; Auto vars:     Size  Location     Type
  2637 ;;  letra           1    0[BANK0 ] unsigned char 
  2638 ;; Return value:  Size  Location     Type
  2639 ;;                  1    wreg      void 
  2640 ;; Registers used:
  2641 ;;		wreg
  2642 ;; Tracked objects:
  2643 ;;		On entry : 0/0
  2644 ;;		On exit  : 0/0
  2645 ;;		Unchanged: 0/0
  2646 ;; Data sizes:     COMMON   BANK0   BANK1   BANK3   BANK2
  2647 ;;      Params:         0       0       0       0       0
  2648 ;;      Locals:         0       1       0       0       0
  2649 ;;      Temps:          0       0       0       0       0
  2650 ;;      Totals:         0       1       0       0       0
  2651 ;;Total ram usage:        1 bytes
  2652 ;; Hardware stack levels used:    1
  2653 ;; Hardware stack levels required when called:    3
  2654 ;; This function calls:
  2655 ;;		Nothing
  2656 ;; This function is called by:
  2657 ;;		_main
  2658 ;;		_println
  2659 ;; This function uses a non-reentrant model
  2660 ;;
  2661                           
  2662                           
  2663                           ;psect for function _enviar_letra
  2664  0E1C                     _enviar_letra:
  2665                           
  2666                           ;incstack = 0
  2667                           ; Regs used in _enviar_letra: [wreg]
  2668                           ;enviar_letra@letra stored from wreg
  2669  0E1C  1283               	bcf	3,5	;RP0=0, select bank0
  2670  0E1D  1303               	bcf	3,6	;RP1=0, select bank0
  2671  0E1E  00A0               	movwf	enviar_letra@letra
  2672  0E1F                     l2807:
  2673  0E1F                     l324:	
  2674                           ;PRINT_SERIAL.c: 35:     while(!TXIF);
  2675                           
  2676  0E1F  1E0C               	btfss	12,4	;volatile
  2677  0E20  2E22               	goto	u2401
  2678  0E21  2E23               	goto	u2400
  2679  0E22                     u2401:
  2680  0E22  2E1F               	goto	l324
  2681  0E23                     u2400:
  2682  0E23                     l2809:
  2683                           
  2684                           ;PRINT_SERIAL.c: 36:     TXREG = letra;
  2685  0E23  0820               	movf	enviar_letra@letra,w
  2686  0E24  0099               	movwf	25	;volatile
  2687  0E25                     l327:
  2688  0E25  0008               	return
  2689  0E26                     __end_of_enviar_letra:
  2690                           
  2691                           	psect	text7
  2692  0533                     __ptext7:	
  2693 ;; *************** function ___xxtofl *****************
  2694 ;; Defined at:
  2695 ;;		line 10 in file "C:\Program Files\Microchip\xc8\v2.31\pic\sources\c90\common\xxtofl.c"
  2696 ;; Parameters:    Size  Location     Type
  2697 ;;  sign            1    wreg     unsigned char 
  2698 ;;  val             4    0[BANK0 ] long 
  2699 ;; Auto vars:     Size  Location     Type
  2700 ;;  sign            1    8[BANK0 ] unsigned char 
  2701 ;;  arg             4   10[BANK0 ] unsigned long 
  2702 ;;  exp             1    9[BANK0 ] unsigned char 
  2703 ;; Return value:  Size  Location     Type
  2704 ;;                  4    0[BANK0 ] unsigned char 
  2705 ;; Registers used:
  2706 ;;		wreg, status,2, status,0
  2707 ;; Tracked objects:
  2708 ;;		On entry : 0/0
  2709 ;;		On exit  : 0/0
  2710 ;;		Unchanged: 0/0
  2711 ;; Data sizes:     COMMON   BANK0   BANK1   BANK3   BANK2
  2712 ;;      Params:         0       4       0       0       0
  2713 ;;      Locals:         0       6       0       0       0
  2714 ;;      Temps:          0       4       0       0       0
  2715 ;;      Totals:         0      14       0       0       0
  2716 ;;Total ram usage:       14 bytes
  2717 ;; Hardware stack levels used:    1
  2718 ;; Hardware stack levels required when called:    3
  2719 ;; This function calls:
  2720 ;;		Nothing
  2721 ;; This function is called by:
  2722 ;;		_main
  2723 ;; This function uses a non-reentrant model
  2724 ;;
  2725                           
  2726                           
  2727                           ;psect for function ___xxtofl
  2728  0533                     ___xxtofl:
  2729                           
  2730                           ;incstack = 0
  2731                           ; Regs used in ___xxtofl: [wreg+status,2+status,0]
  2732                           ;___xxtofl@sign stored from wreg
  2733  0533  1283               	bcf	3,5	;RP0=0, select bank0
  2734  0534  1303               	bcf	3,6	;RP1=0, select bank0
  2735  0535  00A8               	movwf	___xxtofl@sign
  2736  0536                     l2349:
  2737  0536  0828               	movf	___xxtofl@sign,w
  2738  0537  1903               	btfsc	3,2
  2739  0538  2D3A               	goto	u1921
  2740  0539  2D3B               	goto	u1920
  2741  053A                     u1921:
  2742  053A  2D4F               	goto	l2355
  2743  053B                     u1920:
  2744  053B                     l2351:
  2745  053B  1FA3               	btfss	___xxtofl@val+3,7
  2746  053C  2D3E               	goto	u1931
  2747  053D  2D3F               	goto	u1930
  2748  053E                     u1931:
  2749  053E  2D4F               	goto	l2355
  2750  053F                     u1930:
  2751  053F                     l2353:
  2752  053F  0920               	comf	___xxtofl@val,w
  2753  0540  00AA               	movwf	___xxtofl@arg
  2754  0541  0921               	comf	___xxtofl@val+1,w
  2755  0542  00AB               	movwf	___xxtofl@arg+1
  2756  0543  0922               	comf	___xxtofl@val+2,w
  2757  0544  00AC               	movwf	___xxtofl@arg+2
  2758  0545  0923               	comf	___xxtofl@val+3,w
  2759  0546  00AD               	movwf	___xxtofl@arg+3
  2760  0547  0AAA               	incf	___xxtofl@arg,f
  2761  0548  1903               	skipnz
  2762  0549  0AAB               	incf	___xxtofl@arg+1,f
  2763  054A  1903               	skipnz
  2764  054B  0AAC               	incf	___xxtofl@arg+2,f
  2765  054C  1903               	skipnz
  2766  054D  0AAD               	incf	___xxtofl@arg+3,f
  2767  054E  2D57               	goto	l876
  2768  054F                     l2355:
  2769  054F  0823               	movf	___xxtofl@val+3,w
  2770  0550  00AD               	movwf	___xxtofl@arg+3
  2771  0551  0822               	movf	___xxtofl@val+2,w
  2772  0552  00AC               	movwf	___xxtofl@arg+2
  2773  0553  0821               	movf	___xxtofl@val+1,w
  2774  0554  00AB               	movwf	___xxtofl@arg+1
  2775  0555  0820               	movf	___xxtofl@val,w
  2776  0556  00AA               	movwf	___xxtofl@arg
  2777  0557                     l876:
  2778  0557  0823               	movf	___xxtofl@val+3,w
  2779  0558  0422               	iorwf	___xxtofl@val+2,w
  2780  0559  0421               	iorwf	___xxtofl@val+1,w
  2781  055A  0420               	iorwf	___xxtofl@val,w
  2782  055B  1D03               	skipz
  2783  055C  2D5E               	goto	u1941
  2784  055D  2D5F               	goto	u1940
  2785  055E                     u1941:
  2786  055E  2D68               	goto	l2361
  2787  055F                     u1940:
  2788  055F                     l2357:
  2789  055F  3000               	movlw	0
  2790  0560  00A3               	movwf	?___xxtofl+3
  2791  0561  3000               	movlw	0
  2792  0562  00A2               	movwf	?___xxtofl+2
  2793  0563  3000               	movlw	0
  2794  0564  00A1               	movwf	?___xxtofl+1
  2795  0565  3000               	movlw	0
  2796  0566  00A0               	movwf	?___xxtofl
  2797  0567  2DEE               	goto	l878
  2798  0568                     l2361:
  2799  0568  3096               	movlw	150
  2800  0569  00A4               	movwf	??___xxtofl
  2801  056A  0824               	movf	??___xxtofl,w
  2802  056B  00A9               	movwf	___xxtofl@exp
  2803  056C  2D7A               	goto	l2365
  2804  056D                     l2363:
  2805  056D  3001               	movlw	1
  2806  056E  00A4               	movwf	??___xxtofl
  2807  056F  0824               	movf	??___xxtofl,w
  2808  0570  07A9               	addwf	___xxtofl@exp,f
  2809  0571  3001               	movlw	1
  2810  0572                     u1955:
  2811  0572  1003               	clrc
  2812  0573  0CAD               	rrf	___xxtofl@arg+3,f
  2813  0574  0CAC               	rrf	___xxtofl@arg+2,f
  2814  0575  0CAB               	rrf	___xxtofl@arg+1,f
  2815  0576  0CAA               	rrf	___xxtofl@arg,f
  2816  0577  3EFF               	addlw	-1
  2817  0578  1D03               	skipz
  2818  0579  2D72               	goto	u1955
  2819  057A                     l2365:
  2820  057A  30FE               	movlw	254
  2821  057B  052D               	andwf	___xxtofl@arg+3,w
  2822  057C  1D03               	btfss	3,2
  2823  057D  2D7F               	goto	u1961
  2824  057E  2D80               	goto	u1960
  2825  057F                     u1961:
  2826  057F  2D6D               	goto	l2363
  2827  0580                     u1960:
  2828  0580  2D9C               	goto	l882
  2829  0581                     l2367:
  2830  0581  3001               	movlw	1
  2831  0582  00A4               	movwf	??___xxtofl
  2832  0583  0824               	movf	??___xxtofl,w
  2833  0584  07A9               	addwf	___xxtofl@exp,f
  2834  0585                     l2369:
  2835  0585  3001               	movlw	1
  2836  0586  07AA               	addwf	___xxtofl@arg,f
  2837  0587  3000               	movlw	0
  2838  0588  1803               	skipnc
  2839  0589  3001               	movlw	1
  2840  058A  07AB               	addwf	___xxtofl@arg+1,f
  2841  058B  3000               	movlw	0
  2842  058C  1803               	skipnc
  2843  058D  3001               	movlw	1
  2844  058E  07AC               	addwf	___xxtofl@arg+2,f
  2845  058F  3000               	movlw	0
  2846  0590  1803               	skipnc
  2847  0591  3001               	movlw	1
  2848  0592  07AD               	addwf	___xxtofl@arg+3,f
  2849  0593                     l2371:
  2850  0593  3001               	movlw	1
  2851  0594                     u1975:
  2852  0594  1003               	clrc
  2853  0595  0CAD               	rrf	___xxtofl@arg+3,f
  2854  0596  0CAC               	rrf	___xxtofl@arg+2,f
  2855  0597  0CAB               	rrf	___xxtofl@arg+1,f
  2856  0598  0CAA               	rrf	___xxtofl@arg,f
  2857  0599  3EFF               	addlw	-1
  2858  059A  1D03               	skipz
  2859  059B  2D94               	goto	u1975
  2860  059C                     l882:
  2861  059C  30FF               	movlw	255
  2862  059D  052D               	andwf	___xxtofl@arg+3,w
  2863  059E  1D03               	btfss	3,2
  2864  059F  2DA1               	goto	u1981
  2865  05A0  2DA2               	goto	u1980
  2866  05A1                     u1981:
  2867  05A1  2D81               	goto	l2367
  2868  05A2                     u1980:
  2869  05A2  2DAE               	goto	l2375
  2870  05A3                     l2373:
  2871  05A3  3001               	movlw	1
  2872  05A4  02A9               	subwf	___xxtofl@exp,f
  2873  05A5  3001               	movlw	1
  2874  05A6  00A4               	movwf	??___xxtofl
  2875  05A7                     u1995:
  2876  05A7  1003               	clrc
  2877  05A8  0DAA               	rlf	___xxtofl@arg,f
  2878  05A9  0DAB               	rlf	___xxtofl@arg+1,f
  2879  05AA  0DAC               	rlf	___xxtofl@arg+2,f
  2880  05AB  0DAD               	rlf	___xxtofl@arg+3,f
  2881  05AC  0BA4               	decfsz	??___xxtofl,f
  2882  05AD  2DA7               	goto	u1995
  2883  05AE                     l2375:
  2884  05AE  1BAC               	btfsc	___xxtofl@arg+2,7
  2885  05AF  2DB1               	goto	u2001
  2886  05B0  2DB2               	goto	u2000
  2887  05B1                     u2001:
  2888  05B1  2DB8               	goto	l889
  2889  05B2                     u2000:
  2890  05B2                     l2377:
  2891  05B2  3002               	movlw	2
  2892  05B3  0229               	subwf	___xxtofl@exp,w
  2893  05B4  1803               	skipnc
  2894  05B5  2DB7               	goto	u2011
  2895  05B6  2DB8               	goto	u2010
  2896  05B7                     u2011:
  2897  05B7  2DA3               	goto	l2373
  2898  05B8                     u2010:
  2899  05B8                     l889:
  2900  05B8  1829               	btfsc	___xxtofl@exp,0
  2901  05B9  2DBB               	goto	u2021
  2902  05BA  2DBC               	goto	u2020
  2903  05BB                     u2021:
  2904  05BB  2DC4               	goto	l890
  2905  05BC                     u2020:
  2906  05BC                     l2379:
  2907  05BC  30FF               	movlw	255
  2908  05BD  05AA               	andwf	___xxtofl@arg,f
  2909  05BE  30FF               	movlw	255
  2910  05BF  05AB               	andwf	___xxtofl@arg+1,f
  2911  05C0  307F               	movlw	127
  2912  05C1  05AC               	andwf	___xxtofl@arg+2,f
  2913  05C2  30FF               	movlw	255
  2914  05C3  05AD               	andwf	___xxtofl@arg+3,f
  2915  05C4                     l890:
  2916  05C4  1003               	clrc
  2917  05C5  0CA9               	rrf	___xxtofl@exp,f
  2918  05C6                     l2381:
  2919  05C6  0829               	movf	___xxtofl@exp,w
  2920  05C7  00A4               	movwf	??___xxtofl
  2921  05C8  01A5               	clrf	??___xxtofl+1
  2922  05C9  01A6               	clrf	??___xxtofl+2
  2923  05CA  01A7               	clrf	??___xxtofl+3
  2924  05CB  3018               	movlw	24
  2925  05CC                     u2035:
  2926  05CC  1003               	clrc
  2927  05CD  0DA4               	rlf	??___xxtofl,f
  2928  05CE  0DA5               	rlf	??___xxtofl+1,f
  2929  05CF  0DA6               	rlf	??___xxtofl+2,f
  2930  05D0  0DA7               	rlf	??___xxtofl+3,f
  2931  05D1                     u2030:
  2932  05D1  3EFF               	addlw	-1
  2933  05D2  1D03               	skipz
  2934  05D3  2DCC               	goto	u2035
  2935  05D4  0824               	movf	??___xxtofl,w
  2936  05D5  04AA               	iorwf	___xxtofl@arg,f
  2937  05D6  0825               	movf	??___xxtofl+1,w
  2938  05D7  04AB               	iorwf	___xxtofl@arg+1,f
  2939  05D8  0826               	movf	??___xxtofl+2,w
  2940  05D9  04AC               	iorwf	___xxtofl@arg+2,f
  2941  05DA  0827               	movf	??___xxtofl+3,w
  2942  05DB  04AD               	iorwf	___xxtofl@arg+3,f
  2943  05DC                     l2383:
  2944  05DC  0828               	movf	___xxtofl@sign,w
  2945  05DD  1903               	btfsc	3,2
  2946  05DE  2DE0               	goto	u2041
  2947  05DF  2DE1               	goto	u2040
  2948  05E0                     u2041:
  2949  05E0  2DE6               	goto	l2389
  2950  05E1                     u2040:
  2951  05E1                     l2385:
  2952  05E1  1FA3               	btfss	___xxtofl@val+3,7
  2953  05E2  2DE4               	goto	u2051
  2954  05E3  2DE5               	goto	u2050
  2955  05E4                     u2051:
  2956  05E4  2DE6               	goto	l2389
  2957  05E5                     u2050:
  2958  05E5                     l2387:
  2959  05E5  17AD               	bsf	___xxtofl@arg+3,7
  2960  05E6                     l2389:
  2961  05E6  082D               	movf	___xxtofl@arg+3,w
  2962  05E7  00A3               	movwf	?___xxtofl+3
  2963  05E8  082C               	movf	___xxtofl@arg+2,w
  2964  05E9  00A2               	movwf	?___xxtofl+2
  2965  05EA  082B               	movf	___xxtofl@arg+1,w
  2966  05EB  00A1               	movwf	?___xxtofl+1
  2967  05EC  082A               	movf	___xxtofl@arg,w
  2968  05ED  00A0               	movwf	?___xxtofl
  2969  05EE                     l878:
  2970  05EE  0008               	return
  2971  05EF                     __end_of___xxtofl:
  2972                           
  2973                           	psect	text8
  2974  0679                     __ptext8:	
  2975 ;; *************** function ___fltol *****************
  2976 ;; Defined at:
  2977 ;;		line 43 in file "C:\Program Files\Microchip\xc8\v2.31\pic\sources\c90\common\fltol.c"
  2978 ;; Parameters:    Size  Location     Type
  2979 ;;  f1              4   40[BANK0 ] unsigned char 
  2980 ;; Auto vars:     Size  Location     Type
  2981 ;;  exp1            1   50[BANK0 ] unsigned char 
  2982 ;;  sign1           1   49[BANK0 ] unsigned char 
  2983 ;; Return value:  Size  Location     Type
  2984 ;;                  4   40[BANK0 ] long 
  2985 ;; Registers used:
  2986 ;;		wreg, status,2, status,0
  2987 ;; Tracked objects:
  2988 ;;		On entry : 0/0
  2989 ;;		On exit  : 0/0
  2990 ;;		Unchanged: 0/0
  2991 ;; Data sizes:     COMMON   BANK0   BANK1   BANK3   BANK2
  2992 ;;      Params:         0       4       0       0       0
  2993 ;;      Locals:         0       2       0       0       0
  2994 ;;      Temps:          0       5       0       0       0
  2995 ;;      Totals:         0      11       0       0       0
  2996 ;;Total ram usage:       11 bytes
  2997 ;; Hardware stack levels used:    1
  2998 ;; Hardware stack levels required when called:    3
  2999 ;; This function calls:
  3000 ;;		Nothing
  3001 ;; This function is called by:
  3002 ;;		_main
  3003 ;; This function uses a non-reentrant model
  3004 ;;
  3005                           
  3006                           
  3007                           ;psect for function ___fltol
  3008  0679                     ___fltol:
  3009  0679                     l2173:	
  3010                           ;incstack = 0
  3011                           ; Regs used in ___fltol: [wreg+status,2+status,0]
  3012                           
  3013  0679  1003               	clrc
  3014  067A  1283               	bcf	3,5	;RP0=0, select bank0
  3015  067B  1303               	bcf	3,6	;RP1=0, select bank0
  3016  067C  0D4A               	rlf	___fltol@f1+2,w
  3017  067D  0D4B               	rlf	___fltol@f1+3,w
  3018  067E  00CC               	movwf	??___fltol
  3019  067F  084C               	movf	??___fltol,w
  3020  0680  00D2               	movwf	___fltol@exp1
  3021  0681  0852               	movf	___fltol@exp1,w
  3022  0682  1D03               	btfss	3,2
  3023  0683  2E85               	goto	u1451
  3024  0684  2E86               	goto	u1450
  3025  0685                     u1451:
  3026  0685  2E8F               	goto	l2179
  3027  0686                     u1450:
  3028  0686                     l2175:
  3029  0686  3000               	movlw	0
  3030  0687  00CB               	movwf	?___fltol+3
  3031  0688  3000               	movlw	0
  3032  0689  00CA               	movwf	?___fltol+2
  3033  068A  3000               	movlw	0
  3034  068B  00C9               	movwf	?___fltol+1
  3035  068C  3000               	movlw	0
  3036  068D  00C8               	movwf	?___fltol
  3037  068E  2EF4               	goto	l629
  3038  068F                     l2179:
  3039  068F  0848               	movf	___fltol@f1,w
  3040  0690  00CC               	movwf	??___fltol
  3041  0691  0849               	movf	___fltol@f1+1,w
  3042  0692  00CD               	movwf	??___fltol+1
  3043  0693  084A               	movf	___fltol@f1+2,w
  3044  0694  00CE               	movwf	??___fltol+2
  3045  0695  084B               	movf	___fltol@f1+3,w
  3046  0696  00CF               	movwf	??___fltol+3
  3047  0697  301F               	movlw	31
  3048  0698                     u1465:
  3049  0698  1003               	clrc
  3050  0699  0CCF               	rrf	??___fltol+3,f
  3051  069A  0CCE               	rrf	??___fltol+2,f
  3052  069B  0CCD               	rrf	??___fltol+1,f
  3053  069C  0CCC               	rrf	??___fltol,f
  3054  069D                     u1460:
  3055  069D  3EFF               	addlw	-1
  3056  069E  1D03               	skipz
  3057  069F  2E98               	goto	u1465
  3058  06A0  084C               	movf	??___fltol,w
  3059  06A1  00D0               	movwf	??___fltol+4
  3060  06A2  0850               	movf	??___fltol+4,w
  3061  06A3  00D1               	movwf	___fltol@sign1
  3062  06A4                     l2181:
  3063  06A4  17CA               	bsf	___fltol@f1+2,7
  3064  06A5                     l2183:
  3065  06A5  30FF               	movlw	255
  3066  06A6  05C8               	andwf	___fltol@f1,f
  3067  06A7  30FF               	movlw	255
  3068  06A8  05C9               	andwf	___fltol@f1+1,f
  3069  06A9  30FF               	movlw	255
  3070  06AA  05CA               	andwf	___fltol@f1+2,f
  3071  06AB  3000               	movlw	0
  3072  06AC  05CB               	andwf	___fltol@f1+3,f
  3073  06AD                     l2185:
  3074  06AD  3096               	movlw	150
  3075  06AE  02D2               	subwf	___fltol@exp1,f
  3076  06AF                     l2187:
  3077  06AF  1FD2               	btfss	___fltol@exp1,7
  3078  06B0  2EB2               	goto	u1471
  3079  06B1  2EB3               	goto	u1470
  3080  06B2                     u1471:
  3081  06B2  2ECD               	goto	l2197
  3082  06B3                     u1470:
  3083  06B3                     l2189:
  3084  06B3  0852               	movf	___fltol@exp1,w
  3085  06B4  3A80               	xorlw	128
  3086  06B5  3E97               	addlw	151
  3087  06B6  1803               	skipnc
  3088  06B7  2EB9               	goto	u1481
  3089  06B8  2EBA               	goto	u1480
  3090  06B9                     u1481:
  3091  06B9  2EBB               	goto	l2195
  3092  06BA                     u1480:
  3093  06BA  2E86               	goto	l2175
  3094  06BB                     l2195:
  3095  06BB  3001               	movlw	1
  3096  06BC                     u1495:
  3097  06BC  1003               	clrc
  3098  06BD  0CCB               	rrf	___fltol@f1+3,f
  3099  06BE  0CCA               	rrf	___fltol@f1+2,f
  3100  06BF  0CC9               	rrf	___fltol@f1+1,f
  3101  06C0  0CC8               	rrf	___fltol@f1,f
  3102  06C1  3EFF               	addlw	-1
  3103  06C2  1D03               	skipz
  3104  06C3  2EBC               	goto	u1495
  3105  06C4  3001               	movlw	1
  3106  06C5  00CC               	movwf	??___fltol
  3107  06C6  084C               	movf	??___fltol,w
  3108  06C7  07D2               	addwf	___fltol@exp1,f
  3109  06C8  1D03               	btfss	3,2
  3110  06C9  2ECB               	goto	u1501
  3111  06CA  2ECC               	goto	u1500
  3112  06CB                     u1501:
  3113  06CB  2EBB               	goto	l2195
  3114  06CC                     u1500:
  3115  06CC  2EE4               	goto	l2205
  3116  06CD                     l2197:
  3117  06CD  3020               	movlw	32
  3118  06CE  0252               	subwf	___fltol@exp1,w
  3119  06CF  1C03               	skipc
  3120  06D0  2ED2               	goto	u1511
  3121  06D1  2ED3               	goto	u1510
  3122  06D2                     u1511:
  3123  06D2  2EDF               	goto	l636
  3124  06D3                     u1510:
  3125  06D3  2E86               	goto	l2175
  3126  06D4                     l2203:
  3127  06D4  3001               	movlw	1
  3128  06D5  00CC               	movwf	??___fltol
  3129  06D6                     u1525:
  3130  06D6  1003               	clrc
  3131  06D7  0DC8               	rlf	___fltol@f1,f
  3132  06D8  0DC9               	rlf	___fltol@f1+1,f
  3133  06D9  0DCA               	rlf	___fltol@f1+2,f
  3134  06DA  0DCB               	rlf	___fltol@f1+3,f
  3135  06DB  0BCC               	decfsz	??___fltol,f
  3136  06DC  2ED6               	goto	u1525
  3137  06DD  3001               	movlw	1
  3138  06DE  02D2               	subwf	___fltol@exp1,f
  3139  06DF                     l636:
  3140  06DF  0852               	movf	___fltol@exp1,w
  3141  06E0  1D03               	btfss	3,2
  3142  06E1  2EE3               	goto	u1531
  3143  06E2  2EE4               	goto	u1530
  3144  06E3                     u1531:
  3145  06E3  2ED4               	goto	l2203
  3146  06E4                     u1530:
  3147  06E4                     l2205:
  3148  06E4  0851               	movf	___fltol@sign1,w
  3149  06E5  1903               	btfsc	3,2
  3150  06E6  2EE8               	goto	u1541
  3151  06E7  2EE9               	goto	u1540
  3152  06E8                     u1541:
  3153  06E8  2EF4               	goto	l639
  3154  06E9                     u1540:
  3155  06E9                     l2207:
  3156  06E9  09C8               	comf	___fltol@f1,f
  3157  06EA  09C9               	comf	___fltol@f1+1,f
  3158  06EB  09CA               	comf	___fltol@f1+2,f
  3159  06EC  09CB               	comf	___fltol@f1+3,f
  3160  06ED  0AC8               	incf	___fltol@f1,f
  3161  06EE  1903               	skipnz
  3162  06EF  0AC9               	incf	___fltol@f1+1,f
  3163  06F0  1903               	skipnz
  3164  06F1  0ACA               	incf	___fltol@f1+2,f
  3165  06F2  1903               	skipnz
  3166  06F3  0ACB               	incf	___fltol@f1+3,f
  3167  06F4                     l639:
  3168  06F4                     l629:
  3169  06F4  0008               	return
  3170  06F5                     __end_of___fltol:
  3171                           
  3172                           	psect	text9
  3173  0030                     __ptext9:	
  3174 ;; *************** function ___flmul *****************
  3175 ;; Defined at:
  3176 ;;		line 8 in file "C:\Program Files\Microchip\xc8\v2.31\pic\sources\c90\common\sprcmul.c"
  3177 ;; Parameters:    Size  Location     Type
  3178 ;;  b               4   14[BANK0 ] long 
  3179 ;;  a               4   18[BANK0 ] long 
  3180 ;; Auto vars:     Size  Location     Type
  3181 ;;  prod            4   34[BANK0 ] struct .
  3182 ;;  grs             4   29[BANK0 ] unsigned long 
  3183 ;;  temp            2   38[BANK0 ] struct .
  3184 ;;  bexp            1   33[BANK0 ] unsigned char 
  3185 ;;  aexp            1   28[BANK0 ] unsigned char 
  3186 ;;  sign            1   27[BANK0 ] unsigned char 
  3187 ;; Return value:  Size  Location     Type
  3188 ;;                  4   14[BANK0 ] unsigned char 
  3189 ;; Registers used:
  3190 ;;		wreg, status,2, status,0, btemp+1, pclath, cstack
  3191 ;; Tracked objects:
  3192 ;;		On entry : 0/0
  3193 ;;		On exit  : 0/0
  3194 ;;		Unchanged: 0/0
  3195 ;; Data sizes:     COMMON   BANK0   BANK1   BANK3   BANK2
  3196 ;;      Params:         0       8       0       0       0
  3197 ;;      Locals:         0      13       0       0       0
  3198 ;;      Temps:          0       5       0       0       0
  3199 ;;      Totals:         0      26       0       0       0
  3200 ;;Total ram usage:       26 bytes
  3201 ;; Hardware stack levels used:    1
  3202 ;; Hardware stack levels required when called:    4
  3203 ;; This function calls:
  3204 ;;		__Umul8_16
  3205 ;; This function is called by:
  3206 ;;		_main
  3207 ;; This function uses a non-reentrant model
  3208 ;;
  3209                           
  3210                           
  3211                           ;psect for function ___flmul
  3212  0030                     ___flmul:
  3213  0030                     l2901:	
  3214                           ;incstack = 0
  3215                           ; Regs used in ___flmul: [wreg+status,2+status,0+btemp+1+pclath+cstack]
  3216                           
  3217  0030  1283               	bcf	3,5	;RP0=0, select bank0
  3218  0031  1303               	bcf	3,6	;RP1=0, select bank0
  3219  0032  0831               	movf	___flmul@b+3,w
  3220  0033  3980               	andlw	128
  3221  0034  00B6               	movwf	??___flmul
  3222  0035  0836               	movf	??___flmul,w
  3223  0036  00BB               	movwf	___flmul@sign
  3224  0037                     l2903:
  3225  0037  0831               	movf	___flmul@b+3,w
  3226  0038  00B6               	movwf	??___flmul
  3227  0039  0736               	addwf	??___flmul,w
  3228  003A  00B7               	movwf	??___flmul+1
  3229  003B  0837               	movf	??___flmul+1,w
  3230  003C  00C1               	movwf	___flmul@bexp
  3231  003D                     l2905:
  3232  003D  1FB0               	btfss	___flmul@b+2,7
  3233  003E  2840               	goto	u2431
  3234  003F  2841               	goto	u2430
  3235  0040                     u2431:
  3236  0040  2842               	goto	l2909
  3237  0041                     u2430:
  3238  0041                     l2907:
  3239  0041  1441               	bsf	___flmul@bexp,0
  3240  0042                     l2909:
  3241  0042  0841               	movf	___flmul@bexp,w
  3242  0043  1903               	btfsc	3,2
  3243  0044  2846               	goto	u2441
  3244  0045  2847               	goto	u2440
  3245  0046                     u2441:
  3246  0046  2856               	goto	l2917
  3247  0047                     u2440:
  3248  0047                     l2911:
  3249  0047  0A41               	incf	___flmul@bexp,w
  3250  0048  1D03               	btfss	3,2
  3251  0049  284B               	goto	u2451
  3252  004A  284C               	goto	u2450
  3253  004B                     u2451:
  3254  004B  2854               	goto	l2915
  3255  004C                     u2450:
  3256  004C                     l2913:
  3257  004C  3000               	movlw	0
  3258  004D  00B1               	movwf	___flmul@b+3
  3259  004E  3000               	movlw	0
  3260  004F  00B0               	movwf	___flmul@b+2
  3261  0050  3000               	movlw	0
  3262  0051  00AF               	movwf	___flmul@b+1
  3263  0052  3000               	movlw	0
  3264  0053  00AE               	movwf	___flmul@b
  3265  0054                     l2915:
  3266  0054  17B0               	bsf	___flmul@b+2,7
  3267  0055  285E               	goto	l2919
  3268  0056                     l2917:
  3269  0056  3000               	movlw	0
  3270  0057  00B1               	movwf	___flmul@b+3
  3271  0058  3000               	movlw	0
  3272  0059  00B0               	movwf	___flmul@b+2
  3273  005A  3000               	movlw	0
  3274  005B  00AF               	movwf	___flmul@b+1
  3275  005C  3000               	movlw	0
  3276  005D  00AE               	movwf	___flmul@b
  3277  005E                     l2919:
  3278  005E  0835               	movf	___flmul@a+3,w
  3279  005F  3980               	andlw	128
  3280  0060  00B6               	movwf	??___flmul
  3281  0061  0836               	movf	??___flmul,w
  3282  0062  06BB               	xorwf	___flmul@sign,f
  3283  0063                     l2921:
  3284  0063  0835               	movf	___flmul@a+3,w
  3285  0064  00B6               	movwf	??___flmul
  3286  0065  0736               	addwf	??___flmul,w
  3287  0066  00B7               	movwf	??___flmul+1
  3288  0067  0837               	movf	??___flmul+1,w
  3289  0068  00BC               	movwf	___flmul@aexp
  3290  0069                     l2923:
  3291  0069  1FB4               	btfss	___flmul@a+2,7
  3292  006A  286C               	goto	u2461
  3293  006B  286D               	goto	u2460
  3294  006C                     u2461:
  3295  006C  286E               	goto	l2927
  3296  006D                     u2460:
  3297  006D                     l2925:
  3298  006D  143C               	bsf	___flmul@aexp,0
  3299  006E                     l2927:
  3300  006E  083C               	movf	___flmul@aexp,w
  3301  006F  1903               	btfsc	3,2
  3302  0070  2872               	goto	u2471
  3303  0071  2873               	goto	u2470
  3304  0072                     u2471:
  3305  0072  2882               	goto	l2935
  3306  0073                     u2470:
  3307  0073                     l2929:
  3308  0073  0A3C               	incf	___flmul@aexp,w
  3309  0074  1D03               	btfss	3,2
  3310  0075  2877               	goto	u2481
  3311  0076  2878               	goto	u2480
  3312  0077                     u2481:
  3313  0077  2880               	goto	l2933
  3314  0078                     u2480:
  3315  0078                     l2931:
  3316  0078  3000               	movlw	0
  3317  0079  00B5               	movwf	___flmul@a+3
  3318  007A  3000               	movlw	0
  3319  007B  00B4               	movwf	___flmul@a+2
  3320  007C  3000               	movlw	0
  3321  007D  00B3               	movwf	___flmul@a+1
  3322  007E  3000               	movlw	0
  3323  007F  00B2               	movwf	___flmul@a
  3324  0080                     l2933:
  3325  0080  17B4               	bsf	___flmul@a+2,7
  3326  0081  288A               	goto	l2937
  3327  0082                     l2935:
  3328  0082  3000               	movlw	0
  3329  0083  00B5               	movwf	___flmul@a+3
  3330  0084  3000               	movlw	0
  3331  0085  00B4               	movwf	___flmul@a+2
  3332  0086  3000               	movlw	0
  3333  0087  00B3               	movwf	___flmul@a+1
  3334  0088  3000               	movlw	0
  3335  0089  00B2               	movwf	___flmul@a
  3336  008A                     l2937:
  3337  008A  083C               	movf	___flmul@aexp,w
  3338  008B  1903               	btfsc	3,2
  3339  008C  288E               	goto	u2491
  3340  008D  288F               	goto	u2490
  3341  008E                     u2491:
  3342  008E  2894               	goto	l2941
  3343  008F                     u2490:
  3344  008F                     l2939:
  3345  008F  0841               	movf	___flmul@bexp,w
  3346  0090  1D03               	btfss	3,2
  3347  0091  2893               	goto	u2501
  3348  0092  2894               	goto	u2500
  3349  0093                     u2501:
  3350  0093  289D               	goto	l2945
  3351  0094                     u2500:
  3352  0094                     l2941:
  3353  0094  3000               	movlw	0
  3354  0095  00B1               	movwf	?___flmul+3
  3355  0096  3000               	movlw	0
  3356  0097  00B0               	movwf	?___flmul+2
  3357  0098  3000               	movlw	0
  3358  0099  00AF               	movwf	?___flmul+1
  3359  009A  3000               	movlw	0
  3360  009B  00AE               	movwf	?___flmul
  3361  009C  2B90               	goto	l832
  3362  009D                     l2945:
  3363  009D  082E               	movf	___flmul@b,w
  3364  009E  00B6               	movwf	??___flmul
  3365  009F  0836               	movf	??___flmul,w
  3366  00A0  00A0               	movwf	__Umul8_16@multiplicand
  3367  00A1  0834               	movf	___flmul@a+2,w
  3368  00A2  120A  158A  267C  120A  118A  	fcall	__Umul8_16
  3369  00A7  1283               	bcf	3,5	;RP0=0, select bank0
  3370  00A8  1303               	bcf	3,6	;RP1=0, select bank0
  3371  00A9  0821               	movf	?__Umul8_16+1,w
  3372  00AA  00C7               	movwf	___flmul@temp+1
  3373  00AB  0820               	movf	?__Umul8_16,w
  3374  00AC  00C6               	movwf	___flmul@temp
  3375  00AD                     l2947:
  3376  00AD  0846               	movf	___flmul@temp,w
  3377  00AE  00B6               	movwf	??___flmul
  3378  00AF  01B7               	clrf	??___flmul+1
  3379  00B0  01B8               	clrf	??___flmul+2
  3380  00B1  01B9               	clrf	??___flmul+3
  3381  00B2  0839               	movf	??___flmul+3,w
  3382  00B3  00C0               	movwf	___flmul@grs+3
  3383  00B4  0838               	movf	??___flmul+2,w
  3384  00B5  00BF               	movwf	___flmul@grs+2
  3385  00B6  0837               	movf	??___flmul+1,w
  3386  00B7  00BE               	movwf	___flmul@grs+1
  3387  00B8  0836               	movf	??___flmul,w
  3388  00B9  00BD               	movwf	___flmul@grs
  3389  00BA                     l2949:
  3390  00BA  0847               	movf	___flmul@temp+1,w
  3391  00BB  00B6               	movwf	??___flmul
  3392  00BC  01B7               	clrf	??___flmul+1
  3393  00BD  01B8               	clrf	??___flmul+2
  3394  00BE  01B9               	clrf	??___flmul+3
  3395  00BF  0839               	movf	??___flmul+3,w
  3396  00C0  00C5               	movwf	___flmul@prod+3
  3397  00C1  0838               	movf	??___flmul+2,w
  3398  00C2  00C4               	movwf	___flmul@prod+2
  3399  00C3  0837               	movf	??___flmul+1,w
  3400  00C4  00C3               	movwf	___flmul@prod+1
  3401  00C5  0836               	movf	??___flmul,w
  3402  00C6  00C2               	movwf	___flmul@prod
  3403  00C7  082F               	movf	___flmul@b+1,w
  3404  00C8  00B6               	movwf	??___flmul
  3405  00C9  0836               	movf	??___flmul,w
  3406  00CA  00A0               	movwf	__Umul8_16@multiplicand
  3407  00CB  0833               	movf	___flmul@a+1,w
  3408  00CC  120A  158A  267C  120A  118A  	fcall	__Umul8_16
  3409  00D1  1283               	bcf	3,5	;RP0=0, select bank0
  3410  00D2  1303               	bcf	3,6	;RP1=0, select bank0
  3411  00D3  0821               	movf	?__Umul8_16+1,w
  3412  00D4  00C7               	movwf	___flmul@temp+1
  3413  00D5  0820               	movf	?__Umul8_16,w
  3414  00D6  00C6               	movwf	___flmul@temp
  3415  00D7                     l2951:
  3416  00D7  0846               	movf	___flmul@temp,w
  3417  00D8  00B6               	movwf	??___flmul
  3418  00D9  01B7               	clrf	??___flmul+1
  3419  00DA  01B8               	clrf	??___flmul+2
  3420  00DB  01B9               	clrf	??___flmul+3
  3421  00DC  0836               	movf	??___flmul,w
  3422  00DD  07BD               	addwf	___flmul@grs,f
  3423  00DE  0837               	movf	??___flmul+1,w
  3424  00DF  1103               	clrz
  3425  00E0  1803               	skipnc
  3426  00E1  3E01               	addlw	1
  3427  00E2  1903               	skipnz
  3428  00E3  28E5               	goto	u2511
  3429  00E4  07BE               	addwf	___flmul@grs+1,f
  3430  00E5                     u2511:
  3431  00E5  0838               	movf	??___flmul+2,w
  3432  00E6  1103               	clrz
  3433  00E7  1803               	skipnc
  3434  00E8  3E01               	addlw	1
  3435  00E9  1903               	skipnz
  3436  00EA  28EC               	goto	u2512
  3437  00EB  07BF               	addwf	___flmul@grs+2,f
  3438  00EC                     u2512:
  3439  00EC  0839               	movf	??___flmul+3,w
  3440  00ED  1103               	clrz
  3441  00EE  1803               	skipnc
  3442  00EF  3E01               	addlw	1
  3443  00F0  1903               	skipnz
  3444  00F1  28F3               	goto	u2513
  3445  00F2  07C0               	addwf	___flmul@grs+3,f
  3446  00F3                     u2513:
  3447  00F3                     l2953:
  3448  00F3  0847               	movf	___flmul@temp+1,w
  3449  00F4  00B6               	movwf	??___flmul
  3450  00F5  01B7               	clrf	??___flmul+1
  3451  00F6  01B8               	clrf	??___flmul+2
  3452  00F7  01B9               	clrf	??___flmul+3
  3453  00F8  0836               	movf	??___flmul,w
  3454  00F9  07C2               	addwf	___flmul@prod,f
  3455  00FA  0837               	movf	??___flmul+1,w
  3456  00FB  1103               	clrz
  3457  00FC  1803               	skipnc
  3458  00FD  3E01               	addlw	1
  3459  00FE  1903               	skipnz
  3460  00FF  2901               	goto	u2521
  3461  0100  07C3               	addwf	___flmul@prod+1,f
  3462  0101                     u2521:
  3463  0101  0838               	movf	??___flmul+2,w
  3464  0102  1103               	clrz
  3465  0103  1803               	skipnc
  3466  0104  3E01               	addlw	1
  3467  0105  1903               	skipnz
  3468  0106  2908               	goto	u2522
  3469  0107  07C4               	addwf	___flmul@prod+2,f
  3470  0108                     u2522:
  3471  0108  0839               	movf	??___flmul+3,w
  3472  0109  1103               	clrz
  3473  010A  1803               	skipnc
  3474  010B  3E01               	addlw	1
  3475  010C  1903               	skipnz
  3476  010D  290F               	goto	u2523
  3477  010E  07C5               	addwf	___flmul@prod+3,f
  3478  010F                     u2523:
  3479  010F  0830               	movf	___flmul@b+2,w
  3480  0110  00B6               	movwf	??___flmul
  3481  0111  0836               	movf	??___flmul,w
  3482  0112  00A0               	movwf	__Umul8_16@multiplicand
  3483  0113  0832               	movf	___flmul@a,w
  3484  0114  120A  158A  267C  120A  118A  	fcall	__Umul8_16
  3485  0119  1283               	bcf	3,5	;RP0=0, select bank0
  3486  011A  1303               	bcf	3,6	;RP1=0, select bank0
  3487  011B  0821               	movf	?__Umul8_16+1,w
  3488  011C  00C7               	movwf	___flmul@temp+1
  3489  011D  0820               	movf	?__Umul8_16,w
  3490  011E  00C6               	movwf	___flmul@temp
  3491  011F                     l2955:
  3492  011F  0846               	movf	___flmul@temp,w
  3493  0120  00B6               	movwf	??___flmul
  3494  0121  01B7               	clrf	??___flmul+1
  3495  0122  01B8               	clrf	??___flmul+2
  3496  0123  01B9               	clrf	??___flmul+3
  3497  0124  0836               	movf	??___flmul,w
  3498  0125  07BD               	addwf	___flmul@grs,f
  3499  0126  0837               	movf	??___flmul+1,w
  3500  0127  1103               	clrz
  3501  0128  1803               	skipnc
  3502  0129  3E01               	addlw	1
  3503  012A  1903               	skipnz
  3504  012B  292D               	goto	u2531
  3505  012C  07BE               	addwf	___flmul@grs+1,f
  3506  012D                     u2531:
  3507  012D  0838               	movf	??___flmul+2,w
  3508  012E  1103               	clrz
  3509  012F  1803               	skipnc
  3510  0130  3E01               	addlw	1
  3511  0131  1903               	skipnz
  3512  0132  2934               	goto	u2532
  3513  0133  07BF               	addwf	___flmul@grs+2,f
  3514  0134                     u2532:
  3515  0134  0839               	movf	??___flmul+3,w
  3516  0135  1103               	clrz
  3517  0136  1803               	skipnc
  3518  0137  3E01               	addlw	1
  3519  0138  1903               	skipnz
  3520  0139  293B               	goto	u2533
  3521  013A  07C0               	addwf	___flmul@grs+3,f
  3522  013B                     u2533:
  3523  013B                     l2957:
  3524  013B  0847               	movf	___flmul@temp+1,w
  3525  013C  00B6               	movwf	??___flmul
  3526  013D  01B7               	clrf	??___flmul+1
  3527  013E  01B8               	clrf	??___flmul+2
  3528  013F  01B9               	clrf	??___flmul+3
  3529  0140  0836               	movf	??___flmul,w
  3530  0141  07C2               	addwf	___flmul@prod,f
  3531  0142  0837               	movf	??___flmul+1,w
  3532  0143  1103               	clrz
  3533  0144  1803               	skipnc
  3534  0145  3E01               	addlw	1
  3535  0146  1903               	skipnz
  3536  0147  2949               	goto	u2541
  3537  0148  07C3               	addwf	___flmul@prod+1,f
  3538  0149                     u2541:
  3539  0149  0838               	movf	??___flmul+2,w
  3540  014A  1103               	clrz
  3541  014B  1803               	skipnc
  3542  014C  3E01               	addlw	1
  3543  014D  1903               	skipnz
  3544  014E  2950               	goto	u2542
  3545  014F  07C4               	addwf	___flmul@prod+2,f
  3546  0150                     u2542:
  3547  0150  0839               	movf	??___flmul+3,w
  3548  0151  1103               	clrz
  3549  0152  1803               	skipnc
  3550  0153  3E01               	addlw	1
  3551  0154  1903               	skipnz
  3552  0155  2957               	goto	u2543
  3553  0156  07C5               	addwf	___flmul@prod+3,f
  3554  0157                     u2543:
  3555  0157                     l2959:
  3556  0157  3008               	movlw	8
  3557  0158  00B6               	movwf	??___flmul
  3558  0159                     u2555:
  3559  0159  1003               	clrc
  3560  015A  0DBD               	rlf	___flmul@grs,f
  3561  015B  0DBE               	rlf	___flmul@grs+1,f
  3562  015C  0DBF               	rlf	___flmul@grs+2,f
  3563  015D  0DC0               	rlf	___flmul@grs+3,f
  3564  015E  0BB6               	decfsz	??___flmul,f
  3565  015F  2959               	goto	u2555
  3566  0160                     l2961:
  3567  0160  082F               	movf	___flmul@b+1,w
  3568  0161  00B6               	movwf	??___flmul
  3569  0162  0836               	movf	??___flmul,w
  3570  0163  00A0               	movwf	__Umul8_16@multiplicand
  3571  0164  0832               	movf	___flmul@a,w
  3572  0165  120A  158A  267C  120A  118A  	fcall	__Umul8_16
  3573  016A  1283               	bcf	3,5	;RP0=0, select bank0
  3574  016B  1303               	bcf	3,6	;RP1=0, select bank0
  3575  016C  0821               	movf	?__Umul8_16+1,w
  3576  016D  00C7               	movwf	___flmul@temp+1
  3577  016E  0820               	movf	?__Umul8_16,w
  3578  016F  00C6               	movwf	___flmul@temp
  3579  0170                     l2963:
  3580  0170  0846               	movf	___flmul@temp,w
  3581  0171  00B6               	movwf	??___flmul
  3582  0172  0847               	movf	___flmul@temp+1,w
  3583  0173  00B7               	movwf	??___flmul+1
  3584  0174  01B8               	clrf	??___flmul+2
  3585  0175  01B9               	clrf	??___flmul+3
  3586  0176  0836               	movf	??___flmul,w
  3587  0177  07BD               	addwf	___flmul@grs,f
  3588  0178  0837               	movf	??___flmul+1,w
  3589  0179  1103               	clrz
  3590  017A  1803               	skipnc
  3591  017B  3E01               	addlw	1
  3592  017C  1903               	skipnz
  3593  017D  297F               	goto	u2561
  3594  017E  07BE               	addwf	___flmul@grs+1,f
  3595  017F                     u2561:
  3596  017F  0838               	movf	??___flmul+2,w
  3597  0180  1103               	clrz
  3598  0181  1803               	skipnc
  3599  0182  3E01               	addlw	1
  3600  0183  1903               	skipnz
  3601  0184  2986               	goto	u2562
  3602  0185  07BF               	addwf	___flmul@grs+2,f
  3603  0186                     u2562:
  3604  0186  0839               	movf	??___flmul+3,w
  3605  0187  1103               	clrz
  3606  0188  1803               	skipnc
  3607  0189  3E01               	addlw	1
  3608  018A  1903               	skipnz
  3609  018B  298D               	goto	u2563
  3610  018C  07C0               	addwf	___flmul@grs+3,f
  3611  018D                     u2563:
  3612  018D                     l2965:
  3613  018D  082E               	movf	___flmul@b,w
  3614  018E  00B6               	movwf	??___flmul
  3615  018F  0836               	movf	??___flmul,w
  3616  0190  00A0               	movwf	__Umul8_16@multiplicand
  3617  0191  0833               	movf	___flmul@a+1,w
  3618  0192  120A  158A  267C  120A  118A  	fcall	__Umul8_16
  3619  0197  1283               	bcf	3,5	;RP0=0, select bank0
  3620  0198  1303               	bcf	3,6	;RP1=0, select bank0
  3621  0199  0821               	movf	?__Umul8_16+1,w
  3622  019A  00C7               	movwf	___flmul@temp+1
  3623  019B  0820               	movf	?__Umul8_16,w
  3624  019C  00C6               	movwf	___flmul@temp
  3625  019D                     l2967:
  3626  019D  0846               	movf	___flmul@temp,w
  3627  019E  00B6               	movwf	??___flmul
  3628  019F  0847               	movf	___flmul@temp+1,w
  3629  01A0  00B7               	movwf	??___flmul+1
  3630  01A1  01B8               	clrf	??___flmul+2
  3631  01A2  01B9               	clrf	??___flmul+3
  3632  01A3  0836               	movf	??___flmul,w
  3633  01A4  07BD               	addwf	___flmul@grs,f
  3634  01A5  0837               	movf	??___flmul+1,w
  3635  01A6  1103               	clrz
  3636  01A7  1803               	skipnc
  3637  01A8  3E01               	addlw	1
  3638  01A9  1903               	skipnz
  3639  01AA  29AC               	goto	u2571
  3640  01AB  07BE               	addwf	___flmul@grs+1,f
  3641  01AC                     u2571:
  3642  01AC  0838               	movf	??___flmul+2,w
  3643  01AD  1103               	clrz
  3644  01AE  1803               	skipnc
  3645  01AF  3E01               	addlw	1
  3646  01B0  1903               	skipnz
  3647  01B1  29B3               	goto	u2572
  3648  01B2  07BF               	addwf	___flmul@grs+2,f
  3649  01B3                     u2572:
  3650  01B3  0839               	movf	??___flmul+3,w
  3651  01B4  1103               	clrz
  3652  01B5  1803               	skipnc
  3653  01B6  3E01               	addlw	1
  3654  01B7  1903               	skipnz
  3655  01B8  29BA               	goto	u2573
  3656  01B9  07C0               	addwf	___flmul@grs+3,f
  3657  01BA                     u2573:
  3658  01BA                     l2969:
  3659  01BA  3008               	movlw	8
  3660  01BB  00B6               	movwf	??___flmul
  3661  01BC                     u2585:
  3662  01BC  1003               	clrc
  3663  01BD  0DBD               	rlf	___flmul@grs,f
  3664  01BE  0DBE               	rlf	___flmul@grs+1,f
  3665  01BF  0DBF               	rlf	___flmul@grs+2,f
  3666  01C0  0DC0               	rlf	___flmul@grs+3,f
  3667  01C1  0BB6               	decfsz	??___flmul,f
  3668  01C2  29BC               	goto	u2585
  3669  01C3  082E               	movf	___flmul@b,w
  3670  01C4  00B6               	movwf	??___flmul
  3671  01C5  0836               	movf	??___flmul,w
  3672  01C6  00A0               	movwf	__Umul8_16@multiplicand
  3673  01C7  0832               	movf	___flmul@a,w
  3674  01C8  120A  158A  267C  120A  118A  	fcall	__Umul8_16
  3675  01CD  1283               	bcf	3,5	;RP0=0, select bank0
  3676  01CE  1303               	bcf	3,6	;RP1=0, select bank0
  3677  01CF  0821               	movf	?__Umul8_16+1,w
  3678  01D0  00C7               	movwf	___flmul@temp+1
  3679  01D1  0820               	movf	?__Umul8_16,w
  3680  01D2  00C6               	movwf	___flmul@temp
  3681  01D3                     l2971:
  3682  01D3  0846               	movf	___flmul@temp,w
  3683  01D4  00B6               	movwf	??___flmul
  3684  01D5  0847               	movf	___flmul@temp+1,w
  3685  01D6  00B7               	movwf	??___flmul+1
  3686  01D7  01B8               	clrf	??___flmul+2
  3687  01D8  01B9               	clrf	??___flmul+3
  3688  01D9  0836               	movf	??___flmul,w
  3689  01DA  07BD               	addwf	___flmul@grs,f
  3690  01DB  0837               	movf	??___flmul+1,w
  3691  01DC  1103               	clrz
  3692  01DD  1803               	skipnc
  3693  01DE  3E01               	addlw	1
  3694  01DF  1903               	skipnz
  3695  01E0  29E2               	goto	u2591
  3696  01E1  07BE               	addwf	___flmul@grs+1,f
  3697  01E2                     u2591:
  3698  01E2  0838               	movf	??___flmul+2,w
  3699  01E3  1103               	clrz
  3700  01E4  1803               	skipnc
  3701  01E5  3E01               	addlw	1
  3702  01E6  1903               	skipnz
  3703  01E7  29E9               	goto	u2592
  3704  01E8  07BF               	addwf	___flmul@grs+2,f
  3705  01E9                     u2592:
  3706  01E9  0839               	movf	??___flmul+3,w
  3707  01EA  1103               	clrz
  3708  01EB  1803               	skipnc
  3709  01EC  3E01               	addlw	1
  3710  01ED  1903               	skipnz
  3711  01EE  29F0               	goto	u2593
  3712  01EF  07C0               	addwf	___flmul@grs+3,f
  3713  01F0                     u2593:
  3714  01F0                     l2973:
  3715  01F0  082F               	movf	___flmul@b+1,w
  3716  01F1  00B6               	movwf	??___flmul
  3717  01F2  0836               	movf	??___flmul,w
  3718  01F3  00A0               	movwf	__Umul8_16@multiplicand
  3719  01F4  0834               	movf	___flmul@a+2,w
  3720  01F5  120A  158A  267C  120A  118A  	fcall	__Umul8_16
  3721  01FA  1283               	bcf	3,5	;RP0=0, select bank0
  3722  01FB  1303               	bcf	3,6	;RP1=0, select bank0
  3723  01FC  0821               	movf	?__Umul8_16+1,w
  3724  01FD  00C7               	movwf	___flmul@temp+1
  3725  01FE  0820               	movf	?__Umul8_16,w
  3726  01FF  00C6               	movwf	___flmul@temp
  3727  0200  0846               	movf	___flmul@temp,w
  3728  0201  00B6               	movwf	??___flmul
  3729  0202  0847               	movf	___flmul@temp+1,w
  3730  0203  00B7               	movwf	??___flmul+1
  3731  0204  01B8               	clrf	??___flmul+2
  3732  0205  01B9               	clrf	??___flmul+3
  3733  0206  0836               	movf	??___flmul,w
  3734  0207  07C2               	addwf	___flmul@prod,f
  3735  0208  0837               	movf	??___flmul+1,w
  3736  0209  1103               	clrz
  3737  020A  1803               	skipnc
  3738  020B  3E01               	addlw	1
  3739  020C  1903               	skipnz
  3740  020D  2A0F               	goto	u2601
  3741  020E  07C3               	addwf	___flmul@prod+1,f
  3742  020F                     u2601:
  3743  020F  0838               	movf	??___flmul+2,w
  3744  0210  1103               	clrz
  3745  0211  1803               	skipnc
  3746  0212  3E01               	addlw	1
  3747  0213  1903               	skipnz
  3748  0214  2A16               	goto	u2602
  3749  0215  07C4               	addwf	___flmul@prod+2,f
  3750  0216                     u2602:
  3751  0216  0839               	movf	??___flmul+3,w
  3752  0217  1103               	clrz
  3753  0218  1803               	skipnc
  3754  0219  3E01               	addlw	1
  3755  021A  1903               	skipnz
  3756  021B  2A1D               	goto	u2603
  3757  021C  07C5               	addwf	___flmul@prod+3,f
  3758  021D                     u2603:
  3759  021D                     l2975:
  3760  021D  0830               	movf	___flmul@b+2,w
  3761  021E  00B6               	movwf	??___flmul
  3762  021F  0836               	movf	??___flmul,w
  3763  0220  00A0               	movwf	__Umul8_16@multiplicand
  3764  0221  0833               	movf	___flmul@a+1,w
  3765  0222  120A  158A  267C  120A  118A  	fcall	__Umul8_16
  3766  0227  1283               	bcf	3,5	;RP0=0, select bank0
  3767  0228  1303               	bcf	3,6	;RP1=0, select bank0
  3768  0229  0821               	movf	?__Umul8_16+1,w
  3769  022A  00C7               	movwf	___flmul@temp+1
  3770  022B  0820               	movf	?__Umul8_16,w
  3771  022C  00C6               	movwf	___flmul@temp
  3772  022D                     l2977:
  3773  022D  0846               	movf	___flmul@temp,w
  3774  022E  00B6               	movwf	??___flmul
  3775  022F  0847               	movf	___flmul@temp+1,w
  3776  0230  00B7               	movwf	??___flmul+1
  3777  0231  01B8               	clrf	??___flmul+2
  3778  0232  01B9               	clrf	??___flmul+3
  3779  0233  0836               	movf	??___flmul,w
  3780  0234  07C2               	addwf	___flmul@prod,f
  3781  0235  0837               	movf	??___flmul+1,w
  3782  0236  1103               	clrz
  3783  0237  1803               	skipnc
  3784  0238  3E01               	addlw	1
  3785  0239  1903               	skipnz
  3786  023A  2A3C               	goto	u2611
  3787  023B  07C3               	addwf	___flmul@prod+1,f
  3788  023C                     u2611:
  3789  023C  0838               	movf	??___flmul+2,w
  3790  023D  1103               	clrz
  3791  023E  1803               	skipnc
  3792  023F  3E01               	addlw	1
  3793  0240  1903               	skipnz
  3794  0241  2A43               	goto	u2612
  3795  0242  07C4               	addwf	___flmul@prod+2,f
  3796  0243                     u2612:
  3797  0243  0839               	movf	??___flmul+3,w
  3798  0244  1103               	clrz
  3799  0245  1803               	skipnc
  3800  0246  3E01               	addlw	1
  3801  0247  1903               	skipnz
  3802  0248  2A4A               	goto	u2613
  3803  0249  07C5               	addwf	___flmul@prod+3,f
  3804  024A                     u2613:
  3805  024A  0830               	movf	___flmul@b+2,w
  3806  024B  00B6               	movwf	??___flmul
  3807  024C  0836               	movf	??___flmul,w
  3808  024D  00A0               	movwf	__Umul8_16@multiplicand
  3809  024E  0834               	movf	___flmul@a+2,w
  3810  024F  120A  158A  267C  120A  118A  	fcall	__Umul8_16
  3811  0254  1283               	bcf	3,5	;RP0=0, select bank0
  3812  0255  1303               	bcf	3,6	;RP1=0, select bank0
  3813  0256  0821               	movf	?__Umul8_16+1,w
  3814  0257  00C7               	movwf	___flmul@temp+1
  3815  0258  0820               	movf	?__Umul8_16,w
  3816  0259  00C6               	movwf	___flmul@temp
  3817  025A                     l2979:
  3818  025A  0846               	movf	___flmul@temp,w
  3819  025B  00B6               	movwf	??___flmul
  3820  025C  0847               	movf	___flmul@temp+1,w
  3821  025D  00B7               	movwf	??___flmul+1
  3822  025E  01B8               	clrf	??___flmul+2
  3823  025F  01B9               	clrf	??___flmul+3
  3824  0260  3008               	movlw	8
  3825  0261                     u2625:
  3826  0261  1003               	clrc
  3827  0262  0DB6               	rlf	??___flmul,f
  3828  0263  0DB7               	rlf	??___flmul+1,f
  3829  0264  0DB8               	rlf	??___flmul+2,f
  3830  0265  0DB9               	rlf	??___flmul+3,f
  3831  0266                     u2620:
  3832  0266  3EFF               	addlw	-1
  3833  0267  1D03               	skipz
  3834  0268  2A61               	goto	u2625
  3835  0269  0836               	movf	??___flmul,w
  3836  026A  07C2               	addwf	___flmul@prod,f
  3837  026B  0837               	movf	??___flmul+1,w
  3838  026C  1103               	clrz
  3839  026D  1803               	skipnc
  3840  026E  3E01               	addlw	1
  3841  026F  1903               	skipnz
  3842  0270  2A72               	goto	u2631
  3843  0271  07C3               	addwf	___flmul@prod+1,f
  3844  0272                     u2631:
  3845  0272  0838               	movf	??___flmul+2,w
  3846  0273  1103               	clrz
  3847  0274  1803               	skipnc
  3848  0275  3E01               	addlw	1
  3849  0276  1903               	skipnz
  3850  0277  2A79               	goto	u2632
  3851  0278  07C4               	addwf	___flmul@prod+2,f
  3852  0279                     u2632:
  3853  0279  0839               	movf	??___flmul+3,w
  3854  027A  1103               	clrz
  3855  027B  1803               	skipnc
  3856  027C  3E01               	addlw	1
  3857  027D  1903               	skipnz
  3858  027E  2A80               	goto	u2633
  3859  027F  07C5               	addwf	___flmul@prod+3,f
  3860  0280                     u2633:
  3861  0280                     l2981:
  3862  0280  083D               	movf	___flmul@grs,w
  3863  0281  00B6               	movwf	??___flmul
  3864  0282  083E               	movf	___flmul@grs+1,w
  3865  0283  00B7               	movwf	??___flmul+1
  3866  0284  083F               	movf	___flmul@grs+2,w
  3867  0285  00B8               	movwf	??___flmul+2
  3868  0286  0840               	movf	___flmul@grs+3,w
  3869  0287  00B9               	movwf	??___flmul+3
  3870  0288  3018               	movlw	24
  3871  0289                     u2645:
  3872  0289  1003               	clrc
  3873  028A  0CB9               	rrf	??___flmul+3,f
  3874  028B  0CB8               	rrf	??___flmul+2,f
  3875  028C  0CB7               	rrf	??___flmul+1,f
  3876  028D  0CB6               	rrf	??___flmul,f
  3877  028E                     u2640:
  3878  028E  3EFF               	addlw	-1
  3879  028F  1D03               	skipz
  3880  0290  2A89               	goto	u2645
  3881  0291  0836               	movf	??___flmul,w
  3882  0292  07C2               	addwf	___flmul@prod,f
  3883  0293  0837               	movf	??___flmul+1,w
  3884  0294  1103               	clrz
  3885  0295  1803               	skipnc
  3886  0296  3E01               	addlw	1
  3887  0297  1903               	skipnz
  3888  0298  2A9A               	goto	u2651
  3889  0299  07C3               	addwf	___flmul@prod+1,f
  3890  029A                     u2651:
  3891  029A  0838               	movf	??___flmul+2,w
  3892  029B  1103               	clrz
  3893  029C  1803               	skipnc
  3894  029D  3E01               	addlw	1
  3895  029E  1903               	skipnz
  3896  029F  2AA1               	goto	u2652
  3897  02A0  07C4               	addwf	___flmul@prod+2,f
  3898  02A1                     u2652:
  3899  02A1  0839               	movf	??___flmul+3,w
  3900  02A2  1103               	clrz
  3901  02A3  1803               	skipnc
  3902  02A4  3E01               	addlw	1
  3903  02A5  1903               	skipnz
  3904  02A6  2AA8               	goto	u2653
  3905  02A7  07C5               	addwf	___flmul@prod+3,f
  3906  02A8                     u2653:
  3907  02A8                     l2983:
  3908  02A8  3008               	movlw	8
  3909  02A9  00B6               	movwf	??___flmul
  3910  02AA                     u2665:
  3911  02AA  1003               	clrc
  3912  02AB  0DBD               	rlf	___flmul@grs,f
  3913  02AC  0DBE               	rlf	___flmul@grs+1,f
  3914  02AD  0DBF               	rlf	___flmul@grs+2,f
  3915  02AE  0DC0               	rlf	___flmul@grs+3,f
  3916  02AF  0BB6               	decfsz	??___flmul,f
  3917  02B0  2AAA               	goto	u2665
  3918  02B1                     l2985:
  3919  02B1  0841               	movf	___flmul@bexp,w
  3920  02B2  073C               	addwf	___flmul@aexp,w
  3921  02B3  00B6               	movwf	??___flmul
  3922  02B4  01B7               	clrf	??___flmul+1
  3923  02B5  0DB7               	rlf	??___flmul+1,f
  3924  02B6  0836               	movf	??___flmul,w
  3925  02B7  3E82               	addlw	130
  3926  02B8  00C6               	movwf	___flmul@temp
  3927  02B9  0837               	movf	??___flmul+1,w
  3928  02BA  1803               	skipnc
  3929  02BB  3E01               	addlw	1
  3930  02BC  3EFF               	addlw	255
  3931  02BD  00C7               	movwf	___flmul@temp+1
  3932  02BE  2ADC               	goto	l2997
  3933  02BF                     l2987:
  3934  02BF  3001               	movlw	1
  3935  02C0  00B6               	movwf	??___flmul
  3936  02C1                     u2675:
  3937  02C1  1003               	clrc
  3938  02C2  0DC2               	rlf	___flmul@prod,f
  3939  02C3  0DC3               	rlf	___flmul@prod+1,f
  3940  02C4  0DC4               	rlf	___flmul@prod+2,f
  3941  02C5  0DC5               	rlf	___flmul@prod+3,f
  3942  02C6  0BB6               	decfsz	??___flmul,f
  3943  02C7  2AC1               	goto	u2675
  3944  02C8                     l2989:
  3945  02C8  1FC0               	btfss	___flmul@grs+3,7
  3946  02C9  2ACB               	goto	u2681
  3947  02CA  2ACC               	goto	u2680
  3948  02CB                     u2681:
  3949  02CB  2ACD               	goto	l2993
  3950  02CC                     u2680:
  3951  02CC                     l2991:
  3952  02CC  1442               	bsf	___flmul@prod,0
  3953  02CD                     l2993:
  3954  02CD  3001               	movlw	1
  3955  02CE  00B6               	movwf	??___flmul
  3956  02CF                     u2695:
  3957  02CF  1003               	clrc
  3958  02D0  0DBD               	rlf	___flmul@grs,f
  3959  02D1  0DBE               	rlf	___flmul@grs+1,f
  3960  02D2  0DBF               	rlf	___flmul@grs+2,f
  3961  02D3  0DC0               	rlf	___flmul@grs+3,f
  3962  02D4  0BB6               	decfsz	??___flmul,f
  3963  02D5  2ACF               	goto	u2695
  3964  02D6                     l2995:
  3965  02D6  30FF               	movlw	255
  3966  02D7  07C6               	addwf	___flmul@temp,f
  3967  02D8  1803               	skipnc
  3968  02D9  0AC7               	incf	___flmul@temp+1,f
  3969  02DA  30FF               	movlw	255
  3970  02DB  07C7               	addwf	___flmul@temp+1,f
  3971  02DC                     l2997:
  3972  02DC  1FC4               	btfss	___flmul@prod+2,7
  3973  02DD  2ADF               	goto	u2701
  3974  02DE  2AE0               	goto	u2700
  3975  02DF                     u2701:
  3976  02DF  2ABF               	goto	l2987
  3977  02E0                     u2700:
  3978  02E0                     l2999:
  3979  02E0  01BC               	clrf	___flmul@aexp
  3980  02E1                     l3001:
  3981  02E1  1FC0               	btfss	___flmul@grs+3,7
  3982  02E2  2AE4               	goto	u2711
  3983  02E3  2AE5               	goto	u2710
  3984  02E4                     u2711:
  3985  02E4  2B01               	goto	l3009
  3986  02E5                     u2710:
  3987  02E5                     l3003:
  3988  02E5  30FF               	movlw	255
  3989  02E6  053D               	andwf	___flmul@grs,w
  3990  02E7  00B6               	movwf	??___flmul
  3991  02E8  30FF               	movlw	255
  3992  02E9  053E               	andwf	___flmul@grs+1,w
  3993  02EA  00B7               	movwf	??___flmul+1
  3994  02EB  30FF               	movlw	255
  3995  02EC  053F               	andwf	___flmul@grs+2,w
  3996  02ED  00B8               	movwf	??___flmul+2
  3997  02EE  307F               	movlw	127
  3998  02EF  0540               	andwf	___flmul@grs+3,w
  3999  02F0  00B9               	movwf	??___flmul+3
  4000  02F1  0839               	movf	??___flmul+3,w
  4001  02F2  0438               	iorwf	??___flmul+2,w
  4002  02F3  0437               	iorwf	??___flmul+1,w
  4003  02F4  0436               	iorwf	??___flmul,w
  4004  02F5  1903               	skipnz
  4005  02F6  2AF8               	goto	u2721
  4006  02F7  2AF9               	goto	u2720
  4007  02F8                     u2721:
  4008  02F8  2AFC               	goto	l838
  4009  02F9                     u2720:
  4010  02F9                     l3005:
  4011  02F9  01BC               	clrf	___flmul@aexp
  4012  02FA  0ABC               	incf	___flmul@aexp,f
  4013  02FB  2B01               	goto	l3009
  4014  02FC                     l838:
  4015  02FC  1C42               	btfss	___flmul@prod,0
  4016  02FD  2AFF               	goto	u2731
  4017  02FE  2B00               	goto	u2730
  4018  02FF                     u2731:
  4019  02FF  2B01               	goto	l3009
  4020  0300                     u2730:
  4021  0300  2AF9               	goto	l3005
  4022  0301                     l3009:
  4023  0301  083C               	movf	___flmul@aexp,w
  4024  0302  1903               	btfsc	3,2
  4025  0303  2B05               	goto	u2741
  4026  0304  2B06               	goto	u2740
  4027  0305                     u2741:
  4028  0305  2B37               	goto	l3019
  4029  0306                     u2740:
  4030  0306                     l3011:
  4031  0306  3001               	movlw	1
  4032  0307  07C2               	addwf	___flmul@prod,f
  4033  0308  3000               	movlw	0
  4034  0309  1803               	skipnc
  4035  030A  3001               	movlw	1
  4036  030B  07C3               	addwf	___flmul@prod+1,f
  4037  030C  3000               	movlw	0
  4038  030D  1803               	skipnc
  4039  030E  3001               	movlw	1
  4040  030F  07C4               	addwf	___flmul@prod+2,f
  4041  0310  3000               	movlw	0
  4042  0311  1803               	skipnc
  4043  0312  3001               	movlw	1
  4044  0313  07C5               	addwf	___flmul@prod+3,f
  4045  0314                     l3013:
  4046  0314  1C45               	btfss	___flmul@prod+3,0
  4047  0315  2B17               	goto	u2751
  4048  0316  2B18               	goto	u2750
  4049  0317                     u2751:
  4050  0317  2B37               	goto	l3019
  4051  0318                     u2750:
  4052  0318                     l3015:
  4053  0318  0842               	movf	___flmul@prod,w
  4054  0319  00B6               	movwf	??___flmul
  4055  031A  0843               	movf	___flmul@prod+1,w
  4056  031B  00B7               	movwf	??___flmul+1
  4057  031C  0844               	movf	___flmul@prod+2,w
  4058  031D  00B8               	movwf	??___flmul+2
  4059  031E  0845               	movf	___flmul@prod+3,w
  4060  031F  00B9               	movwf	??___flmul+3
  4061  0320  3001               	movlw	1
  4062  0321  00BA               	movwf	??___flmul+4
  4063  0322                     u2765:
  4064  0322  0D39               	rlf	??___flmul+3,w
  4065  0323  0CB9               	rrf	??___flmul+3,f
  4066  0324  0CB8               	rrf	??___flmul+2,f
  4067  0325  0CB7               	rrf	??___flmul+1,f
  4068  0326  0CB6               	rrf	??___flmul,f
  4069  0327                     u2760:
  4070  0327  0BBA               	decfsz	??___flmul+4,f
  4071  0328  2B22               	goto	u2765
  4072  0329  0839               	movf	??___flmul+3,w
  4073  032A  00C5               	movwf	___flmul@prod+3
  4074  032B  0838               	movf	??___flmul+2,w
  4075  032C  00C4               	movwf	___flmul@prod+2
  4076  032D  0837               	movf	??___flmul+1,w
  4077  032E  00C3               	movwf	___flmul@prod+1
  4078  032F  0836               	movf	??___flmul,w
  4079  0330  00C2               	movwf	___flmul@prod
  4080  0331                     l3017:
  4081  0331  3001               	movlw	1
  4082  0332  07C6               	addwf	___flmul@temp,f
  4083  0333  1803               	skipnc
  4084  0334  0AC7               	incf	___flmul@temp+1,f
  4085  0335  3000               	movlw	0
  4086  0336  07C7               	addwf	___flmul@temp+1,f
  4087  0337                     l3019:
  4088  0337  0847               	movf	___flmul@temp+1,w
  4089  0338  3A80               	xorlw	128
  4090  0339  00FF               	movwf	btemp+1
  4091  033A  3080               	movlw	128
  4092  033B  027F               	subwf	btemp+1,w
  4093  033C  1D03               	skipz
  4094  033D  2B40               	goto	u2775
  4095  033E  30FF               	movlw	255
  4096  033F  0246               	subwf	___flmul@temp,w
  4097  0340                     u2775:
  4098  0340  1C03               	skipc
  4099  0341  2B43               	goto	u2771
  4100  0342  2B44               	goto	u2770
  4101  0343                     u2771:
  4102  0343  2B4F               	goto	l3023
  4103  0344                     u2770:
  4104  0344                     l3021:
  4105  0344  307F               	movlw	127
  4106  0345  1283               	bcf	3,5	;RP0=0, select bank0
  4107  0346  1303               	bcf	3,6	;RP1=0, select bank0
  4108  0347  00C5               	movwf	___flmul@prod+3
  4109  0348  3080               	movlw	128
  4110  0349  00C4               	movwf	___flmul@prod+2
  4111  034A  3000               	movlw	0
  4112  034B  00C3               	movwf	___flmul@prod+1
  4113  034C  3000               	movlw	0
  4114  034D  00C2               	movwf	___flmul@prod
  4115  034E  2B84               	goto	l844
  4116  034F                     l3023:
  4117  034F  1283               	bcf	3,5	;RP0=0, select bank0
  4118  0350  1303               	bcf	3,6	;RP1=0, select bank0
  4119  0351  0847               	movf	___flmul@temp+1,w
  4120  0352  3A80               	xorlw	128
  4121  0353  00FF               	movwf	btemp+1
  4122  0354  3080               	movlw	128
  4123  0355  027F               	subwf	btemp+1,w
  4124  0356  1D03               	skipz
  4125  0357  2B5A               	goto	u2785
  4126  0358  3001               	movlw	1
  4127  0359  0246               	subwf	___flmul@temp,w
  4128  035A                     u2785:
  4129  035A  1803               	skipnc
  4130  035B  2B5D               	goto	u2781
  4131  035C  2B5E               	goto	u2780
  4132  035D                     u2781:
  4133  035D  2B6A               	goto	l3029
  4134  035E                     u2780:
  4135  035E                     l3025:
  4136  035E  3000               	movlw	0
  4137  035F  1283               	bcf	3,5	;RP0=0, select bank0
  4138  0360  1303               	bcf	3,6	;RP1=0, select bank0
  4139  0361  00C5               	movwf	___flmul@prod+3
  4140  0362  3000               	movlw	0
  4141  0363  00C4               	movwf	___flmul@prod+2
  4142  0364  3000               	movlw	0
  4143  0365  00C3               	movwf	___flmul@prod+1
  4144  0366  3000               	movlw	0
  4145  0367  00C2               	movwf	___flmul@prod
  4146  0368                     l3027:
  4147  0368  01BB               	clrf	___flmul@sign
  4148  0369  2B84               	goto	l844
  4149  036A                     l3029:
  4150  036A  1283               	bcf	3,5	;RP0=0, select bank0
  4151  036B  1303               	bcf	3,6	;RP1=0, select bank0
  4152  036C  0846               	movf	___flmul@temp,w
  4153  036D  00B6               	movwf	??___flmul
  4154  036E  0836               	movf	??___flmul,w
  4155  036F  00C1               	movwf	___flmul@bexp
  4156  0370  30FF               	movlw	255
  4157  0371  05C2               	andwf	___flmul@prod,f
  4158  0372  30FF               	movlw	255
  4159  0373  05C3               	andwf	___flmul@prod+1,f
  4160  0374  307F               	movlw	127
  4161  0375  05C4               	andwf	___flmul@prod+2,f
  4162  0376  3000               	movlw	0
  4163  0377  05C5               	andwf	___flmul@prod+3,f
  4164  0378                     l3031:
  4165  0378  1C41               	btfss	___flmul@bexp,0
  4166  0379  2B7B               	goto	u2791
  4167  037A  2B7C               	goto	u2790
  4168  037B                     u2791:
  4169  037B  2B7D               	goto	l3035
  4170  037C                     u2790:
  4171  037C                     l3033:
  4172  037C  17C4               	bsf	___flmul@prod+2,7
  4173  037D                     l3035:
  4174  037D  0841               	movf	___flmul@bexp,w
  4175  037E  00B6               	movwf	??___flmul
  4176  037F  1003               	clrc
  4177  0380  0C36               	rrf	??___flmul,w
  4178  0381  00B7               	movwf	??___flmul+1
  4179  0382  0837               	movf	??___flmul+1,w
  4180  0383  00C5               	movwf	___flmul@prod+3
  4181  0384                     l844:
  4182  0384  083B               	movf	___flmul@sign,w
  4183  0385  00B6               	movwf	??___flmul
  4184  0386  0836               	movf	??___flmul,w
  4185  0387  04C5               	iorwf	___flmul@prod+3,f
  4186  0388                     l3037:
  4187  0388  0845               	movf	___flmul@prod+3,w
  4188  0389  00B1               	movwf	?___flmul+3
  4189  038A  0844               	movf	___flmul@prod+2,w
  4190  038B  00B0               	movwf	?___flmul+2
  4191  038C  0843               	movf	___flmul@prod+1,w
  4192  038D  00AF               	movwf	?___flmul+1
  4193  038E  0842               	movf	___flmul@prod,w
  4194  038F  00AE               	movwf	?___flmul
  4195  0390                     l832:
  4196  0390  0008               	return
  4197  0391                     __end_of___flmul:
  4198                           
  4199                           	psect	text10
  4200  0E7C                     __ptext10:	
  4201 ;; *************** function __Umul8_16 *****************
  4202 ;; Defined at:
  4203 ;;		line 4 in file "C:\Program Files\Microchip\xc8\v2.31\pic\sources\c90\common\Umul8_16.c"
  4204 ;; Parameters:    Size  Location     Type
  4205 ;;  multiplier      1    wreg     unsigned char 
  4206 ;;  multiplicand    1    0[BANK0 ] unsigned char 
  4207 ;; Auto vars:     Size  Location     Type
  4208 ;;  multiplier      1    8[BANK0 ] unsigned char 
  4209 ;;  word_mpld       2    6[BANK0 ] unsigned int 
  4210 ;;  product         2    4[BANK0 ] unsigned int 
  4211 ;; Return value:  Size  Location     Type
  4212 ;;                  2    0[BANK0 ] unsigned int 
  4213 ;; Registers used:
  4214 ;;		wreg, status,2, status,0
  4215 ;; Tracked objects:
  4216 ;;		On entry : 0/0
  4217 ;;		On exit  : 0/0
  4218 ;;		Unchanged: 0/0
  4219 ;; Data sizes:     COMMON   BANK0   BANK1   BANK3   BANK2
  4220 ;;      Params:         0       2       0       0       0
  4221 ;;      Locals:         0       5       0       0       0
  4222 ;;      Temps:          0       2       0       0       0
  4223 ;;      Totals:         0       9       0       0       0
  4224 ;;Total ram usage:        9 bytes
  4225 ;; Hardware stack levels used:    1
  4226 ;; Hardware stack levels required when called:    3
  4227 ;; This function calls:
  4228 ;;		Nothing
  4229 ;; This function is called by:
  4230 ;;		___flmul
  4231 ;; This function uses a non-reentrant model
  4232 ;;
  4233                           
  4234                           
  4235                           ;psect for function __Umul8_16
  4236  0E7C                     __Umul8_16:
  4237                           
  4238                           ;incstack = 0
  4239                           ; Regs used in __Umul8_16: [wreg+status,2+status,0]
  4240                           ;__Umul8_16@multiplier stored from wreg
  4241  0E7C  1283               	bcf	3,5	;RP0=0, select bank0
  4242  0E7D  1303               	bcf	3,6	;RP1=0, select bank0
  4243  0E7E  00A8               	movwf	__Umul8_16@multiplier
  4244  0E7F                     l2661:
  4245  0E7F  01A4               	clrf	__Umul8_16@product
  4246  0E80  01A5               	clrf	__Umul8_16@product+1
  4247  0E81                     l2663:
  4248  0E81  0820               	movf	__Umul8_16@multiplicand,w
  4249  0E82  00A2               	movwf	??__Umul8_16
  4250  0E83  01A3               	clrf	??__Umul8_16+1
  4251  0E84  0822               	movf	??__Umul8_16,w
  4252  0E85  00A6               	movwf	__Umul8_16@word_mpld
  4253  0E86  0823               	movf	??__Umul8_16+1,w
  4254  0E87  00A7               	movwf	__Umul8_16@word_mpld+1
  4255  0E88                     l2665:
  4256  0E88  1C28               	btfss	__Umul8_16@multiplier,0
  4257  0E89  2E8B               	goto	u2371
  4258  0E8A  2E8C               	goto	u2370
  4259  0E8B                     u2371:
  4260  0E8B  2E92               	goto	l851
  4261  0E8C                     u2370:
  4262  0E8C                     l2667:
  4263  0E8C  0826               	movf	__Umul8_16@word_mpld,w
  4264  0E8D  07A4               	addwf	__Umul8_16@product,f
  4265  0E8E  1803               	skipnc
  4266  0E8F  0AA5               	incf	__Umul8_16@product+1,f
  4267  0E90  0827               	movf	__Umul8_16@word_mpld+1,w
  4268  0E91  07A5               	addwf	__Umul8_16@product+1,f
  4269  0E92                     l851:
  4270  0E92  3001               	movlw	1
  4271  0E93                     u2385:
  4272  0E93  1003               	clrc
  4273  0E94  0DA6               	rlf	__Umul8_16@word_mpld,f
  4274  0E95  0DA7               	rlf	__Umul8_16@word_mpld+1,f
  4275  0E96  3EFF               	addlw	-1
  4276  0E97  1D03               	skipz
  4277  0E98  2E93               	goto	u2385
  4278  0E99  1003               	clrc
  4279  0E9A  0CA8               	rrf	__Umul8_16@multiplier,f
  4280  0E9B                     l2669:
  4281  0E9B  0828               	movf	__Umul8_16@multiplier,w
  4282  0E9C  1D03               	btfss	3,2
  4283  0E9D  2E9F               	goto	u2391
  4284  0E9E  2EA0               	goto	u2390
  4285  0E9F                     u2391:
  4286  0E9F  2E88               	goto	l2665
  4287  0EA0                     u2390:
  4288  0EA0                     l2671:
  4289  0EA0  0825               	movf	__Umul8_16@product+1,w
  4290  0EA1  00A1               	movwf	?__Umul8_16+1
  4291  0EA2  0824               	movf	__Umul8_16@product,w
  4292  0EA3  00A0               	movwf	?__Umul8_16
  4293  0EA4                     l853:
  4294  0EA4  0008               	return
  4295  0EA5                     __end_of__Umul8_16:
  4296                           
  4297                           	psect	text11
  4298  0E26                     __ptext11:	
  4299 ;; *************** function ___bmul *****************
  4300 ;; Defined at:
  4301 ;;		line 4 in file "C:\Program Files\Microchip\xc8\v2.31\pic\sources\c90\common\Umul8.c"
  4302 ;; Parameters:    Size  Location     Type
  4303 ;;  multiplier      1    wreg     unsigned char 
  4304 ;;  multiplicand    1    2[BANK0 ] unsigned char 
  4305 ;; Auto vars:     Size  Location     Type
  4306 ;;  multiplier      1    5[BANK0 ] unsigned char 
  4307 ;;  product         1    4[BANK0 ] unsigned char 
  4308 ;; Return value:  Size  Location     Type
  4309 ;;                  1    wreg      unsigned char 
  4310 ;; Registers used:
  4311 ;;		wreg, status,2, status,0
  4312 ;; Tracked objects:
  4313 ;;		On entry : 0/0
  4314 ;;		On exit  : 0/0
  4315 ;;		Unchanged: 0/0
  4316 ;; Data sizes:     COMMON   BANK0   BANK1   BANK3   BANK2
  4317 ;;      Params:         0       1       0       0       0
  4318 ;;      Locals:         0       2       0       0       0
  4319 ;;      Temps:          0       1       0       0       0
  4320 ;;      Totals:         0       4       0       0       0
  4321 ;;Total ram usage:        4 bytes
  4322 ;; Hardware stack levels used:    1
  4323 ;; Hardware stack levels required when called:    3
  4324 ;; This function calls:
  4325 ;;		Nothing
  4326 ;; This function is called by:
  4327 ;;		_main
  4328 ;; This function uses a non-reentrant model
  4329 ;;
  4330                           
  4331                           
  4332                           ;psect for function ___bmul
  4333  0E26                     ___bmul:
  4334                           
  4335                           ;incstack = 0
  4336                           ; Regs used in ___bmul: [wreg+status,2+status,0]
  4337                           ;___bmul@multiplier stored from wreg
  4338  0E26  1283               	bcf	3,5	;RP0=0, select bank0
  4339  0E27  1303               	bcf	3,6	;RP1=0, select bank0
  4340  0E28  00A5               	movwf	___bmul@multiplier
  4341  0E29                     l2159:
  4342  0E29  01A4               	clrf	___bmul@product
  4343  0E2A                     l2161:
  4344  0E2A  1C25               	btfss	___bmul@multiplier,0
  4345  0E2B  2E2D               	goto	u1431
  4346  0E2C  2E2E               	goto	u1430
  4347  0E2D                     u1431:
  4348  0E2D  2E32               	goto	l2165
  4349  0E2E                     u1430:
  4350  0E2E                     l2163:
  4351  0E2E  0822               	movf	___bmul@multiplicand,w
  4352  0E2F  00A3               	movwf	??___bmul
  4353  0E30  0823               	movf	??___bmul,w
  4354  0E31  07A4               	addwf	___bmul@product,f
  4355  0E32                     l2165:
  4356  0E32  1003               	clrc
  4357  0E33  0DA2               	rlf	___bmul@multiplicand,f
  4358  0E34                     l2167:
  4359  0E34  1003               	clrc
  4360  0E35  0CA5               	rrf	___bmul@multiplier,f
  4361  0E36  0825               	movf	___bmul@multiplier,w
  4362  0E37  1D03               	btfss	3,2
  4363  0E38  2E3A               	goto	u1441
  4364  0E39  2E3B               	goto	u1440
  4365  0E3A                     u1441:
  4366  0E3A  2E2A               	goto	l2161
  4367  0E3B                     u1440:
  4368  0E3B                     l2169:
  4369  0E3B  0824               	movf	___bmul@product,w
  4370  0E3C                     l469:
  4371  0E3C  0008               	return
  4372  0E3D                     __end_of___bmul:
  4373                           
  4374                           	psect	text12
  4375  0ED2                     __ptext12:	
  4376 ;; *************** function _BTD_UNIDAD *****************
  4377 ;; Defined at:
  4378 ;;		line 25 in file "BTD_CONVERTER.c"
  4379 ;; Parameters:    Size  Location     Type
  4380 ;;  valor2          2    7[BANK0 ] int 
  4381 ;; Auto vars:     Size  Location     Type
  4382 ;;  salida2         2   11[BANK0 ] int 
  4383 ;;  temporal2       2    9[BANK0 ] int 
  4384 ;; Return value:  Size  Location     Type
  4385 ;;                  2    7[BANK0 ] int 
  4386 ;; Registers used:
  4387 ;;		wreg, status,2, status,0, pclath, cstack
  4388 ;; Tracked objects:
  4389 ;;		On entry : 0/0
  4390 ;;		On exit  : 0/0
  4391 ;;		Unchanged: 0/0
  4392 ;; Data sizes:     COMMON   BANK0   BANK1   BANK3   BANK2
  4393 ;;      Params:         0       2       0       0       0
  4394 ;;      Locals:         0       4       0       0       0
  4395 ;;      Temps:          0       0       0       0       0
  4396 ;;      Totals:         0       6       0       0       0
  4397 ;;Total ram usage:        6 bytes
  4398 ;; Hardware stack levels used:    1
  4399 ;; Hardware stack levels required when called:    4
  4400 ;; This function calls:
  4401 ;;		___awmod
  4402 ;; This function is called by:
  4403 ;;		_main
  4404 ;; This function uses a non-reentrant model
  4405 ;;
  4406                           
  4407                           
  4408                           ;psect for function _BTD_UNIDAD
  4409  0ED2                     _BTD_UNIDAD:
  4410  0ED2                     l2887:	
  4411                           ;incstack = 0
  4412                           ; Regs used in _BTD_UNIDAD: [wreg+status,2+status,0+pclath+cstack]
  4413                           
  4414                           
  4415                           ;BTD_CONVERTER.c: 26:     int temporal2;;BTD_CONVERTER.c: 27:     int salida2;;BTD_CONVE
      +                          RTER.c: 28:     temporal2 = valor2 % 100;
  4416  0ED2  3064               	movlw	100
  4417  0ED3  1283               	bcf	3,5	;RP0=0, select bank0
  4418  0ED4  1303               	bcf	3,6	;RP1=0, select bank0
  4419  0ED5  00A0               	movwf	___awmod@divisor
  4420  0ED6  3000               	movlw	0
  4421  0ED7  00A1               	movwf	___awmod@divisor+1
  4422  0ED8  0828               	movf	BTD_UNIDAD@valor2+1,w
  4423  0ED9  00A3               	movwf	___awmod@dividend+1
  4424  0EDA  0827               	movf	BTD_UNIDAD@valor2,w
  4425  0EDB  00A2               	movwf	___awmod@dividend
  4426  0EDC  120A  158A  27A5  120A  158A  	fcall	___awmod
  4427  0EE1  1283               	bcf	3,5	;RP0=0, select bank0
  4428  0EE2  1303               	bcf	3,6	;RP1=0, select bank0
  4429  0EE3  0821               	movf	?___awmod+1,w
  4430  0EE4  00AA               	movwf	BTD_UNIDAD@temporal2+1
  4431  0EE5  0820               	movf	?___awmod,w
  4432  0EE6  00A9               	movwf	BTD_UNIDAD@temporal2
  4433                           
  4434                           ;BTD_CONVERTER.c: 29:     salida2 = temporal2 % 10;
  4435  0EE7  300A               	movlw	10
  4436  0EE8  00A0               	movwf	___awmod@divisor
  4437  0EE9  3000               	movlw	0
  4438  0EEA  00A1               	movwf	___awmod@divisor+1
  4439  0EEB  082A               	movf	BTD_UNIDAD@temporal2+1,w
  4440  0EEC  00A3               	movwf	___awmod@dividend+1
  4441  0EED  0829               	movf	BTD_UNIDAD@temporal2,w
  4442  0EEE  00A2               	movwf	___awmod@dividend
  4443  0EEF  120A  158A  27A5  120A  158A  	fcall	___awmod
  4444  0EF4  1283               	bcf	3,5	;RP0=0, select bank0
  4445  0EF5  1303               	bcf	3,6	;RP1=0, select bank0
  4446  0EF6  0821               	movf	?___awmod+1,w
  4447  0EF7  00AC               	movwf	BTD_UNIDAD@salida2+1
  4448  0EF8  0820               	movf	?___awmod,w
  4449  0EF9  00AB               	movwf	BTD_UNIDAD@salida2
  4450  0EFA                     l2889:
  4451                           
  4452                           ;BTD_CONVERTER.c: 30:     return (salida2);
  4453  0EFA  082C               	movf	BTD_UNIDAD@salida2+1,w
  4454  0EFB  00A8               	movwf	?_BTD_UNIDAD+1
  4455  0EFC  082B               	movf	BTD_UNIDAD@salida2,w
  4456  0EFD  00A7               	movwf	?_BTD_UNIDAD
  4457  0EFE                     l183:
  4458  0EFE  0008               	return
  4459  0EFF                     __end_of_BTD_UNIDAD:
  4460                           
  4461                           	psect	text13
  4462  0EA5                     __ptext13:	
  4463 ;; *************** function _BTD_DECIMAL *****************
  4464 ;; Defined at:
  4465 ;;		line 18 in file "BTD_CONVERTER.c"
  4466 ;; Parameters:    Size  Location     Type
  4467 ;;  valor1          2    9[BANK0 ] int 
  4468 ;; Auto vars:     Size  Location     Type
  4469 ;;  salida1         2   13[BANK0 ] int 
  4470 ;;  temporal1       2   11[BANK0 ] int 
  4471 ;; Return value:  Size  Location     Type
  4472 ;;                  2    9[BANK0 ] int 
  4473 ;; Registers used:
  4474 ;;		wreg, status,2, status,0, pclath, cstack
  4475 ;; Tracked objects:
  4476 ;;		On entry : 0/0
  4477 ;;		On exit  : 0/0
  4478 ;;		Unchanged: 0/0
  4479 ;; Data sizes:     COMMON   BANK0   BANK1   BANK3   BANK2
  4480 ;;      Params:         0       2       0       0       0
  4481 ;;      Locals:         0       4       0       0       0
  4482 ;;      Temps:          0       0       0       0       0
  4483 ;;      Totals:         0       6       0       0       0
  4484 ;;Total ram usage:        6 bytes
  4485 ;; Hardware stack levels used:    1
  4486 ;; Hardware stack levels required when called:    4
  4487 ;; This function calls:
  4488 ;;		___awdiv
  4489 ;;		___awmod
  4490 ;; This function is called by:
  4491 ;;		_main
  4492 ;; This function uses a non-reentrant model
  4493 ;;
  4494                           
  4495                           
  4496                           ;psect for function _BTD_DECIMAL
  4497  0EA5                     _BTD_DECIMAL:
  4498  0EA5                     l2811:	
  4499                           ;incstack = 0
  4500                           ; Regs used in _BTD_DECIMAL: [wreg+status,2+status,0+pclath+cstack]
  4501                           
  4502                           
  4503                           ;BTD_CONVERTER.c: 19:     int temporal1;;BTD_CONVERTER.c: 20:     int salida1;;BTD_CONVE
      +                          RTER.c: 21:     temporal1 = valor1 % 100;
  4504  0EA5  3064               	movlw	100
  4505  0EA6  1283               	bcf	3,5	;RP0=0, select bank0
  4506  0EA7  1303               	bcf	3,6	;RP1=0, select bank0
  4507  0EA8  00A0               	movwf	___awmod@divisor
  4508  0EA9  3000               	movlw	0
  4509  0EAA  00A1               	movwf	___awmod@divisor+1
  4510  0EAB  082A               	movf	BTD_DECIMAL@valor1+1,w
  4511  0EAC  00A3               	movwf	___awmod@dividend+1
  4512  0EAD  0829               	movf	BTD_DECIMAL@valor1,w
  4513  0EAE  00A2               	movwf	___awmod@dividend
  4514  0EAF  120A  158A  27A5  120A  158A  	fcall	___awmod
  4515  0EB4  1283               	bcf	3,5	;RP0=0, select bank0
  4516  0EB5  1303               	bcf	3,6	;RP1=0, select bank0
  4517  0EB6  0821               	movf	?___awmod+1,w
  4518  0EB7  00AC               	movwf	BTD_DECIMAL@temporal1+1
  4519  0EB8  0820               	movf	?___awmod,w
  4520  0EB9  00AB               	movwf	BTD_DECIMAL@temporal1
  4521                           
  4522                           ;BTD_CONVERTER.c: 22:     salida1 = temporal1/10;
  4523  0EBA  300A               	movlw	10
  4524  0EBB  00A0               	movwf	___awdiv@divisor
  4525  0EBC  3000               	movlw	0
  4526  0EBD  00A1               	movwf	___awdiv@divisor+1
  4527  0EBE  082C               	movf	BTD_DECIMAL@temporal1+1,w
  4528  0EBF  00A3               	movwf	___awdiv@dividend+1
  4529  0EC0  082B               	movf	BTD_DECIMAL@temporal1,w
  4530  0EC1  00A2               	movwf	___awdiv@dividend
  4531  0EC2  120A  118A  26F5  120A  158A  	fcall	___awdiv
  4532  0EC7  1283               	bcf	3,5	;RP0=0, select bank0
  4533  0EC8  1303               	bcf	3,6	;RP1=0, select bank0
  4534  0EC9  0821               	movf	?___awdiv+1,w
  4535  0ECA  00AE               	movwf	BTD_DECIMAL@salida1+1
  4536  0ECB  0820               	movf	?___awdiv,w
  4537  0ECC  00AD               	movwf	BTD_DECIMAL@salida1
  4538  0ECD                     l2813:
  4539                           
  4540                           ;BTD_CONVERTER.c: 23:     return (salida1);
  4541  0ECD  082E               	movf	BTD_DECIMAL@salida1+1,w
  4542  0ECE  00AA               	movwf	?_BTD_DECIMAL+1
  4543  0ECF  082D               	movf	BTD_DECIMAL@salida1,w
  4544  0ED0  00A9               	movwf	?_BTD_DECIMAL
  4545  0ED1                     l180:
  4546  0ED1  0008               	return
  4547  0ED2                     __end_of_BTD_DECIMAL:
  4548                           
  4549                           	psect	text14
  4550  0FA5                     __ptext14:	
  4551 ;; *************** function ___awmod *****************
  4552 ;; Defined at:
  4553 ;;		line 5 in file "C:\Program Files\Microchip\xc8\v2.31\pic\sources\c90\common\awmod.c"
  4554 ;; Parameters:    Size  Location     Type
  4555 ;;  divisor         2    0[BANK0 ] int 
  4556 ;;  dividend        2    2[BANK0 ] int 
  4557 ;; Auto vars:     Size  Location     Type
  4558 ;;  sign            1    6[BANK0 ] unsigned char 
  4559 ;;  counter         1    5[BANK0 ] unsigned char 
  4560 ;; Return value:  Size  Location     Type
  4561 ;;                  2    0[BANK0 ] int 
  4562 ;; Registers used:
  4563 ;;		wreg, status,2, status,0
  4564 ;; Tracked objects:
  4565 ;;		On entry : 0/0
  4566 ;;		On exit  : 0/0
  4567 ;;		Unchanged: 0/0
  4568 ;; Data sizes:     COMMON   BANK0   BANK1   BANK3   BANK2
  4569 ;;      Params:         0       4       0       0       0
  4570 ;;      Locals:         0       2       0       0       0
  4571 ;;      Temps:          0       1       0       0       0
  4572 ;;      Totals:         0       7       0       0       0
  4573 ;;Total ram usage:        7 bytes
  4574 ;; Hardware stack levels used:    1
  4575 ;; Hardware stack levels required when called:    3
  4576 ;; This function calls:
  4577 ;;		Nothing
  4578 ;; This function is called by:
  4579 ;;		_BTD_DECIMAL
  4580 ;;		_BTD_UNIDAD
  4581 ;; This function uses a non-reentrant model
  4582 ;;
  4583                           
  4584                           
  4585                           ;psect for function ___awmod
  4586  0FA5                     ___awmod:
  4587  0FA5                     l2623:	
  4588                           ;incstack = 0
  4589                           ; Regs used in ___awmod: [wreg+status,2+status,0]
  4590                           
  4591  0FA5  1283               	bcf	3,5	;RP0=0, select bank0
  4592  0FA6  1303               	bcf	3,6	;RP1=0, select bank0
  4593  0FA7  01A6               	clrf	___awmod@sign
  4594  0FA8                     l2625:
  4595  0FA8  1FA3               	btfss	___awmod@dividend+1,7
  4596  0FA9  2FAB               	goto	u2281
  4597  0FAA  2FAC               	goto	u2280
  4598  0FAB                     u2281:
  4599  0FAB  2FB3               	goto	l2631
  4600  0FAC                     u2280:
  4601  0FAC                     l2627:
  4602  0FAC  09A2               	comf	___awmod@dividend,f
  4603  0FAD  09A3               	comf	___awmod@dividend+1,f
  4604  0FAE  0AA2               	incf	___awmod@dividend,f
  4605  0FAF  1903               	skipnz
  4606  0FB0  0AA3               	incf	___awmod@dividend+1,f
  4607  0FB1                     l2629:
  4608  0FB1  01A6               	clrf	___awmod@sign
  4609  0FB2  0AA6               	incf	___awmod@sign,f
  4610  0FB3                     l2631:
  4611  0FB3  1FA1               	btfss	___awmod@divisor+1,7
  4612  0FB4  2FB6               	goto	u2291
  4613  0FB5  2FB7               	goto	u2290
  4614  0FB6                     u2291:
  4615  0FB6  2FBC               	goto	l2635
  4616  0FB7                     u2290:
  4617  0FB7                     l2633:
  4618  0FB7  09A0               	comf	___awmod@divisor,f
  4619  0FB8  09A1               	comf	___awmod@divisor+1,f
  4620  0FB9  0AA0               	incf	___awmod@divisor,f
  4621  0FBA  1903               	skipnz
  4622  0FBB  0AA1               	incf	___awmod@divisor+1,f
  4623  0FBC                     l2635:
  4624  0FBC  0820               	movf	___awmod@divisor,w
  4625  0FBD  0421               	iorwf	___awmod@divisor+1,w
  4626  0FBE  1903               	btfsc	3,2
  4627  0FBF  2FC1               	goto	u2301
  4628  0FC0  2FC2               	goto	u2300
  4629  0FC1                     u2301:
  4630  0FC1  2FF1               	goto	l2653
  4631  0FC2                     u2300:
  4632  0FC2                     l2637:
  4633  0FC2  01A5               	clrf	___awmod@counter
  4634  0FC3  0AA5               	incf	___awmod@counter,f
  4635  0FC4  2FD0               	goto	l2643
  4636  0FC5                     l2639:
  4637  0FC5  3001               	movlw	1
  4638  0FC6                     u2315:
  4639  0FC6  1003               	clrc
  4640  0FC7  0DA0               	rlf	___awmod@divisor,f
  4641  0FC8  0DA1               	rlf	___awmod@divisor+1,f
  4642  0FC9  3EFF               	addlw	-1
  4643  0FCA  1D03               	skipz
  4644  0FCB  2FC6               	goto	u2315
  4645  0FCC                     l2641:
  4646  0FCC  3001               	movlw	1
  4647  0FCD  00A4               	movwf	??___awmod
  4648  0FCE  0824               	movf	??___awmod,w
  4649  0FCF  07A5               	addwf	___awmod@counter,f
  4650  0FD0                     l2643:
  4651  0FD0  1FA1               	btfss	___awmod@divisor+1,7
  4652  0FD1  2FD3               	goto	u2321
  4653  0FD2  2FD4               	goto	u2320
  4654  0FD3                     u2321:
  4655  0FD3  2FC5               	goto	l2639
  4656  0FD4                     u2320:
  4657  0FD4                     l2645:
  4658  0FD4  0821               	movf	___awmod@divisor+1,w
  4659  0FD5  0223               	subwf	___awmod@dividend+1,w
  4660  0FD6  1D03               	skipz
  4661  0FD7  2FDA               	goto	u2335
  4662  0FD8  0820               	movf	___awmod@divisor,w
  4663  0FD9  0222               	subwf	___awmod@dividend,w
  4664  0FDA                     u2335:
  4665  0FDA  1C03               	skipc
  4666  0FDB  2FDD               	goto	u2331
  4667  0FDC  2FDE               	goto	u2330
  4668  0FDD                     u2331:
  4669  0FDD  2FE4               	goto	l2649
  4670  0FDE                     u2330:
  4671  0FDE                     l2647:
  4672  0FDE  0820               	movf	___awmod@divisor,w
  4673  0FDF  02A2               	subwf	___awmod@dividend,f
  4674  0FE0  0821               	movf	___awmod@divisor+1,w
  4675  0FE1  1C03               	skipc
  4676  0FE2  03A3               	decf	___awmod@dividend+1,f
  4677  0FE3  02A3               	subwf	___awmod@dividend+1,f
  4678  0FE4                     l2649:
  4679  0FE4  3001               	movlw	1
  4680  0FE5                     u2345:
  4681  0FE5  1003               	clrc
  4682  0FE6  0CA1               	rrf	___awmod@divisor+1,f
  4683  0FE7  0CA0               	rrf	___awmod@divisor,f
  4684  0FE8  3EFF               	addlw	-1
  4685  0FE9  1D03               	skipz
  4686  0FEA  2FE5               	goto	u2345
  4687  0FEB                     l2651:
  4688  0FEB  3001               	movlw	1
  4689  0FEC  02A5               	subwf	___awmod@counter,f
  4690  0FED  1D03               	btfss	3,2
  4691  0FEE  2FF0               	goto	u2351
  4692  0FEF  2FF1               	goto	u2350
  4693  0FF0                     u2351:
  4694  0FF0  2FD4               	goto	l2645
  4695  0FF1                     u2350:
  4696  0FF1                     l2653:
  4697  0FF1  0826               	movf	___awmod@sign,w
  4698  0FF2  1903               	btfsc	3,2
  4699  0FF3  2FF5               	goto	u2361
  4700  0FF4  2FF6               	goto	u2360
  4701  0FF5                     u2361:
  4702  0FF5  2FFB               	goto	l2657
  4703  0FF6                     u2360:
  4704  0FF6                     l2655:
  4705  0FF6  09A2               	comf	___awmod@dividend,f
  4706  0FF7  09A3               	comf	___awmod@dividend+1,f
  4707  0FF8  0AA2               	incf	___awmod@dividend,f
  4708  0FF9  1903               	skipnz
  4709  0FFA  0AA3               	incf	___awmod@dividend+1,f
  4710  0FFB                     l2657:
  4711  0FFB  0823               	movf	___awmod@dividend+1,w
  4712  0FFC  00A1               	movwf	?___awmod+1
  4713  0FFD  0822               	movf	___awmod@dividend,w
  4714  0FFE  00A0               	movwf	?___awmod
  4715  0FFF                     l609:
  4716  0FFF  0008               	return
  4717  1000                     __end_of___awmod:
  4718                           
  4719                           	psect	text15
  4720  06F5                     __ptext15:	
  4721 ;; *************** function ___awdiv *****************
  4722 ;; Defined at:
  4723 ;;		line 5 in file "C:\Program Files\Microchip\xc8\v2.31\pic\sources\c90\common\awdiv.c"
  4724 ;; Parameters:    Size  Location     Type
  4725 ;;  divisor         2    0[BANK0 ] int 
  4726 ;;  dividend        2    2[BANK0 ] int 
  4727 ;; Auto vars:     Size  Location     Type
  4728 ;;  quotient        2    7[BANK0 ] int 
  4729 ;;  sign            1    6[BANK0 ] unsigned char 
  4730 ;;  counter         1    5[BANK0 ] unsigned char 
  4731 ;; Return value:  Size  Location     Type
  4732 ;;                  2    0[BANK0 ] int 
  4733 ;; Registers used:
  4734 ;;		wreg, status,2, status,0
  4735 ;; Tracked objects:
  4736 ;;		On entry : 0/0
  4737 ;;		On exit  : 0/0
  4738 ;;		Unchanged: 0/0
  4739 ;; Data sizes:     COMMON   BANK0   BANK1   BANK3   BANK2
  4740 ;;      Params:         0       4       0       0       0
  4741 ;;      Locals:         0       4       0       0       0
  4742 ;;      Temps:          0       1       0       0       0
  4743 ;;      Totals:         0       9       0       0       0
  4744 ;;Total ram usage:        9 bytes
  4745 ;; Hardware stack levels used:    1
  4746 ;; Hardware stack levels required when called:    3
  4747 ;; This function calls:
  4748 ;;		Nothing
  4749 ;; This function is called by:
  4750 ;;		_BTD_DECIMAL
  4751 ;;		_BTD_CENTENA
  4752 ;; This function uses a non-reentrant model
  4753 ;;
  4754                           
  4755                           
  4756                           ;psect for function ___awdiv
  4757  06F5                     ___awdiv:
  4758  06F5                     l2579:	
  4759                           ;incstack = 0
  4760                           ; Regs used in ___awdiv: [wreg+status,2+status,0]
  4761                           
  4762  06F5  1283               	bcf	3,5	;RP0=0, select bank0
  4763  06F6  1303               	bcf	3,6	;RP1=0, select bank0
  4764  06F7  01A6               	clrf	___awdiv@sign
  4765  06F8                     l2581:
  4766  06F8  1FA1               	btfss	___awdiv@divisor+1,7
  4767  06F9  2EFB               	goto	u2181
  4768  06FA  2EFC               	goto	u2180
  4769  06FB                     u2181:
  4770  06FB  2F03               	goto	l2587
  4771  06FC                     u2180:
  4772  06FC                     l2583:
  4773  06FC  09A0               	comf	___awdiv@divisor,f
  4774  06FD  09A1               	comf	___awdiv@divisor+1,f
  4775  06FE  0AA0               	incf	___awdiv@divisor,f
  4776  06FF  1903               	skipnz
  4777  0700  0AA1               	incf	___awdiv@divisor+1,f
  4778  0701                     l2585:
  4779  0701  01A6               	clrf	___awdiv@sign
  4780  0702  0AA6               	incf	___awdiv@sign,f
  4781  0703                     l2587:
  4782  0703  1FA3               	btfss	___awdiv@dividend+1,7
  4783  0704  2F06               	goto	u2191
  4784  0705  2F07               	goto	u2190
  4785  0706                     u2191:
  4786  0706  2F10               	goto	l2593
  4787  0707                     u2190:
  4788  0707                     l2589:
  4789  0707  09A2               	comf	___awdiv@dividend,f
  4790  0708  09A3               	comf	___awdiv@dividend+1,f
  4791  0709  0AA2               	incf	___awdiv@dividend,f
  4792  070A  1903               	skipnz
  4793  070B  0AA3               	incf	___awdiv@dividend+1,f
  4794  070C                     l2591:
  4795  070C  3001               	movlw	1
  4796  070D  00A4               	movwf	??___awdiv
  4797  070E  0824               	movf	??___awdiv,w
  4798  070F  06A6               	xorwf	___awdiv@sign,f
  4799  0710                     l2593:
  4800  0710  01A7               	clrf	___awdiv@quotient
  4801  0711  01A8               	clrf	___awdiv@quotient+1
  4802  0712                     l2595:
  4803  0712  0820               	movf	___awdiv@divisor,w
  4804  0713  0421               	iorwf	___awdiv@divisor+1,w
  4805  0714  1903               	btfsc	3,2
  4806  0715  2F17               	goto	u2201
  4807  0716  2F18               	goto	u2200
  4808  0717                     u2201:
  4809  0717  2F4F               	goto	l2615
  4810  0718                     u2200:
  4811  0718                     l2597:
  4812  0718  01A5               	clrf	___awdiv@counter
  4813  0719  0AA5               	incf	___awdiv@counter,f
  4814  071A  2F26               	goto	l2603
  4815  071B                     l2599:
  4816  071B  3001               	movlw	1
  4817  071C                     u2215:
  4818  071C  1003               	clrc
  4819  071D  0DA0               	rlf	___awdiv@divisor,f
  4820  071E  0DA1               	rlf	___awdiv@divisor+1,f
  4821  071F  3EFF               	addlw	-1
  4822  0720  1D03               	skipz
  4823  0721  2F1C               	goto	u2215
  4824  0722                     l2601:
  4825  0722  3001               	movlw	1
  4826  0723  00A4               	movwf	??___awdiv
  4827  0724  0824               	movf	??___awdiv,w
  4828  0725  07A5               	addwf	___awdiv@counter,f
  4829  0726                     l2603:
  4830  0726  1FA1               	btfss	___awdiv@divisor+1,7
  4831  0727  2F29               	goto	u2221
  4832  0728  2F2A               	goto	u2220
  4833  0729                     u2221:
  4834  0729  2F1B               	goto	l2599
  4835  072A                     u2220:
  4836  072A                     l2605:
  4837  072A  3001               	movlw	1
  4838  072B                     u2235:
  4839  072B  1003               	clrc
  4840  072C  0DA7               	rlf	___awdiv@quotient,f
  4841  072D  0DA8               	rlf	___awdiv@quotient+1,f
  4842  072E  3EFF               	addlw	-1
  4843  072F  1D03               	skipz
  4844  0730  2F2B               	goto	u2235
  4845  0731  0821               	movf	___awdiv@divisor+1,w
  4846  0732  0223               	subwf	___awdiv@dividend+1,w
  4847  0733  1D03               	skipz
  4848  0734  2F37               	goto	u2245
  4849  0735  0820               	movf	___awdiv@divisor,w
  4850  0736  0222               	subwf	___awdiv@dividend,w
  4851  0737                     u2245:
  4852  0737  1C03               	skipc
  4853  0738  2F3A               	goto	u2241
  4854  0739  2F3B               	goto	u2240
  4855  073A                     u2241:
  4856  073A  2F42               	goto	l2611
  4857  073B                     u2240:
  4858  073B                     l2607:
  4859  073B  0820               	movf	___awdiv@divisor,w
  4860  073C  02A2               	subwf	___awdiv@dividend,f
  4861  073D  0821               	movf	___awdiv@divisor+1,w
  4862  073E  1C03               	skipc
  4863  073F  03A3               	decf	___awdiv@dividend+1,f
  4864  0740  02A3               	subwf	___awdiv@dividend+1,f
  4865  0741                     l2609:
  4866  0741  1427               	bsf	___awdiv@quotient,0
  4867  0742                     l2611:
  4868  0742  3001               	movlw	1
  4869  0743                     u2255:
  4870  0743  1003               	clrc
  4871  0744  0CA1               	rrf	___awdiv@divisor+1,f
  4872  0745  0CA0               	rrf	___awdiv@divisor,f
  4873  0746  3EFF               	addlw	-1
  4874  0747  1D03               	skipz
  4875  0748  2F43               	goto	u2255
  4876  0749                     l2613:
  4877  0749  3001               	movlw	1
  4878  074A  02A5               	subwf	___awdiv@counter,f
  4879  074B  1D03               	btfss	3,2
  4880  074C  2F4E               	goto	u2261
  4881  074D  2F4F               	goto	u2260
  4882  074E                     u2261:
  4883  074E  2F2A               	goto	l2605
  4884  074F                     u2260:
  4885  074F                     l2615:
  4886  074F  0826               	movf	___awdiv@sign,w
  4887  0750  1903               	btfsc	3,2
  4888  0751  2F53               	goto	u2271
  4889  0752  2F54               	goto	u2270
  4890  0753                     u2271:
  4891  0753  2F59               	goto	l2619
  4892  0754                     u2270:
  4893  0754                     l2617:
  4894  0754  09A7               	comf	___awdiv@quotient,f
  4895  0755  09A8               	comf	___awdiv@quotient+1,f
  4896  0756  0AA7               	incf	___awdiv@quotient,f
  4897  0757  1903               	skipnz
  4898  0758  0AA8               	incf	___awdiv@quotient+1,f
  4899  0759                     l2619:
  4900  0759  0828               	movf	___awdiv@quotient+1,w
  4901  075A  00A1               	movwf	?___awdiv+1
  4902  075B  0827               	movf	___awdiv@quotient,w
  4903  075C  00A0               	movwf	?___awdiv
  4904  075D                     l596:
  4905  075D  0008               	return
  4906  075E                     __end_of___awdiv:
  4907                           
  4908                           	psect	text16
  4909  05EF                     __ptext16:	
  4910 ;; *************** function _isr *****************
  4911 ;; Defined at:
  4912 ;;		line 53 in file "main.c"
  4913 ;; Parameters:    Size  Location     Type
  4914 ;;		None
  4915 ;; Auto vars:     Size  Location     Type
  4916 ;;		None
  4917 ;; Return value:  Size  Location     Type
  4918 ;;                  1    wreg      void 
  4919 ;; Registers used:
  4920 ;;		wreg, fsr0l, fsr0h, status,2, status,0, pclath, cstack
  4921 ;; Tracked objects:
  4922 ;;		On entry : 0/0
  4923 ;;		On exit  : 0/0
  4924 ;;		Unchanged: 0/0
  4925 ;; Data sizes:     COMMON   BANK0   BANK1   BANK3   BANK2
  4926 ;;      Params:         0       0       0       0       0
  4927 ;;      Locals:         0       0       0       0       0
  4928 ;;      Temps:          5       0       0       0       0
  4929 ;;      Totals:         5       0       0       0       0
  4930 ;;Total ram usage:        5 bytes
  4931 ;; Hardware stack levels used:    1
  4932 ;; Hardware stack levels required when called:    2
  4933 ;; This function calls:
  4934 ;;		_spiRead
  4935 ;;		_spiWrite
  4936 ;; This function is called by:
  4937 ;;		Interrupt level 1
  4938 ;; This function uses a non-reentrant model
  4939 ;;
  4940                           
  4941                           
  4942                           ;psect for function _isr
  4943  05EF                     _isr:
  4944  05EF                     i1l2393:
  4945                           
  4946                           ;main.c: 56:     if (RCIF){
  4947  05EF  1283               	bcf	3,5	;RP0=0, select bank0
  4948  05F0  1303               	bcf	3,6	;RP1=0, select bank0
  4949  05F1  1E8C               	btfss	12,5	;volatile
  4950  05F2  2DF4               	goto	u206_21
  4951  05F3  2DF5               	goto	u206_20
  4952  05F4                     u206_21:
  4953  05F4  2E27               	goto	i1l99
  4954  05F5                     u206_20:
  4955  05F5                     i1l2395:
  4956                           
  4957                           ;main.c: 57:        Entrada = RCREG;
  4958  05F5  081A               	movf	26,w	;volatile
  4959  05F6  00F7               	movwf	??_isr
  4960  05F7  0877               	movf	??_isr,w
  4961  05F8  00F5               	movwf	_Entrada
  4962  05F9                     i1l2397:
  4963                           
  4964                           ;main.c: 58:        RCREG = 0;
  4965  05F9  019A               	clrf	26	;volatile
  4966                           
  4967                           ;main.c: 59:        switch(bandera_recibido){
  4968  05FA  2E14               	goto	i1l2407
  4969  05FB                     i1l2399:
  4970  05FB  3002               	movlw	2
  4971  05FC  00F7               	movwf	??_isr
  4972  05FD  0877               	movf	??_isr,w
  4973  05FE  00DB               	movwf	_bandera_recibido
  4974  05FF  0875               	movf	_Entrada,w
  4975  0600  00F7               	movwf	??_isr
  4976  0601  0877               	movf	??_isr,w
  4977  0602  00DA               	movwf	_recibido1
  4978  0603  2E27               	goto	i1l99
  4979  0604                     i1l2401:
  4980  0604  3003               	movlw	3
  4981  0605  00F7               	movwf	??_isr
  4982  0606  0877               	movf	??_isr,w
  4983  0607  00DB               	movwf	_bandera_recibido
  4984  0608  0875               	movf	_Entrada,w
  4985  0609  00F7               	movwf	??_isr
  4986  060A  0877               	movf	??_isr,w
  4987  060B  00D9               	movwf	_recibido2
  4988  060C  2E27               	goto	i1l99
  4989  060D                     i1l104:	
  4990                           ;main.c: 62:            case(3):bandera_recibido = 1; recibido3 = Entrada; break;
  4991                           
  4992  060D  01DB               	clrf	_bandera_recibido
  4993  060E  0ADB               	incf	_bandera_recibido,f
  4994  060F                     i1l2403:
  4995  060F  0875               	movf	_Entrada,w
  4996  0610  00F7               	movwf	??_isr
  4997  0611  0877               	movf	??_isr,w
  4998  0612  00D8               	movwf	_recibido3
  4999  0613  2E27               	goto	i1l99
  5000  0614                     i1l2407:
  5001  0614  085B               	movf	_bandera_recibido,w
  5002  0615  00F7               	movwf	??_isr
  5003  0616  01F8               	clrf	??_isr+1
  5004                           
  5005                           ; Switch on 2 bytes has been partitioned into a top level switch of size 1, and 1 sub-sw
      +                          itches
  5006                           ; Switch size 1, requested type "simple"
  5007                           ; Number of cases is 1, Range of values is 0 to 0
  5008                           ; switch strategies available:
  5009                           ; Name         Instructions Cycles
  5010                           ; simple_byte            4     3 (average)
  5011                           ; direct_byte           11     8 (fixed)
  5012                           ; jumptable            260     6 (fixed)
  5013                           ;	Chosen strategy is simple_byte
  5014  0617  0878               	movf	??_isr+1,w
  5015  0618  3A00               	xorlw	0	; case 0
  5016  0619  1903               	skipnz
  5017  061A  2E1C               	goto	i1l3165
  5018  061B  2E27               	goto	i1l99
  5019  061C                     i1l3165:
  5020                           
  5021                           ; Switch size 1, requested type "simple"
  5022                           ; Number of cases is 3, Range of values is 1 to 3
  5023                           ; switch strategies available:
  5024                           ; Name         Instructions Cycles
  5025                           ; simple_byte           10     6 (average)
  5026                           ; direct_byte           20    11 (fixed)
  5027                           ; jumptable            263     9 (fixed)
  5028                           ;	Chosen strategy is simple_byte
  5029  061C  0877               	movf	??_isr,w
  5030  061D  3A01               	xorlw	1	; case 1
  5031  061E  1903               	skipnz
  5032  061F  2DFB               	goto	i1l2399
  5033  0620  3A03               	xorlw	3	; case 2
  5034  0621  1903               	skipnz
  5035  0622  2E04               	goto	i1l2401
  5036  0623  3A01               	xorlw	1	; case 3
  5037  0624  1903               	skipnz
  5038  0625  2E0D               	goto	i1l104
  5039  0626  2E27               	goto	i1l99
  5040  0627                     i1l99:	
  5041                           ;main.c: 64:     }
  5042                           
  5043                           
  5044                           ;main.c: 68:     if (PIR1bits.TMR1IF){
  5045  0627  1C0C               	btfss	12,0	;volatile
  5046  0628  2E2A               	goto	u207_21
  5047  0629  2E2B               	goto	u207_20
  5048  062A                     u207_21:
  5049  062A  2E37               	goto	i1l2417
  5050  062B                     u207_20:
  5051  062B                     i1l2409:
  5052                           
  5053                           ;main.c: 69:         if(mandar_datos == 0){
  5054  062B  0874               	movf	_mandar_datos,w
  5055  062C  1D03               	btfss	3,2
  5056  062D  2E2F               	goto	u208_21
  5057  062E  2E30               	goto	u208_20
  5058  062F                     u208_21:
  5059  062F  2E32               	goto	i1l2413
  5060  0630                     u208_20:
  5061  0630                     i1l2411:
  5062                           
  5063                           ;main.c: 70:          mandar_datos = 1;
  5064  0630  01F4               	clrf	_mandar_datos
  5065  0631  0AF4               	incf	_mandar_datos,f
  5066  0632                     i1l2413:
  5067                           
  5068                           ;main.c: 72:        TMR1H = 0xE6;
  5069  0632  30E6               	movlw	230
  5070  0633  008F               	movwf	15	;volatile
  5071                           
  5072                           ;main.c: 73:        TMR1L = 0xD4;
  5073  0634  30D4               	movlw	212
  5074  0635  008E               	movwf	14	;volatile
  5075  0636                     i1l2415:
  5076                           
  5077                           ;main.c: 74:        PIR1bits.TMR1IF = 0;
  5078  0636  100C               	bcf	12,0	;volatile
  5079  0637                     i1l2417:
  5080                           
  5081                           ;main.c: 77:     if (T0IF){
  5082  0637  1D0B               	btfss	11,2	;volatile
  5083  0638  2E3A               	goto	u209_21
  5084  0639  2E3B               	goto	u209_20
  5085  063A                     u209_21:
  5086  063A  2E70               	goto	i1l111
  5087  063B                     u209_20:
  5088  063B                     i1l2419:
  5089                           
  5090                           ;main.c: 78:         if (bandera_SPI == 1){
  5091  063B  0373               	decf	_bandera_SPI,w
  5092  063C  1D03               	btfss	3,2
  5093  063D  2E3F               	goto	u210_21
  5094  063E  2E40               	goto	u210_20
  5095  063F                     u210_21:
  5096  063F  2E55               	goto	i1l2425
  5097  0640                     u210_20:
  5098  0640                     i1l2421:
  5099                           
  5100                           ;main.c: 80:             spiWrite(bandera_SPI);
  5101  0640  0873               	movf	_bandera_SPI,w
  5102  0641  120A  158A  2606  120A  118A  	fcall	_spiWrite
  5103                           
  5104                           ;main.c: 81:             pot1=spiRead();
  5105  0646  120A  158A  2613  120A  118A  	fcall	_spiRead
  5106  064B  00F7               	movwf	??_isr
  5107  064C  0877               	movf	??_isr,w
  5108  064D  1283               	bcf	3,5	;RP0=0, select bank0
  5109  064E  1303               	bcf	3,6	;RP1=0, select bank0
  5110  064F  00DE               	movwf	_pot1
  5111  0650                     i1l2423:
  5112                           
  5113                           ;main.c: 83:             bandera_SPI = 2;
  5114  0650  3002               	movlw	2
  5115  0651  00F7               	movwf	??_isr
  5116  0652  0877               	movf	??_isr,w
  5117  0653  00F3               	movwf	_bandera_SPI
  5118                           
  5119                           ;main.c: 84:         }else if (bandera_SPI == 2){
  5120  0654  2E6D               	goto	i1l2431
  5121  0655                     i1l2425:
  5122  0655  3002               	movlw	2
  5123  0656  0673               	xorwf	_bandera_SPI,w
  5124  0657  1D03               	btfss	3,2
  5125  0658  2E5A               	goto	u211_21
  5126  0659  2E5B               	goto	u211_20
  5127  065A                     u211_21:
  5128  065A  2E6D               	goto	i1l2431
  5129  065B                     u211_20:
  5130  065B                     i1l2427:
  5131                           
  5132                           ;main.c: 86:             spiWrite(bandera_SPI);
  5133  065B  0873               	movf	_bandera_SPI,w
  5134  065C  120A  158A  2606  120A  118A  	fcall	_spiWrite
  5135                           
  5136                           ;main.c: 87:             pot2=spiRead();
  5137  0661  120A  158A  2613  120A  118A  	fcall	_spiRead
  5138  0666  00F7               	movwf	??_isr
  5139  0667  0877               	movf	??_isr,w
  5140  0668  1283               	bcf	3,5	;RP0=0, select bank0
  5141  0669  1303               	bcf	3,6	;RP1=0, select bank0
  5142  066A  00DD               	movwf	_pot2
  5143  066B                     i1l2429:
  5144                           
  5145                           ;main.c: 89:             bandera_SPI = 1;
  5146  066B  01F3               	clrf	_bandera_SPI
  5147  066C  0AF3               	incf	_bandera_SPI,f
  5148  066D                     i1l2431:
  5149                           
  5150                           ;main.c: 91:          TMR0 = 60;
  5151  066D  303C               	movlw	60
  5152  066E  0081               	movwf	1	;volatile
  5153  066F                     i1l2433:
  5154                           
  5155                           ;main.c: 92:         T0IF = 0;
  5156  066F  110B               	bcf	11,2	;volatile
  5157  0670                     i1l111:
  5158  0670  087B               	movf	??_isr+4,w
  5159  0671  008A               	movwf	10
  5160  0672  087A               	movf	??_isr+3,w
  5161  0673  0084               	movwf	4
  5162  0674  0E79               	swapf	??_isr+2,w
  5163  0675  0083               	movwf	3
  5164  0676  0EFE               	swapf	btemp,f
  5165  0677  0E7E               	swapf	btemp,w
  5166  0678  0009               	retfie
  5167  0679                     __end_of_isr:
  5168                           
  5169                           	psect	intentry
  5170  0004                     __pintentry:	
  5171                           ;incstack = 0
  5172                           ; Regs used in _isr: [wreg-fsr0h+status,2+status,0+pclath+cstack]
  5173                           
  5174  0004                     interrupt_function:
  5175  007E                     saved_w	set	btemp
  5176  0004  00FE               	movwf	btemp
  5177  0005  0E03               	swapf	3,w
  5178  0006  00F9               	movwf	??_isr+2
  5179  0007  0804               	movf	4,w
  5180  0008  00FA               	movwf	??_isr+3
  5181  0009  080A               	movf	10,w
  5182  000A  00FB               	movwf	??_isr+4
  5183  000B  120A  118A  2DEF   	ljmp	_isr
  5184                           
  5185                           	psect	text17
  5186  0E06                     __ptext17:	
  5187 ;; *************** function _spiWrite *****************
  5188 ;; Defined at:
  5189 ;;		line 34 in file "SPI.c"
  5190 ;; Parameters:    Size  Location     Type
  5191 ;;  dat             1    wreg     unsigned char 
  5192 ;; Auto vars:     Size  Location     Type
  5193 ;;  dat             1    0[COMMON] unsigned char 
  5194 ;; Return value:  Size  Location     Type
  5195 ;;                  1    wreg      void 
  5196 ;; Registers used:
  5197 ;;		wreg
  5198 ;; Tracked objects:
  5199 ;;		On entry : 0/0
  5200 ;;		On exit  : 0/0
  5201 ;;		Unchanged: 0/0
  5202 ;; Data sizes:     COMMON   BANK0   BANK1   BANK3   BANK2
  5203 ;;      Params:         0       0       0       0       0
  5204 ;;      Locals:         1       0       0       0       0
  5205 ;;      Temps:          0       0       0       0       0
  5206 ;;      Totals:         1       0       0       0       0
  5207 ;;Total ram usage:        1 bytes
  5208 ;; Hardware stack levels used:    1
  5209 ;; This function calls:
  5210 ;;		Nothing
  5211 ;; This function is called by:
  5212 ;;		_isr
  5213 ;; This function uses a non-reentrant model
  5214 ;;
  5215                           
  5216                           
  5217                           ;psect for function _spiWrite
  5218  0E06                     _spiWrite:
  5219                           
  5220                           ;incstack = 0
  5221                           ; Regs used in _spiWrite: [wreg]
  5222                           ;spiWrite@dat stored from wreg
  5223  0E06  00F6               	movwf	spiWrite@dat
  5224  0E07                     i1l1925:
  5225                           
  5226                           ;SPI.c: 34: void spiWrite(char dat);SPI.c: 35: {;SPI.c: 36:     SSPBUF = dat;
  5227  0E07  0876               	movf	spiWrite@dat,w
  5228  0E08  1283               	bcf	3,5	;RP0=0, select bank0
  5229  0E09  1303               	bcf	3,6	;RP1=0, select bank0
  5230  0E0A  0093               	movwf	19	;volatile
  5231  0E0B                     i1l149:
  5232  0E0B  0008               	return
  5233  0E0C                     __end_of_spiWrite:
  5234                           
  5235                           	psect	text18
  5236  0E13                     __ptext18:	
  5237 ;; *************** function _spiRead *****************
  5238 ;; Defined at:
  5239 ;;		line 47 in file "SPI.c"
  5240 ;; Parameters:    Size  Location     Type
  5241 ;;		None
  5242 ;; Auto vars:     Size  Location     Type
  5243 ;;		None
  5244 ;; Return value:  Size  Location     Type
  5245 ;;                  1    wreg      unsigned char 
  5246 ;; Registers used:
  5247 ;;		wreg, status,2, status,0, pclath, cstack
  5248 ;; Tracked objects:
  5249 ;;		On entry : 0/0
  5250 ;;		On exit  : 0/0
  5251 ;;		Unchanged: 0/0
  5252 ;; Data sizes:     COMMON   BANK0   BANK1   BANK3   BANK2
  5253 ;;      Params:         0       0       0       0       0
  5254 ;;      Locals:         0       0       0       0       0
  5255 ;;      Temps:          0       0       0       0       0
  5256 ;;      Totals:         0       0       0       0       0
  5257 ;;Total ram usage:        0 bytes
  5258 ;; Hardware stack levels used:    1
  5259 ;; Hardware stack levels required when called:    1
  5260 ;; This function calls:
  5261 ;;		_spiReceiveWait
  5262 ;; This function is called by:
  5263 ;;		_isr
  5264 ;; This function uses a non-reentrant model
  5265 ;;
  5266                           
  5267                           
  5268                           ;psect for function _spiRead
  5269  0E13                     _spiRead:
  5270  0E13                     i1l1927:	
  5271                           ;incstack = 0
  5272                           ; Regs used in _spiRead: [wreg+status,2+status,0+pclath+cstack]
  5273                           
  5274                           
  5275                           ;SPI.c: 49:     spiReceiveWait();
  5276  0E13  120A  158A  260C  120A  158A  	fcall	_spiReceiveWait
  5277  0E18                     i1l1929:
  5278                           
  5279                           ;SPI.c: 50:     return(SSPBUF);
  5280  0E18  1283               	bcf	3,5	;RP0=0, select bank0
  5281  0E19  1303               	bcf	3,6	;RP1=0, select bank0
  5282  0E1A  0813               	movf	19,w	;volatile
  5283  0E1B                     i1l157:
  5284  0E1B  0008               	return
  5285  0E1C                     __end_of_spiRead:
  5286                           
  5287                           	psect	text19
  5288  0E0C                     __ptext19:	
  5289 ;; *************** function _spiReceiveWait *****************
  5290 ;; Defined at:
  5291 ;;		line 29 in file "SPI.c"
  5292 ;; Parameters:    Size  Location     Type
  5293 ;;		None
  5294 ;; Auto vars:     Size  Location     Type
  5295 ;;		None
  5296 ;; Return value:  Size  Location     Type
  5297 ;;                  1    wreg      void 
  5298 ;; Registers used:
  5299 ;;		None
  5300 ;; Tracked objects:
  5301 ;;		On entry : 0/0
  5302 ;;		On exit  : 0/0
  5303 ;;		Unchanged: 0/0
  5304 ;; Data sizes:     COMMON   BANK0   BANK1   BANK3   BANK2
  5305 ;;      Params:         0       0       0       0       0
  5306 ;;      Locals:         0       0       0       0       0
  5307 ;;      Temps:          0       0       0       0       0
  5308 ;;      Totals:         0       0       0       0       0
  5309 ;;Total ram usage:        0 bytes
  5310 ;; Hardware stack levels used:    1
  5311 ;; This function calls:
  5312 ;;		Nothing
  5313 ;; This function is called by:
  5314 ;;		_spiRead
  5315 ;; This function uses a non-reentrant model
  5316 ;;
  5317                           
  5318                           
  5319                           ;psect for function _spiReceiveWait
  5320  0E0C                     _spiReceiveWait:
  5321  0E0C                     i1l1827:	
  5322                           ;incstack = 0
  5323                           ; Regs used in _spiReceiveWait: []
  5324                           
  5325  0E0C                     i1l143:	
  5326                           ;SPI.c: 31:     while ( !SSPSTATbits.BF );
  5327                           
  5328  0E0C  1683               	bsf	3,5	;RP0=1, select bank1
  5329  0E0D  1303               	bcf	3,6	;RP1=0, select bank1
  5330  0E0E  1C14               	btfss	20,0	;volatile
  5331  0E0F  2E11               	goto	u117_21
  5332  0E10  2E12               	goto	u117_20
  5333  0E11                     u117_21:
  5334  0E11  2E0C               	goto	i1l143
  5335  0E12                     u117_20:
  5336  0E12                     i1l146:
  5337  0E12  0008               	return
  5338  0E13                     __end_of_spiReceiveWait:
  5339  007E                     btemp	set	126	;btemp
  5340  007E                     wtemp0	set	126
  5341                           
  5342                           	psect	config
  5343                           
  5344                           ;Config register CONFIG1 @ 0x2007
  5345                           ;	Oscillator Selection bits
  5346                           ;	FOSC = INTRC_NOCLKOUT, INTOSCIO oscillator: I/O function on RA6/OSC2/CLKOUT pin, I/O f
      +                          unction on RA7/OSC1/CLKIN
  5347                           ;	Watchdog Timer Enable bit
  5348                           ;	WDTE = OFF, WDT disabled and can be enabled by SWDTEN bit of the WDTCON register
  5349                           ;	Power-up Timer Enable bit
  5350                           ;	PWRTE = ON, PWRT enabled
  5351                           ;	RE3/MCLR pin function select bit
  5352                           ;	MCLRE = OFF, RE3/MCLR pin function is digital input, MCLR internally tied to VDD
  5353                           ;	Code Protection bit
  5354                           ;	CP = OFF, Program memory code protection is disabled
  5355                           ;	Data Code Protection bit
  5356                           ;	CPD = OFF, Data memory code protection is disabled
  5357                           ;	Brown Out Reset Selection bits
  5358                           ;	BOREN = OFF, BOR disabled
  5359                           ;	Internal External Switchover bit
  5360                           ;	IESO = OFF, Internal/External Switchover mode is disabled
  5361                           ;	Fail-Safe Clock Monitor Enabled bit
  5362                           ;	FCMEN = OFF, Fail-Safe Clock Monitor is disabled
  5363                           ;	Low Voltage Programming Enable bit
  5364                           ;	LVP = ON, RB3/PGM pin has PGM function, low voltage programming enabled
  5365                           ;	In-Circuit Debugger Mode bit
  5366                           ;	DEBUG = 0x1, unprogrammed default
  5367  2007                     	org	8199
  5368  2007  30C4               	dw	12484
  5369                           
  5370                           ;Config register CONFIG2 @ 0x2008
  5371                           ;	Brown-out Reset Selection bit
  5372                           ;	BOR4V = BOR40V, Brown-out Reset set to 4.0V
  5373                           ;	Flash Program Memory Self Write Enable bits
  5374                           ;	WRT = OFF, Write protection off
  5375  2008                     	org	8200
  5376  2008  3FFF               	dw	16383

Data Sizes:
    Strings     4
    Constant    0
    Data        52
    BSS         13
    Persistent  0
    Stack       0

Auto Spaces:
    Space          Size  Autos    Used
    COMMON           14      6      12
    BANK0            80     56      63
    BANK1            80      0      52
    BANK3            96      0       0
    BANK2            96      0       0

Pointer List with Targets:

    print@palabra	PTR unsigned char  size(1) Largest target is 2
		 -> STR_2(CODE[2]), STR_1(CODE[2]), 


Critical Paths under _main in COMMON

    None.

Critical Paths under _isr in COMMON

    _isr->_spiWrite

Critical Paths under _main in BANK0

    _main->___fltol
    _setup->_spiInit
    _int_string->_BTD_DECIMAL
    ___fltol->___flmul
    ___flmul->___xxtofl
    ___bmul->_string_int
    _BTD_UNIDAD->___awmod
    _BTD_DECIMAL->___awdiv

Critical Paths under _isr in BANK0

    None.

Critical Paths under _main in BANK1

    None.

Critical Paths under _isr in BANK1

    None.

Critical Paths under _main in BANK3

    None.

Critical Paths under _isr in BANK3

    None.

Critical Paths under _main in BANK2

    None.

Critical Paths under _isr in BANK2

    None.

Call Graph Tables:

 ---------------------------------------------------------------------------------
 (Depth) Function   	        Calls       Base Space   Used Autos Params    Refs
 ---------------------------------------------------------------------------------
 (0) _main                                                 5     5      0    9257
                                             51 BANK0      5     5      0
                        _BTD_DECIMAL
                         _BTD_UNIDAD
                             ___bmul
                            ___flmul
                            ___fltol
                           ___xxtofl
                       _enviar_letra
                         _int_string
                              _print
                              _setup
                         _string_int
 ---------------------------------------------------------------------------------
 (1) _string_int                                           2     0      2     301
                                              0 BANK0      2     0      2
 ---------------------------------------------------------------------------------
 (1) _setup                                                0     0      0     456
                            _spiInit
 ---------------------------------------------------------------------------------
 (2) _spiInit                                              4     1      3     456
                                              0 BANK0      4     1      3
 ---------------------------------------------------------------------------------
 (1) _print                                                2     2      0     137
                                              0 BANK0      2     2      0
 ---------------------------------------------------------------------------------
 (1) _int_string                                           2     0      2     391
                                             15 BANK0      2     0      2
                        _BTD_DECIMAL (ARG)
                         _BTD_UNIDAD (ARG)
 ---------------------------------------------------------------------------------
 (1) _enviar_letra                                         1     1      0      31
                                              0 BANK0      1     1      0
 ---------------------------------------------------------------------------------
 (1) ___xxtofl                                            14    10      4     474
                                              0 BANK0     14    10      4
 ---------------------------------------------------------------------------------
 (1) ___fltol                                             11     7      4     381
                                             40 BANK0     11     7      4
                            ___flmul (ARG)
                           ___xxtofl (ARG)
 ---------------------------------------------------------------------------------
 (1) ___flmul                                             26    18      8    3533
                                             14 BANK0     26    18      8
                          __Umul8_16
                           ___xxtofl (ARG)
 ---------------------------------------------------------------------------------
 (2) __Umul8_16                                            9     7      2     980
                                              0 BANK0      9     7      2
 ---------------------------------------------------------------------------------
 (1) ___bmul                                               4     3      1     244
                                              2 BANK0      4     3      1
                         _string_int (ARG)
 ---------------------------------------------------------------------------------
 (1) _BTD_UNIDAD                                           6     4      2    1252
                                              7 BANK0      6     4      2
                            ___awmod
 ---------------------------------------------------------------------------------
 (1) _BTD_DECIMAL                                          6     4      2    2057
                                              9 BANK0      6     4      2
                            ___awdiv
                            ___awmod
 ---------------------------------------------------------------------------------
 (2) ___awmod                                              7     3      4     973
                                              0 BANK0      7     3      4
 ---------------------------------------------------------------------------------
 (2) ___awdiv                                              9     5      4     805
                                              0 BANK0      9     5      4
 ---------------------------------------------------------------------------------
 Estimated maximum stack depth 2
 ---------------------------------------------------------------------------------
 (Depth) Function   	        Calls       Base Space   Used Autos Params    Refs
 ---------------------------------------------------------------------------------
 (3) _isr                                                  5     5      0      22
                                              1 COMMON     5     5      0
                            _spiRead
                           _spiWrite
 ---------------------------------------------------------------------------------
 (4) _spiWrite                                             1     1      0      22
                                              0 COMMON     1     1      0
 ---------------------------------------------------------------------------------
 (4) _spiRead                                              0     0      0       0
                     _spiReceiveWait
 ---------------------------------------------------------------------------------
 (5) _spiReceiveWait                                       0     0      0       0
 ---------------------------------------------------------------------------------
 Estimated maximum stack depth 5
 ---------------------------------------------------------------------------------

 Call Graph Graphs:

 _main (ROOT)
   _BTD_DECIMAL
     ___awdiv
     ___awmod
   _BTD_UNIDAD
     ___awmod
   ___bmul
     _string_int (ARG)
   ___flmul
     __Umul8_16
     ___xxtofl (ARG)
   ___fltol
     ___flmul (ARG)
       __Umul8_16
       ___xxtofl (ARG)
     ___xxtofl (ARG)
   ___xxtofl
   _enviar_letra
   _int_string
     _BTD_DECIMAL (ARG)
       ___awdiv
       ___awmod
     _BTD_UNIDAD (ARG)
       ___awmod
   _print
   _setup
     _spiInit
   _string_int

 _isr (ROOT)
   _spiRead
     _spiReceiveWait
   _spiWrite

 Address spaces:
Name               Size   Autos  Total    Cost      Usage
BANK3               60      0       0       9        0.0%
BITBANK3            60      0       0       8        0.0%
SFR3                 0      0       0       4        0.0%
BITSFR3              0      0       0       4        0.0%
BANK2               60      0       0      11        0.0%
BITBANK2            60      0       0      10        0.0%
SFR2                 0      0       0       5        0.0%
BITSFR2              0      0       0       5        0.0%
BANK1               50      0      34       7       65.0%
BITBANK1            50      0       0       6        0.0%
SFR1                 0      0       0       2        0.0%
BITSFR1              0      0       0       2        0.0%
BANK0               50     38      3F       5       78.8%
BITBANK0            50      0       0       4        0.0%
SFR0                 0      0       0       1        0.0%
BITSFR0              0      0       0       1        0.0%
COMMON               E      6       C       1       85.7%
BITCOMMON            E      0       0       0        0.0%
CODE                 0      0       0       0        0.0%
DATA                 0      0      7F      12        0.0%
ABS                  0      0      7F       3        0.0%
NULL                 0      0       0       0        0.0%
STACK                0      0       0       2        0.0%
EEDATA             100      0       0       0        0.0%


Microchip Technology PIC Macro Assembler V2.31 build 20201012212115 
Symbol Table                                                                                   Wed Aug 04 02:49:49 2021

           print@palabra 0021                        pc 0002           ___bmul@product 0024  
            _SSPSTATbits 0094             ___awdiv@sign 0026                       fsr 0004  
    __Umul8_16@word_mpld 0026                      l123 0F4B                      l140 0E5A  
                    l312 0E7B                      l139 0E55                      l180 0ED1  
                    l324 0E1F                      l332 07B8                      l308 0E5F  
                    l183 0EFE                      l327 0E25                      l347 0FA4  
                    l609 0FFF                      l636 06DF                      l469 0E3C  
                    l629 06F4                      l639 06F4                      l832 0390  
                    l851 0E92                      l596 075D                      l844 0384  
                    l853 0EA4                      l838 02FC                      l890 05C4  
                    l882 059C                      l876 0557                      l878 05EE  
                    l889 05B8                      _RD0 0040                      _RD1 0041  
                    _RD2 0042                      _RE0 0048                      _RD3 0043  
                    _RE1 0049                      _RD4 0044                      _RD5 0045  
                    _RD6 0046                      _RD7 0047                      _isr 05EF  
                    fsr0 0004                      indf 0000             ___awmod@sign 0026  
           ___flmul@aexp 003C             ___flmul@bexp 0041             ___flmul@sign 003B  
           ___flmul@temp 0046             ___flmul@prod 0042             ___fltol@exp1 0052  
                   l3001 02E1                     l3011 0306                     l3003 02E5  
                   l2203 06D4                     l3021 0344                     l3013 0314  
                   l3005 02F9                     l2205 06E4                     l3031 0378  
                   l3023 034F                     l3015 0318                     l2207 06E9  
                   l2161 0E2A                     l3033 037C                     l3025 035E  
                   l3017 0331                     l3009 0301                     l3041 0391  
                   l2163 0E2E                     l3035 037D                     l3027 0368  
                   l3019 0337                     l3051 039E                     l3043 0396  
                   l2165 0E32                     l3037 0388                     l3029 036A  
                   l2181 06A4                     l2173 0679                     l3061 03F6  
                   l3053 03BD                     l3045 0398                     l2167 0E34  
                   l2159 0E29                     l2183 06A5                     l2175 0686  
                   l2351 053B                     l3071 0480                     l3063 03FB  
                   l3055 03C2                     l3047 039C                     l2601 0722  
                   l2169 0E3B                     l2185 06AD                     l2361 0568  
                   l2353 053F                     l3161 0F84                     l3081 04FB  
                   l3073 0486                     l3065 03FD                     l3057 03DF  
                   l3049 039D                     l2611 0742                     l2603 0726  
                   l2195 06BB                     l2187 06AF                     l2179 068F  
                   l2371 0593                     l2363 056D                     l2355 054F  
                   l3163 0798                     l3083 051C                     l3075 04A7  
                   l3067 043C                     l3059 03E4                     l2613 0749  
                   l2605 072A                     l2189 06B3                     l2197 06CD  
                   l2381 05C6                     l2373 05A3                     l2365 057A  
                   l2357 055F                     l2349 0536                     l2701 0F26  
                   l3085 052E                     l3077 04CE                     l3069 047B  
                   l2607 073B                     l2615 074F                     l2631 0FB3  
                   l2623 0FA5                     l2383 05DC                     l2375 05AE  
                   l2367 0581                     l2711 0F2D                     l2703 0F29  
                   l3079 04D4                     l2617 0754                     l2609 0741  
                   l2641 0FCC                     l2633 0FB7                     l2625 0FA8  
                   l2385 05E1                     l2377 05B2                     l2369 0585  
                   l2721 0F35                     l2713 0F2E                     l2705 0F2A  
                   l2801 0F7D                     l2619 0759                     l2651 0FEB  
                   l2643 0FD0                     l2635 0FBC                     l2627 0FAC  
                   l2811 0EA5                     l2387 05E5                     l2379 05BC  
                   l2571 0E49                     l2731 0F3F                     l2723 0F36  
                   l2715 0F32                     l2707 0F2B                     l2581 06F8  
                   l2645 0FD4                     l2637 0FC2                     l2653 0FF1  
                   l2629 0FB1                     l2813 0ECD                     l2661 0E7F  
                   l2901 0030                     l2389 05E6                     l2573 0E4D  
                   l2733 0F41                     l2725 0F37                     l2717 0F33  
                   l2709 0F2C                     l2591 070C                     l2583 06FC  
                   l2655 0FF6                     l2647 0FDE                     l2639 0FC5  
                   l2671 0EA0                     l2663 0E81                     l2911 0047  
                   l2903 0037                     l2807 0E1F                     l2831 0769  
                   l2575 0E4F                     l2735 0F42                     l2727 0F38  
                   l2719 0F34                     l2751 0F55                     l2593 0710  
                   l2585 0701                     l2657 0FFB                     l2649 0FE4  
                   l2665 0E88                     l2921 0063                     l2913 004C  
                   l2905 003D                     l2809 0E23                     l2825 0764  
                   l2817 075E                     l2577 0E54                     l2569 0E40  
                   l2729 0F3B                     l2681 0F10                     l2745 0F50  
                   l2737 0F4C                     l2595 0712                     l2587 0703  
                   l2579 06F5                     l2667 0E8C                     l2931 0078  
                   l2923 0069                     l2915 0054                     l2907 0041  
                   l2843 0773                     l2819 075F                     l2691 0F17  
                   l2683 0F11                     l2675 0EFF                     l2763 0F5F  
                   l2739 0F4D                     l2597 0718                     l2589 0707  
                   l2669 0E9B                     l2941 0094                     l2933 0080  
                   l2925 006D                     l2917 0056                     l2909 0042  
                   l2861 0782                     l2837 076E                     l2693 0F1A  
                   l2685 0F12                     l2677 0F05                     l2781 0F6E  
                   l2757 0F5A                     l2599 071B                     l2951 00D7  
                   l2935 0082                     l2927 006E                     l2919 005E  
                   l2855 077D                     l2695 0F1D                     l2687 0F14  
                   l2679 0F0F                     l2775 0F69                     l2961 0160  
                   l2953 00F3                     l2945 009D                     l2937 008A  
                   l2929 0073                     l2873 078C                     l2849 0778  
                   l2881 0791                     l2697 0F20                     l2689 0F16  
                   l2793 0F78                     l2769 0F64                     l2971 01D3  
                   l2963 0170                     l2955 011F                     l2947 00AD  
                   l2939 008F                     l2867 0787                     l2699 0F23  
                   l2787 0F73                     l2981 0280                     l2973 01F0  
                   l2965 018D                     l2957 013B                     l2949 00BA  
                   l2893 0E5E                     l2887 0ED2                     l2991 02CC  
                   l2983 02A8                     l2975 021D                     l2967 019D  
                   l2959 0157                     l2895 0E63                     l2889 0EFA  
                   l2993 02CD                     l2985 02B1                     l2977 022D  
                   l2969 01BA                     l2897 0E6B                     l2995 02D6  
                   l2987 02BF                     l2979 025A                     l2899 0E6F  
                   l2989 02C8                     l2997 02DC                     l2999 02E0  
                   ?_isr 0076                     STR_1 0808                     STR_2 0806  
                   _BRGH 04C2                     _T0IF 005A                     u2000 05B2  
                   u2001 05B1                     u2010 05B8                     u2011 05B7  
                   u2020 05BC                     u2021 05BB                     u2030 05D1  
                   u2200 0718                     u2040 05E1                     u2201 0717  
                   u2041 05E0                     u2050 05E5                     u2051 05E4  
                   u2035 05CC                     u2220 072A                     u2300 0FC2  
                   u1500 06CC                     _IOCB 0096                     u2221 0729  
                   u2301 0FC1                     u1501 06CB                     u1430 0E2E  
                   u1510 06D3                     u2215 071C                     u1431 0E2D  
                   u1511 06D2                     u2240 073B                     u2320 0FD4  
                   u1440 0E3B                     u2400 0E23                     u2241 073A  
                   u2321 0FD3                     u1441 0E3A                     u2401 0E22  
                   u2330 0FDE                     u1530 06E4                     u1450 0686  
                   u2410 0E63                     u2170 0E49                     u2235 072B  
                   u2331 0FDD                     u2315 0FC6                     u1531 06E3  
                   u1451 0685                     u2411 0E62                     u2171 0E48  
                   u2260 074F                     u2180 06FC                     u2500 0094  
                   u1540 06E9                     u1460 069D                     u2420 0E7B  
                   u2261 074E                     u2245 0737                     u2181 06FB  
                   u2501 0093                     u1541 06E8                     u1525 06D6  
                   u2421 0E7A                     u2270 0754                     u2190 0707  
                   u2350 0FF1                     u2430 0041                     u1470 06B3  
                   u2271 0753                     u2255 0743                     u2191 0706  
                   u2351 0FF0                     u2335 0FDA                     u2511 00E5  
                   u2431 0040                     u1471 06B2                     u2360 0FF6  
                   u2280 0FAC                     u2512 00EC                     u2440 0047  
                   u1480 06BA                     u2361 0FF5                     u2345 0FE5  
                   u2281 0FAB                     u2601 020F                     u2521 0101  
                   u2513 00F3                     u2441 0046                     u1481 06B9  
                   u1465 0698                     u2290 0FB7                     u2370 0E8C  
                   u2602 0216                     u2522 0108                     u2450 004C  
                   u2291 0FB6                     u2371 0E8B                     u2611 023C  
                   u2603 021D                     u2531 012D                     u2523 010F  
                   u2451 004B                     u2700 02E0                     u2620 0266  
                   u2612 0243                     u2532 0134                     u2460 006D  
                   u2701 02DF                     u2613 024A                     u2541 0149  
                   u2533 013B                     u2461 006C                     u2390 0EA0  
                   u2710 02E5                     u2542 0150                     u2470 0073  
                   u2391 0E9F                     u2711 02E4                     u2631 0272  
                   u2543 0157                     u2471 0072                     u1495 06BC  
                   u2720 02F9                     u2640 028E                     u2632 0279  
                   u2480 0078                     u1920 053B                     u2800 0480  
                   u2385 0E93                     u2721 02F8                     u2633 0280  
                   u2625 0261                     u2561 017F                     u2481 0077  
                   u1921 053A                     u2801 047F                     u2730 0300  
                   u2562 0186                     u2490 008F                     u1930 053F  
                   u2731 02FF                     u2651 029A                     u2571 01AC  
                   u2563 018D                     u2555 0159                     u2491 008E  
                   u1931 053E                     u2740 0306                     u2652 02A1  
                   u2572 01B3                     u1940 055F                     u2741 0305  
                   u2653 02A8                     u2645 0289                     u2573 01BA  
                   u1941 055E                     u2750 0318                     u2751 0317  
                   u2591 01E2                     u2760 0327                     u2680 02CC  
                   u2592 01E9                     u1960 0580                     u2681 02CB  
                   u2665 02AA                     u2593 01F0                     u2585 01BC  
                   u1961 057F                     u2770 0344                     u2771 0343  
                   u2675 02C1                     u1955 0572                     u2780 035E  
                   u1980 05A2                     u2781 035D                     u2765 0322  
                   u1981 05A1                     u2790 037C                     u2791 037B  
                   u2775 0340                     u2695 02CF                     u1975 0594  
                   u2785 035A                     u1995 05A7                     _RCIF 0065  
                   i1l99 0627        enviar_letra@letra 0020                     _TMR0 0001  
                   _TXIF 0064                     _WPUB 0095                     _main 0391  
                   _pot1 005E                     _pot2 005D                     btemp 007E  
                   start 000E        ___bmul@multiplier 0025                    ??_isr 0077  
          ___fltol@sign1 0051                    ?_main 0076          __end_of___awdiv 075E  
                  _BRG16 0C3B          __end_of___awmod 1000          __end_of___flmul 0391  
        __end_of___fltol 06F5                    _ANSEL 0188          ___awdiv@divisor 0020  
    __size_of_BTD_UNIDAD 002D                    i1l111 0670                    i1l104 060D  
                  i1l143 0E0C                    i1l146 0E12                    i1l157 0E1B  
                  i1l149 0E0B          ___awdiv@counter 0025                    _RCREG 001A  
                  _TMR1H 000F                    _TMR1L 000E                    _SPBRG 0099  
                  _PORTA 0005                    _PORTB 0006                    _PORTC 0007  
                  _PORTD 0008                    _PORTE 0009                    _TRISA 0085  
                  _TRISB 0086                    _TRISC 0087                    _TRISD 0088  
                  _TRISE 0089                    _TXREG 0019         BTD_UNIDAD@valor2 0027  
                  _dato1 0072                    _dato2 005C                    _setup 0EFF  
                  _print 0E5B                    pclath 000A          __end_of_spiInit 0E5B  
        __end_of_spiRead 0E1C                    status 0003                    wtemp0 007E  
          ?_enviar_letra 0076          __initialization 0011             __end_of_main 0533  
                 ??_main 0053     __size_of_BTD_DECIMAL 002D                   _ADRESH 001E  
       ___awdiv@dividend 0022                   ?_setup 0076                   ?_print 0076  
                 _ANSELH 0189                   i1l2401 0604                   i1l2411 0630  
                 i1l2403 060F                   i1l2421 0640                   i1l2413 0632  
                 i1l2431 066D                   i1l2423 0650                   i1l2415 0636  
                 i1l2407 0614                   i1l2433 066F                   i1l2425 0655  
                 i1l2409 062B                   i1l2417 0637                   i1l2427 065B  
                 i1l2419 063B                   i1l2429 066B                   i1l3165 061C  
                 u210_20 0640                   u210_21 063F                   i1l2393 05EF  
                 i1l1827 0E0C                   i1l2395 05F5                   i1l1925 0E07  
                 i1l2397 05F9                   i1l1927 0E13                   i1l2399 05FB  
                 u211_20 065B                   i1l1929 0E18                   u211_21 065A  
                 u117_20 0E12                   u117_21 0E11                   u206_20 05F5  
                 u206_21 05F4                   u207_20 062B                   u207_21 062A  
                 u208_20 0630                   u208_21 062F                   u209_20 063B  
                 u209_21 063A           ??_enviar_letra 0020                   _SPBRGH 009A  
                 _TRISC2 043A                   _TRISC3 043B                   _TRISC5 043D  
      BTD_UNIDAD@salida2 002B                   _SSPCON 0014                   _SSPBUF 0013  
       __end_of___xxtofl 05EF                   ___bmul 0E26                ??___awdiv 0024  
              ??___awmod 0024                ??___flmul 0036                ??___fltol 004C  
       ___awdiv@quotient 0027          ___awmod@divisor 0020          ___awmod@counter 0025  
      BTD_DECIMAL@valor1 0029       __size_of__Umul8_16 0029                   saved_w 007E  
       __end_of_spiWrite 0E0C                ??_spiInit 0023                ??_spiRead 0076  
           ___xxtofl@arg 002A             ___xxtofl@exp 0029             ___xxtofl@val 0020  
           ??_BTD_UNIDAD 0029  __end_of__initialization 002C               ___fltol@f1 0048  
    ___bmul@multiplicand 0022           __pcstackCOMMON 0076             __pidataBANK1 07B9  
          __end_of_setup 0F4C            __end_of_print 0E7C       __end_of_BTD_UNIDAD 0EFF  
         _OPTION_REGbits 0081                  ??_setup 0024                  ??_print 0020  
             __pbssBANK0 0058        __end_of__Umul8_16 0EA5               __pmaintext 0391  
                ?___bmul 0022               __pintentry 0004  __size_of_spiReceiveWait 0007  
   __end_of_enviar_letra 0E26                ?___xxtofl 0020                  _SSPSTAT 0094  
             __stringtab 0800                  _Entrada 0075                ?_spiWrite 0076  
        __size_of___bmul 0017                  ___awdiv 06F5                  ___awmod 0FA5  
                ___flmul 0030                  ___fltol 0679                  __ptext1 0F4C  
                __ptext2 0EFF                  __ptext3 0E3D                  __ptext4 0E5B  
                __ptext5 075E                  __ptext6 0E1C                  __ptext7 0533  
                __ptext8 0679                  __ptext9 0030          string_int@valor 0020  
              _T1CONbits 0010             __size_of_isr 008A               ??___xxtofl 0024  
             _int_string 075E         ___awmod@dividend 0022                  _spiInit 0E3D  
                _spiRead 0E13     end_of_initialization 002C       BTD_DECIMAL@salida1 002D  
              _RCSTAbits 0018               ??_spiWrite 0076            ??_BTD_DECIMAL 002B  
              _PORTCbits 0007            ___xxtofl@sign 0028              spiWrite@dat 0076  
        int_string@valor 002F              ___flmul@grs 003D                _TXSTAbits 0098  
             _string_int 0F4C    __size_of_enviar_letra 000A           _spiReceiveWait 0E0C  
         __end_of___bmul 0E3D             _mandar_datos 0074      __end_of_BTD_DECIMAL 0ED2  
            ?_int_string 002F      start_initialization 0011              __end_of_isr 0679  
            _bandera_SPI 0073             _enviar_letra 0E1C   __end_of_spiReceiveWait 0E13  
               ??___bmul 0023               init_fetch0 07ED                __Umul8_16 0E7C  
            __pdataBANK1 00A0                ___flmul@a 0032                ___flmul@b 002E  
            __pbssCOMMON 0070                ___latbits 0002            __pcstackBANK0 0020  
      __size_of___xxtofl 00BC      __size_of_int_string 005B          ?_spiReceiveWait 0076  
            ?_string_int 0020                 ?___awdiv 0020                 ?___awmod 0020  
               ?___flmul 002E                 ?___fltol 0048               ?__Umul8_16 0020  
            _BTD_DECIMAL 0EA5        __size_of_spiWrite 0006                __pstrings 0800  
               ?_spiInit 0020                 ?_spiRead 0076           __size_of_setup 004D  
         __size_of_print 0021                _recibido1 005A                _recibido2 0059  
              _recibido3 0058     spiInit@sTransmitEdge 0022        interrupt_function 0004  
               _PIE1bits 008C       spiInit@sDataSample 0020                 _PIR1bits 000C  
             _ADCON0bits 001F              __stringbase 0805      BTD_UNIDAD@temporal2 0029  
    __size_of_string_int 0059              ??__Umul8_16 0022         __size_of___awdiv 0069  
       __size_of___awmod 005B         __size_of___flmul 0361         __size_of___fltol 007C  
     __end_of__stringtab 0806     BTD_DECIMAL@temporal1 002B             ??_int_string 0031  
               ___xxtofl 0533                 __ptext10 0E7C                 __ptext11 0E26  
               __ptext12 0ED2                 __ptext13 0EA5                 __ptext14 0FA5  
               __ptext15 06F5                 __ptext16 05EF                 __ptext17 0E06  
               __ptext18 0E13                 __ptext19 0E0C         __size_of_spiInit 001E  
       __size_of_spiRead 0009                 _contador 0070               _BTD_UNIDAD 0ED2  
          __size_of_main 01A2         BCD_DISPLAY@F1449 00C0       __end_of_int_string 07B9  
               _temporal 0071                 _spiWrite 0E06             spiInit@sType 0023  
      spiInit@sClockIdle 0021               _INTCONbits 000B                 init_ram0 07F1  
               intlevel1 0000         ??_spiReceiveWait 0076                stringcode 0800  
             _OSCCONbits 008F             ??_string_int 0022         BCH_DISPLAY@F1449 00A0  
           ?_BTD_DECIMAL 0029   __Umul8_16@multiplicand 0020                 stringdir 0800  
               stringtab 0800         _bandera_recibido 005B       __end_of_string_int 0FA5  
            ?_BTD_UNIDAD 0027     __Umul8_16@multiplier 0028        __Umul8_16@product 0024  
