

Microchip MPLAB XC8 Assembler V2.31 build 20201012212115 
                                                                                               Wed Aug 04 02:51:35 2021

Microchip MPLAB XC8 C Compiler v2.31 (Free license) build 20201012212115 Og1 
     1                           	processor	16F887
     2                           	pagewidth 120
     3                           	opt	flic
     4                           	psect	idataBANK0,global,class=CODE,delta=2,noexec
     5                           	psect	cinit,global,class=CODE,merge=1,delta=2
     6                           	psect	bssCOMMON,global,class=COMMON,space=1,delta=1,noexec
     7                           	psect	bssBANK0,global,class=BANK0,space=1,delta=1,noexec
     8                           	psect	dataBANK0,global,class=BANK0,space=1,delta=1,noexec
     9                           	psect	inittext,global,class=CODE,delta=2
    10                           	psect	cstackCOMMON,global,class=COMMON,space=1,delta=1,noexec
    11                           	psect	cstackBANK0,global,class=BANK0,space=1,delta=1,noexec
    12                           	psect	maintext,global,class=CODE,split=1,delta=2
    13                           	psect	text1,local,class=CODE,merge=1,delta=2
    14                           	psect	text2,local,class=CODE,merge=1,delta=2
    15                           	psect	text3,local,class=CODE,merge=1,delta=2
    16                           	psect	intentry,global,class=CODE,delta=2
    17                           	psect	text4,local,class=CODE,merge=1,delta=2
    18                           	psect	text5,local,class=CODE,merge=1,delta=2
    19                           	psect	text6,local,class=CODE,merge=1,delta=2
    20                           	psect	text7,local,class=CODE,merge=1,delta=2
    21                           	psect	config,global,abs,ovrld,class=CONFIG,space=4,delta=2,noexec
    22                           	dabs	1,0x7E,2
    23  0000                     
    24                           ; Version 2.20
    25                           ; Generated 12/02/2020 GMT
    26                           ; 
    27                           ; Copyright © 2020, Microchip Technology Inc. and its subsidiaries ("Microchip")
    28                           ; All rights reserved.
    29                           ; 
    30                           ; This software is developed by Microchip Technology Inc. and its subsidiaries ("Microch
      +                          ip").
    31                           ; 
    32                           ; Redistribution and use in source and binary forms, with or without modification, are
    33                           ; permitted provided that the following conditions are met:
    34                           ; 
    35                           ;     1. Redistributions of source code must retain the above copyright notice, this lis
      +                          t of
    36                           ;        conditions and the following disclaimer.
    37                           ; 
    38                           ;     2. Redistributions in binary form must reproduce the above copyright notice, this 
      +                          list
    39                           ;        of conditions and the following disclaimer in the documentation and/or other
    40                           ;        materials provided with the distribution.
    41                           ; 
    42                           ;     3. Microchip's name may not be used to endorse or promote products derived from th
      +                          is
    43                           ;        software without specific prior written permission.
    44                           ; 
    45                           ; THIS SOFTWARE IS PROVIDED BY MICROCHIP "AS IS" AND ANY EXPRESS OR IMPLIED WARRANTIES,
    46                           ; INCLUDING, BUT NOT LIMITED TO, THE IMPLIED WARRANTIES OF MERCHANTABILITY AND FITNESS F
      +                          OR
    47                           ; PURPOSE ARE DISCLAIMED.  IN NO EVENT SHALL MICROCHIP BE LIABLE FOR ANY DIRECT, INDIREC
      +                          T,
    48                           ; INCIDENTAL, SPECIAL, EXEMPLARY, OR CONSEQUENTIAL DAMAGES (INCLUDING BUT NOT LIMITED TO
    49                           ; PROCUREMENT OF SUBSTITUTE GOODS OR SERVICES; LOSS OF USE, DATA OR PROFITS; OR BUSINESS
    50                           ; INTERRUPTION) HOWSOEVER CAUSED AND ON ANY THEORY OF LIABILITY, WHETHER IN CONTRACT, ST
      +                          RICT
    51                           ; LIABILITY, OR TORT (INCLUDING NEGLIGENCE OR OTHERWISE) ARISING IN ANY WAY OUT OF THE U
      +                          SE OF
    52                           ; THIS SOFTWARE, EVEN IF ADVISED OF THE POSSIBILITY OF SUCH DAMAGE.
    53                           ; 
    54                           ; 
    55                           ; Code-generator required, PIC16F887 Definitions
    56                           ; 
    57                           ; SFR Addresses
    58  0000                     	;# 
    59  0001                     	;# 
    60  0002                     	;# 
    61  0003                     	;# 
    62  0004                     	;# 
    63  0005                     	;# 
    64  0006                     	;# 
    65  0007                     	;# 
    66  0008                     	;# 
    67  0009                     	;# 
    68  000A                     	;# 
    69  000B                     	;# 
    70  000C                     	;# 
    71  000D                     	;# 
    72  000E                     	;# 
    73  000E                     	;# 
    74  000F                     	;# 
    75  0010                     	;# 
    76  0011                     	;# 
    77  0012                     	;# 
    78  0013                     	;# 
    79  0014                     	;# 
    80  0015                     	;# 
    81  0015                     	;# 
    82  0016                     	;# 
    83  0017                     	;# 
    84  0018                     	;# 
    85  0019                     	;# 
    86  001A                     	;# 
    87  001B                     	;# 
    88  001B                     	;# 
    89  001C                     	;# 
    90  001D                     	;# 
    91  001E                     	;# 
    92  001F                     	;# 
    93  0081                     	;# 
    94  0085                     	;# 
    95  0086                     	;# 
    96  0087                     	;# 
    97  0088                     	;# 
    98  0089                     	;# 
    99  008C                     	;# 
   100  008D                     	;# 
   101  008E                     	;# 
   102  008F                     	;# 
   103  0090                     	;# 
   104  0091                     	;# 
   105  0092                     	;# 
   106  0093                     	;# 
   107  0093                     	;# 
   108  0093                     	;# 
   109  0094                     	;# 
   110  0095                     	;# 
   111  0096                     	;# 
   112  0097                     	;# 
   113  0098                     	;# 
   114  0099                     	;# 
   115  009A                     	;# 
   116  009B                     	;# 
   117  009C                     	;# 
   118  009D                     	;# 
   119  009E                     	;# 
   120  009F                     	;# 
   121  0105                     	;# 
   122  0107                     	;# 
   123  0108                     	;# 
   124  0109                     	;# 
   125  010C                     	;# 
   126  010C                     	;# 
   127  010D                     	;# 
   128  010E                     	;# 
   129  010F                     	;# 
   130  0185                     	;# 
   131  0187                     	;# 
   132  0188                     	;# 
   133  0189                     	;# 
   134  018C                     	;# 
   135  018D                     	;# 
   136  0000                     	;# 
   137  0001                     	;# 
   138  0002                     	;# 
   139  0003                     	;# 
   140  0004                     	;# 
   141  0005                     	;# 
   142  0006                     	;# 
   143  0007                     	;# 
   144  0008                     	;# 
   145  0009                     	;# 
   146  000A                     	;# 
   147  000B                     	;# 
   148  000C                     	;# 
   149  000D                     	;# 
   150  000E                     	;# 
   151  000E                     	;# 
   152  000F                     	;# 
   153  0010                     	;# 
   154  0011                     	;# 
   155  0012                     	;# 
   156  0013                     	;# 
   157  0014                     	;# 
   158  0015                     	;# 
   159  0015                     	;# 
   160  0016                     	;# 
   161  0017                     	;# 
   162  0018                     	;# 
   163  0019                     	;# 
   164  001A                     	;# 
   165  001B                     	;# 
   166  001B                     	;# 
   167  001C                     	;# 
   168  001D                     	;# 
   169  001E                     	;# 
   170  001F                     	;# 
   171  0081                     	;# 
   172  0085                     	;# 
   173  0086                     	;# 
   174  0087                     	;# 
   175  0088                     	;# 
   176  0089                     	;# 
   177  008C                     	;# 
   178  008D                     	;# 
   179  008E                     	;# 
   180  008F                     	;# 
   181  0090                     	;# 
   182  0091                     	;# 
   183  0092                     	;# 
   184  0093                     	;# 
   185  0093                     	;# 
   186  0093                     	;# 
   187  0094                     	;# 
   188  0095                     	;# 
   189  0096                     	;# 
   190  0097                     	;# 
   191  0098                     	;# 
   192  0099                     	;# 
   193  009A                     	;# 
   194  009B                     	;# 
   195  009C                     	;# 
   196  009D                     	;# 
   197  009E                     	;# 
   198  009F                     	;# 
   199  0105                     	;# 
   200  0107                     	;# 
   201  0108                     	;# 
   202  0109                     	;# 
   203  010C                     	;# 
   204  010C                     	;# 
   205  010D                     	;# 
   206  010E                     	;# 
   207  010F                     	;# 
   208  0185                     	;# 
   209  0187                     	;# 
   210  0188                     	;# 
   211  0189                     	;# 
   212  018C                     	;# 
   213  018D                     	;# 
   214  0000                     	;# 
   215  0001                     	;# 
   216  0002                     	;# 
   217  0003                     	;# 
   218  0004                     	;# 
   219  0005                     	;# 
   220  0006                     	;# 
   221  0007                     	;# 
   222  0008                     	;# 
   223  0009                     	;# 
   224  000A                     	;# 
   225  000B                     	;# 
   226  000C                     	;# 
   227  000D                     	;# 
   228  000E                     	;# 
   229  000E                     	;# 
   230  000F                     	;# 
   231  0010                     	;# 
   232  0011                     	;# 
   233  0012                     	;# 
   234  0013                     	;# 
   235  0014                     	;# 
   236  0015                     	;# 
   237  0015                     	;# 
   238  0016                     	;# 
   239  0017                     	;# 
   240  0018                     	;# 
   241  0019                     	;# 
   242  001A                     	;# 
   243  001B                     	;# 
   244  001B                     	;# 
   245  001C                     	;# 
   246  001D                     	;# 
   247  001E                     	;# 
   248  001F                     	;# 
   249  0081                     	;# 
   250  0085                     	;# 
   251  0086                     	;# 
   252  0087                     	;# 
   253  0088                     	;# 
   254  0089                     	;# 
   255  008C                     	;# 
   256  008D                     	;# 
   257  008E                     	;# 
   258  008F                     	;# 
   259  0090                     	;# 
   260  0091                     	;# 
   261  0092                     	;# 
   262  0093                     	;# 
   263  0093                     	;# 
   264  0093                     	;# 
   265  0094                     	;# 
   266  0095                     	;# 
   267  0096                     	;# 
   268  0097                     	;# 
   269  0098                     	;# 
   270  0099                     	;# 
   271  009A                     	;# 
   272  009B                     	;# 
   273  009C                     	;# 
   274  009D                     	;# 
   275  009E                     	;# 
   276  009F                     	;# 
   277  0105                     	;# 
   278  0107                     	;# 
   279  0108                     	;# 
   280  0109                     	;# 
   281  010C                     	;# 
   282  010C                     	;# 
   283  010D                     	;# 
   284  010E                     	;# 
   285  010F                     	;# 
   286  0185                     	;# 
   287  0187                     	;# 
   288  0188                     	;# 
   289  0189                     	;# 
   290  018C                     	;# 
   291  018D                     	;# 
   292  0000                     	;# 
   293  0001                     	;# 
   294  0002                     	;# 
   295  0003                     	;# 
   296  0004                     	;# 
   297  0005                     	;# 
   298  0006                     	;# 
   299  0007                     	;# 
   300  0008                     	;# 
   301  0009                     	;# 
   302  000A                     	;# 
   303  000B                     	;# 
   304  000C                     	;# 
   305  000D                     	;# 
   306  000E                     	;# 
   307  000E                     	;# 
   308  000F                     	;# 
   309  0010                     	;# 
   310  0011                     	;# 
   311  0012                     	;# 
   312  0013                     	;# 
   313  0014                     	;# 
   314  0015                     	;# 
   315  0015                     	;# 
   316  0016                     	;# 
   317  0017                     	;# 
   318  0018                     	;# 
   319  0019                     	;# 
   320  001A                     	;# 
   321  001B                     	;# 
   322  001B                     	;# 
   323  001C                     	;# 
   324  001D                     	;# 
   325  001E                     	;# 
   326  001F                     	;# 
   327  0081                     	;# 
   328  0085                     	;# 
   329  0086                     	;# 
   330  0087                     	;# 
   331  0088                     	;# 
   332  0089                     	;# 
   333  008C                     	;# 
   334  008D                     	;# 
   335  008E                     	;# 
   336  008F                     	;# 
   337  0090                     	;# 
   338  0091                     	;# 
   339  0092                     	;# 
   340  0093                     	;# 
   341  0093                     	;# 
   342  0093                     	;# 
   343  0094                     	;# 
   344  0095                     	;# 
   345  0096                     	;# 
   346  0097                     	;# 
   347  0098                     	;# 
   348  0099                     	;# 
   349  009A                     	;# 
   350  009B                     	;# 
   351  009C                     	;# 
   352  009D                     	;# 
   353  009E                     	;# 
   354  009F                     	;# 
   355  0105                     	;# 
   356  0107                     	;# 
   357  0108                     	;# 
   358  0109                     	;# 
   359  010C                     	;# 
   360  010C                     	;# 
   361  010D                     	;# 
   362  010E                     	;# 
   363  010F                     	;# 
   364  0185                     	;# 
   365  0187                     	;# 
   366  0188                     	;# 
   367  0189                     	;# 
   368  018C                     	;# 
   369  018D                     	;# 
   370  0000                     	;# 
   371  0001                     	;# 
   372  0002                     	;# 
   373  0003                     	;# 
   374  0004                     	;# 
   375  0005                     	;# 
   376  0006                     	;# 
   377  0007                     	;# 
   378  0008                     	;# 
   379  0009                     	;# 
   380  000A                     	;# 
   381  000B                     	;# 
   382  000C                     	;# 
   383  000D                     	;# 
   384  000E                     	;# 
   385  000E                     	;# 
   386  000F                     	;# 
   387  0010                     	;# 
   388  0011                     	;# 
   389  0012                     	;# 
   390  0013                     	;# 
   391  0014                     	;# 
   392  0015                     	;# 
   393  0015                     	;# 
   394  0016                     	;# 
   395  0017                     	;# 
   396  0018                     	;# 
   397  0019                     	;# 
   398  001A                     	;# 
   399  001B                     	;# 
   400  001B                     	;# 
   401  001C                     	;# 
   402  001D                     	;# 
   403  001E                     	;# 
   404  001F                     	;# 
   405  0081                     	;# 
   406  0085                     	;# 
   407  0086                     	;# 
   408  0087                     	;# 
   409  0088                     	;# 
   410  0089                     	;# 
   411  008C                     	;# 
   412  008D                     	;# 
   413  008E                     	;# 
   414  008F                     	;# 
   415  0090                     	;# 
   416  0091                     	;# 
   417  0092                     	;# 
   418  0093                     	;# 
   419  0093                     	;# 
   420  0093                     	;# 
   421  0094                     	;# 
   422  0095                     	;# 
   423  0096                     	;# 
   424  0097                     	;# 
   425  0098                     	;# 
   426  0099                     	;# 
   427  009A                     	;# 
   428  009B                     	;# 
   429  009C                     	;# 
   430  009D                     	;# 
   431  009E                     	;# 
   432  009F                     	;# 
   433  0105                     	;# 
   434  0107                     	;# 
   435  0108                     	;# 
   436  0109                     	;# 
   437  010C                     	;# 
   438  010C                     	;# 
   439  010D                     	;# 
   440  010E                     	;# 
   441  010F                     	;# 
   442  0185                     	;# 
   443  0187                     	;# 
   444  0188                     	;# 
   445  0189                     	;# 
   446  018C                     	;# 
   447  018D                     	;# 
   448  0000                     	;# 
   449  0001                     	;# 
   450  0002                     	;# 
   451  0003                     	;# 
   452  0004                     	;# 
   453  0005                     	;# 
   454  0006                     	;# 
   455  0007                     	;# 
   456  0008                     	;# 
   457  0009                     	;# 
   458  000A                     	;# 
   459  000B                     	;# 
   460  000C                     	;# 
   461  000D                     	;# 
   462  000E                     	;# 
   463  000E                     	;# 
   464  000F                     	;# 
   465  0010                     	;# 
   466  0011                     	;# 
   467  0012                     	;# 
   468  0013                     	;# 
   469  0014                     	;# 
   470  0015                     	;# 
   471  0015                     	;# 
   472  0016                     	;# 
   473  0017                     	;# 
   474  0018                     	;# 
   475  0019                     	;# 
   476  001A                     	;# 
   477  001B                     	;# 
   478  001B                     	;# 
   479  001C                     	;# 
   480  001D                     	;# 
   481  001E                     	;# 
   482  001F                     	;# 
   483  0081                     	;# 
   484  0085                     	;# 
   485  0086                     	;# 
   486  0087                     	;# 
   487  0088                     	;# 
   488  0089                     	;# 
   489  008C                     	;# 
   490  008D                     	;# 
   491  008E                     	;# 
   492  008F                     	;# 
   493  0090                     	;# 
   494  0091                     	;# 
   495  0092                     	;# 
   496  0093                     	;# 
   497  0093                     	;# 
   498  0093                     	;# 
   499  0094                     	;# 
   500  0095                     	;# 
   501  0096                     	;# 
   502  0097                     	;# 
   503  0098                     	;# 
   504  0099                     	;# 
   505  009A                     	;# 
   506  009B                     	;# 
   507  009C                     	;# 
   508  009D                     	;# 
   509  009E                     	;# 
   510  009F                     	;# 
   511  0105                     	;# 
   512  0107                     	;# 
   513  0108                     	;# 
   514  0109                     	;# 
   515  010C                     	;# 
   516  010C                     	;# 
   517  010D                     	;# 
   518  010E                     	;# 
   519  010F                     	;# 
   520  0185                     	;# 
   521  0187                     	;# 
   522  0188                     	;# 
   523  0189                     	;# 
   524  018C                     	;# 
   525  018D                     	;# 
   526  0000                     	;# 
   527  0001                     	;# 
   528  0002                     	;# 
   529  0003                     	;# 
   530  0004                     	;# 
   531  0005                     	;# 
   532  0006                     	;# 
   533  0007                     	;# 
   534  0008                     	;# 
   535  0009                     	;# 
   536  000A                     	;# 
   537  000B                     	;# 
   538  000C                     	;# 
   539  000D                     	;# 
   540  000E                     	;# 
   541  000E                     	;# 
   542  000F                     	;# 
   543  0010                     	;# 
   544  0011                     	;# 
   545  0012                     	;# 
   546  0013                     	;# 
   547  0014                     	;# 
   548  0015                     	;# 
   549  0015                     	;# 
   550  0016                     	;# 
   551  0017                     	;# 
   552  0018                     	;# 
   553  0019                     	;# 
   554  001A                     	;# 
   555  001B                     	;# 
   556  001B                     	;# 
   557  001C                     	;# 
   558  001D                     	;# 
   559  001E                     	;# 
   560  001F                     	;# 
   561  0081                     	;# 
   562  0085                     	;# 
   563  0086                     	;# 
   564  0087                     	;# 
   565  0088                     	;# 
   566  0089                     	;# 
   567  008C                     	;# 
   568  008D                     	;# 
   569  008E                     	;# 
   570  008F                     	;# 
   571  0090                     	;# 
   572  0091                     	;# 
   573  0092                     	;# 
   574  0093                     	;# 
   575  0093                     	;# 
   576  0093                     	;# 
   577  0094                     	;# 
   578  0095                     	;# 
   579  0096                     	;# 
   580  0097                     	;# 
   581  0098                     	;# 
   582  0099                     	;# 
   583  009A                     	;# 
   584  009B                     	;# 
   585  009C                     	;# 
   586  009D                     	;# 
   587  009E                     	;# 
   588  009F                     	;# 
   589  0105                     	;# 
   590  0107                     	;# 
   591  0108                     	;# 
   592  0109                     	;# 
   593  010C                     	;# 
   594  010C                     	;# 
   595  010D                     	;# 
   596  010E                     	;# 
   597  010F                     	;# 
   598  0185                     	;# 
   599  0187                     	;# 
   600  0188                     	;# 
   601  0189                     	;# 
   602  018C                     	;# 
   603  018D                     	;# 
   604  0000                     	;# 
   605  0001                     	;# 
   606  0002                     	;# 
   607  0003                     	;# 
   608  0004                     	;# 
   609  0005                     	;# 
   610  0006                     	;# 
   611  0007                     	;# 
   612  0008                     	;# 
   613  0009                     	;# 
   614  000A                     	;# 
   615  000B                     	;# 
   616  000C                     	;# 
   617  000D                     	;# 
   618  000E                     	;# 
   619  000E                     	;# 
   620  000F                     	;# 
   621  0010                     	;# 
   622  0011                     	;# 
   623  0012                     	;# 
   624  0013                     	;# 
   625  0014                     	;# 
   626  0015                     	;# 
   627  0015                     	;# 
   628  0016                     	;# 
   629  0017                     	;# 
   630  0018                     	;# 
   631  0019                     	;# 
   632  001A                     	;# 
   633  001B                     	;# 
   634  001B                     	;# 
   635  001C                     	;# 
   636  001D                     	;# 
   637  001E                     	;# 
   638  001F                     	;# 
   639  0081                     	;# 
   640  0085                     	;# 
   641  0086                     	;# 
   642  0087                     	;# 
   643  0088                     	;# 
   644  0089                     	;# 
   645  008C                     	;# 
   646  008D                     	;# 
   647  008E                     	;# 
   648  008F                     	;# 
   649  0090                     	;# 
   650  0091                     	;# 
   651  0092                     	;# 
   652  0093                     	;# 
   653  0093                     	;# 
   654  0093                     	;# 
   655  0094                     	;# 
   656  0095                     	;# 
   657  0096                     	;# 
   658  0097                     	;# 
   659  0098                     	;# 
   660  0099                     	;# 
   661  009A                     	;# 
   662  009B                     	;# 
   663  009C                     	;# 
   664  009D                     	;# 
   665  009E                     	;# 
   666  009F                     	;# 
   667  0105                     	;# 
   668  0107                     	;# 
   669  0108                     	;# 
   670  0109                     	;# 
   671  010C                     	;# 
   672  010C                     	;# 
   673  010D                     	;# 
   674  010E                     	;# 
   675  010F                     	;# 
   676  0185                     	;# 
   677  0187                     	;# 
   678  0188                     	;# 
   679  0189                     	;# 
   680  018C                     	;# 
   681  018D                     	;# 
   682  0000                     	;# 
   683  0001                     	;# 
   684  0002                     	;# 
   685  0003                     	;# 
   686  0004                     	;# 
   687  0005                     	;# 
   688  0006                     	;# 
   689  0007                     	;# 
   690  0008                     	;# 
   691  0009                     	;# 
   692  000A                     	;# 
   693  000B                     	;# 
   694  000C                     	;# 
   695  000D                     	;# 
   696  000E                     	;# 
   697  000E                     	;# 
   698  000F                     	;# 
   699  0010                     	;# 
   700  0011                     	;# 
   701  0012                     	;# 
   702  0013                     	;# 
   703  0014                     	;# 
   704  0015                     	;# 
   705  0015                     	;# 
   706  0016                     	;# 
   707  0017                     	;# 
   708  0018                     	;# 
   709  0019                     	;# 
   710  001A                     	;# 
   711  001B                     	;# 
   712  001B                     	;# 
   713  001C                     	;# 
   714  001D                     	;# 
   715  001E                     	;# 
   716  001F                     	;# 
   717  0081                     	;# 
   718  0085                     	;# 
   719  0086                     	;# 
   720  0087                     	;# 
   721  0088                     	;# 
   722  0089                     	;# 
   723  008C                     	;# 
   724  008D                     	;# 
   725  008E                     	;# 
   726  008F                     	;# 
   727  0090                     	;# 
   728  0091                     	;# 
   729  0092                     	;# 
   730  0093                     	;# 
   731  0093                     	;# 
   732  0093                     	;# 
   733  0094                     	;# 
   734  0095                     	;# 
   735  0096                     	;# 
   736  0097                     	;# 
   737  0098                     	;# 
   738  0099                     	;# 
   739  009A                     	;# 
   740  009B                     	;# 
   741  009C                     	;# 
   742  009D                     	;# 
   743  009E                     	;# 
   744  009F                     	;# 
   745  0105                     	;# 
   746  0107                     	;# 
   747  0108                     	;# 
   748  0109                     	;# 
   749  010C                     	;# 
   750  010C                     	;# 
   751  010D                     	;# 
   752  010E                     	;# 
   753  010F                     	;# 
   754  0185                     	;# 
   755  0187                     	;# 
   756  0188                     	;# 
   757  0189                     	;# 
   758  018C                     	;# 
   759  018D                     	;# 
   760  0000                     	;# 
   761  0001                     	;# 
   762  0002                     	;# 
   763  0003                     	;# 
   764  0004                     	;# 
   765  0005                     	;# 
   766  0006                     	;# 
   767  0007                     	;# 
   768  0008                     	;# 
   769  0009                     	;# 
   770  000A                     	;# 
   771  000B                     	;# 
   772  000C                     	;# 
   773  000D                     	;# 
   774  000E                     	;# 
   775  000E                     	;# 
   776  000F                     	;# 
   777  0010                     	;# 
   778  0011                     	;# 
   779  0012                     	;# 
   780  0013                     	;# 
   781  0014                     	;# 
   782  0015                     	;# 
   783  0015                     	;# 
   784  0016                     	;# 
   785  0017                     	;# 
   786  0018                     	;# 
   787  0019                     	;# 
   788  001A                     	;# 
   789  001B                     	;# 
   790  001B                     	;# 
   791  001C                     	;# 
   792  001D                     	;# 
   793  001E                     	;# 
   794  001F                     	;# 
   795  0081                     	;# 
   796  0085                     	;# 
   797  0086                     	;# 
   798  0087                     	;# 
   799  0088                     	;# 
   800  0089                     	;# 
   801  008C                     	;# 
   802  008D                     	;# 
   803  008E                     	;# 
   804  008F                     	;# 
   805  0090                     	;# 
   806  0091                     	;# 
   807  0092                     	;# 
   808  0093                     	;# 
   809  0093                     	;# 
   810  0093                     	;# 
   811  0094                     	;# 
   812  0095                     	;# 
   813  0096                     	;# 
   814  0097                     	;# 
   815  0098                     	;# 
   816  0099                     	;# 
   817  009A                     	;# 
   818  009B                     	;# 
   819  009C                     	;# 
   820  009D                     	;# 
   821  009E                     	;# 
   822  009F                     	;# 
   823  0105                     	;# 
   824  0107                     	;# 
   825  0108                     	;# 
   826  0109                     	;# 
   827  010C                     	;# 
   828  010C                     	;# 
   829  010D                     	;# 
   830  010E                     	;# 
   831  010F                     	;# 
   832  0185                     	;# 
   833  0187                     	;# 
   834  0188                     	;# 
   835  0189                     	;# 
   836  018C                     	;# 
   837  018D                     	;# 
   838  0000                     	;# 
   839  0001                     	;# 
   840  0002                     	;# 
   841  0003                     	;# 
   842  0004                     	;# 
   843  0005                     	;# 
   844  0006                     	;# 
   845  0007                     	;# 
   846  0008                     	;# 
   847  0009                     	;# 
   848  000A                     	;# 
   849  000B                     	;# 
   850  000C                     	;# 
   851  000D                     	;# 
   852  000E                     	;# 
   853  000E                     	;# 
   854  000F                     	;# 
   855  0010                     	;# 
   856  0011                     	;# 
   857  0012                     	;# 
   858  0013                     	;# 
   859  0014                     	;# 
   860  0015                     	;# 
   861  0015                     	;# 
   862  0016                     	;# 
   863  0017                     	;# 
   864  0018                     	;# 
   865  0019                     	;# 
   866  001A                     	;# 
   867  001B                     	;# 
   868  001B                     	;# 
   869  001C                     	;# 
   870  001D                     	;# 
   871  001E                     	;# 
   872  001F                     	;# 
   873  0081                     	;# 
   874  0085                     	;# 
   875  0086                     	;# 
   876  0087                     	;# 
   877  0088                     	;# 
   878  0089                     	;# 
   879  008C                     	;# 
   880  008D                     	;# 
   881  008E                     	;# 
   882  008F                     	;# 
   883  0090                     	;# 
   884  0091                     	;# 
   885  0092                     	;# 
   886  0093                     	;# 
   887  0093                     	;# 
   888  0093                     	;# 
   889  0094                     	;# 
   890  0095                     	;# 
   891  0096                     	;# 
   892  0097                     	;# 
   893  0098                     	;# 
   894  0099                     	;# 
   895  009A                     	;# 
   896  009B                     	;# 
   897  009C                     	;# 
   898  009D                     	;# 
   899  009E                     	;# 
   900  009F                     	;# 
   901  0105                     	;# 
   902  0107                     	;# 
   903  0108                     	;# 
   904  0109                     	;# 
   905  010C                     	;# 
   906  010C                     	;# 
   907  010D                     	;# 
   908  010E                     	;# 
   909  010F                     	;# 
   910  0185                     	;# 
   911  0187                     	;# 
   912  0188                     	;# 
   913  0189                     	;# 
   914  018C                     	;# 
   915  018D                     	;# 
   916                           
   917                           	psect	idataBANK0
   918  0099                     __pidataBANK0:
   919                           
   920                           ;initializer for BCH_DISPLAY@F1449
   921  0099  343F               	retlw	63
   922  009A  3400               	retlw	0
   923  009B  3406               	retlw	6
   924  009C  3400               	retlw	0
   925  009D  345B               	retlw	91
   926  009E  3400               	retlw	0
   927  009F  344F               	retlw	79
   928  00A0  3400               	retlw	0
   929  00A1  3466               	retlw	102
   930  00A2  3400               	retlw	0
   931  00A3  346D               	retlw	109
   932  00A4  3400               	retlw	0
   933  00A5  347D               	retlw	125
   934  00A6  3400               	retlw	0
   935  00A7  3407               	retlw	7
   936  00A8  3400               	retlw	0
   937  00A9  347F               	retlw	127
   938  00AA  3400               	retlw	0
   939  00AB  3467               	retlw	103
   940  00AC  3400               	retlw	0
   941  00AD  3477               	retlw	119
   942  00AE  3400               	retlw	0
   943  00AF  347C               	retlw	124
   944  00B0  3400               	retlw	0
   945  00B1  3458               	retlw	88
   946  00B2  3400               	retlw	0
   947  00B3  345E               	retlw	94
   948  00B4  3400               	retlw	0
   949  00B5  3479               	retlw	121
   950  00B6  3400               	retlw	0
   951  00B7  3471               	retlw	113
   952  00B8  3400               	retlw	0
   953                           
   954                           ;initializer for BCD_DISPLAY@F1449
   955  00B9  343F               	retlw	63
   956  00BA  3400               	retlw	0
   957  00BB  3406               	retlw	6
   958  00BC  3400               	retlw	0
   959  00BD  345B               	retlw	91
   960  00BE  3400               	retlw	0
   961  00BF  344F               	retlw	79
   962  00C0  3400               	retlw	0
   963  00C1  3466               	retlw	102
   964  00C2  3400               	retlw	0
   965  00C3  346D               	retlw	109
   966  00C4  3400               	retlw	0
   967  00C5  347D               	retlw	125
   968  00C6  3400               	retlw	0
   969  00C7  3478               	retlw	120
   970  00C8  3400               	retlw	0
   971  00C9  347F               	retlw	127
   972  00CA  3400               	retlw	0
   973  00CB  3467               	retlw	103
   974  00CC  3400               	retlw	0
   975  0013                     _SSPBUF	set	19
   976  0014                     _SSPCON	set	20
   977  0019                     _TXREG	set	25
   978  0009                     _PORTE	set	9
   979  0008                     _PORTD	set	8
   980  0007                     _PORTC	set	7
   981  0006                     _PORTB	set	6
   982  001E                     _ADRESH	set	30
   983  000C                     _PIR1bits	set	12
   984  000B                     _INTCONbits	set	11
   985  0005                     _PORTA	set	5
   986  001F                     _ADCON0bits	set	31
   987  0064                     _TXIF	set	100
   988  0049                     _RE1	set	73
   989  0048                     _RE0	set	72
   990  0047                     _RD7	set	71
   991  0046                     _RD6	set	70
   992  0045                     _RD5	set	69
   993  0044                     _RD4	set	68
   994  0043                     _RD3	set	67
   995  0042                     _RD2	set	66
   996  0041                     _RD1	set	65
   997  0040                     _RD0	set	64
   998  0066                     _ADIF	set	102
   999  0063                     _SSPIF	set	99
  1000  0094                     _SSPSTATbits	set	148
  1001  0094                     _SSPSTAT	set	148
  1002  0095                     _WPUB	set	149
  1003  0096                     _IOCB	set	150
  1004  0081                     _OPTION_REGbits	set	129
  1005  0089                     _TRISE	set	137
  1006  0088                     _TRISD	set	136
  1007  0087                     _TRISC	set	135
  1008  0086                     _TRISB	set	134
  1009  009F                     _ADCON1bits	set	159
  1010  008C                     _PIE1bits	set	140
  1011  0085                     _TRISA	set	133
  1012  008F                     _OSCCONbits	set	143
  1013  043B                     _TRISC3	set	1083
  1014  043D                     _TRISC5	set	1085
  1015  04FC                     _VCFG0	set	1276
  1016  04FD                     _VCFG1	set	1277
  1017  0189                     _ANSELH	set	393
  1018  0188                     _ANSEL	set	392
  1019                           
  1020                           	psect	cinit
  1021  0011                     start_initialization:	
  1022                           ; #config settings
  1023                           
  1024  0011                     __initialization:
  1025                           
  1026                           ; Initialize objects allocated to BANK0
  1027  0011  1383               	bcf	3,7	;select IRP bank0
  1028  0012  3054               	movlw	low (__pdataBANK0+52)
  1029  0013  00FD               	movwf	btemp+-1
  1030  0014  3000               	movlw	high __pidataBANK0
  1031  0015  00FE               	movwf	btemp
  1032  0016  3099               	movlw	low __pidataBANK0
  1033  0017  00FF               	movwf	btemp+1
  1034  0018  3020               	movlw	low __pdataBANK0
  1035  0019  0084               	movwf	4
  1036  001A  120A  118A  2132  120A  118A  	fcall	init_ram0
  1037                           
  1038                           ; Clear objects allocated to BANK0
  1039  001F  01D4               	clrf	__pbssBANK0& (0+127)
  1040  0020  01D5               	clrf	(__pbssBANK0+1)& (0+127)
  1041  0021  01D6               	clrf	(__pbssBANK0+2)& (0+127)
  1042  0022  01D7               	clrf	(__pbssBANK0+3)& (0+127)
  1043  0023  01D8               	clrf	(__pbssBANK0+4)& (0+127)
  1044  0024  01D9               	clrf	(__pbssBANK0+5)& (0+127)
  1045  0025  01DA               	clrf	(__pbssBANK0+6)& (0+127)
  1046  0026  01DB               	clrf	(__pbssBANK0+7)& (0+127)
  1047                           
  1048                           ; Clear objects allocated to COMMON
  1049  0027  01FA               	clrf	__pbssCOMMON& (0+127)
  1050  0028  01FB               	clrf	(__pbssCOMMON+1)& (0+127)
  1051  0029  01FC               	clrf	(__pbssCOMMON+2)& (0+127)
  1052  002A  01FD               	clrf	(__pbssCOMMON+3)& (0+127)
  1053  002B                     end_of_initialization:	
  1054                           ;End of C runtime variable initialization code
  1055                           
  1056  002B                     __end_of__initialization:
  1057  002B  0183               	clrf	3
  1058  002C  120A  118A  2941   	ljmp	_main	;jump to C main() function
  1059                           
  1060                           	psect	bssCOMMON
  1061  007A                     __pbssCOMMON:
  1062  007A                     _ADRESH_CANAL1:
  1063  007A                     	ds	2
  1064  007C                     _Banderas_SPI:
  1065  007C                     	ds	1
  1066  007D                     _Banderas:
  1067  007D                     	ds	1
  1068                           
  1069                           	psect	bssBANK0
  1070  0054                     __pbssBANK0:
  1071  0054                     _dato3:
  1072  0054                     	ds	2
  1073  0056                     _dato2:
  1074  0056                     	ds	2
  1075  0058                     _dato1:
  1076  0058                     	ds	2
  1077  005A                     _ADRESH_CANAL2:
  1078  005A                     	ds	2
  1079                           
  1080                           	psect	dataBANK0
  1081  0020                     __pdataBANK0:
  1082  0020                     BCH_DISPLAY@F1449:
  1083  0020                     	ds	32
  1084  0040                     BCD_DISPLAY@F1449:
  1085  0040                     	ds	20
  1086                           
  1087                           	psect	inittext
  1088  012E                     init_fetch0:	
  1089                           ;	Called with low address in FSR and high address in W
  1090                           
  1091  012E  087E               	movf	btemp,w
  1092  012F  008A               	movwf	10
  1093  0130  087F               	movf	btemp+1,w
  1094  0131  0082               	movwf	2
  1095  0132                     init_ram0:	
  1096                           ;Called with:
  1097                           ;	high address of idata address in btemp 
  1098                           ;	low address of idata address in btemp+1 
  1099                           ;	low address of data in FSR
  1100                           ;	high address + 1 of data in btemp-1
  1101                           
  1102  0132  120A  118A  212E  120A  118A  	fcall	init_fetch0
  1103  0137  0080               	movwf	0
  1104  0138  0A84               	incf	4,f
  1105  0139  0804               	movf	4,w
  1106  013A  067D               	xorwf	btemp+-1,w
  1107  013B  1903               	btfsc	3,2
  1108  013C  3400               	retlw	0
  1109  013D  0AFF               	incf	btemp+1,f
  1110  013E  1903               	btfsc	3,2
  1111  013F  0AFE               	incf	btemp,f
  1112  0140  2932               	goto	init_ram0
  1113                           
  1114                           	psect	cstackCOMMON
  1115  0070                     __pcstackCOMMON:
  1116  0070                     ?_spiRead:
  1117  0070                     ??_spiRead:	
  1118                           ; 1 bytes @ 0x0
  1119                           
  1120  0070                     ?_spiWrite:	
  1121                           ; 1 bytes @ 0x0
  1122                           
  1123  0070                     ??_spiWrite:	
  1124                           ; 1 bytes @ 0x0
  1125                           
  1126  0070                     ?_setup:	
  1127                           ; 1 bytes @ 0x0
  1128                           
  1129  0070                     ?_isr:	
  1130                           ; 1 bytes @ 0x0
  1131                           
  1132  0070                     ?_main:	
  1133                           ; 1 bytes @ 0x0
  1134                           
  1135  0070                     ?_spiReceiveWait:	
  1136                           ; 1 bytes @ 0x0
  1137                           
  1138  0070                     ??_spiReceiveWait:	
  1139                           ; 1 bytes @ 0x0
  1140                           
  1141  0070                     ?_ADC:	
  1142                           ; 1 bytes @ 0x0
  1143                           
  1144  0070                     spiWrite@dat:	
  1145                           ; 2 bytes @ 0x0
  1146                           
  1147                           
  1148                           ; 1 bytes @ 0x0
  1149  0070                     	ds	2
  1150  0072                     ??_ADC:
  1151                           
  1152                           ; 1 bytes @ 0x2
  1153  0072                     	ds	2
  1154  0074                     ADC@channel:
  1155                           
  1156                           ; 1 bytes @ 0x4
  1157  0074                     	ds	1
  1158  0075                     ??_isr:
  1159                           
  1160                           ; 1 bytes @ 0x5
  1161  0075                     	ds	5
  1162                           
  1163                           	psect	cstackBANK0
  1164  005C                     __pcstackBANK0:
  1165  005C                     ?_spiInit:
  1166  005C                     spiInit@sDataSample:	
  1167                           ; 1 bytes @ 0x0
  1168                           
  1169                           
  1170                           ; 1 bytes @ 0x0
  1171  005C                     	ds	1
  1172  005D                     spiInit@sClockIdle:
  1173                           
  1174                           ; 1 bytes @ 0x1
  1175  005D                     	ds	1
  1176  005E                     spiInit@sTransmitEdge:
  1177                           
  1178                           ; 1 bytes @ 0x2
  1179  005E                     	ds	1
  1180  005F                     ??_spiInit:
  1181  005F                     spiInit@sType:	
  1182                           ; 1 bytes @ 0x3
  1183                           
  1184                           
  1185                           ; 1 bytes @ 0x3
  1186  005F                     	ds	1
  1187  0060                     ??_setup:
  1188  0060                     ??_main:	
  1189                           ; 1 bytes @ 0x4
  1190                           
  1191                           
  1192                           	psect	maintext
  1193  0141                     __pmaintext:	
  1194                           ; 1 bytes @ 0x4
  1195 ;;
  1196 ;;Main: autosize = 0, tempsize = 0, incstack = 0, save=0
  1197 ;;
  1198 ;; *************** function _main *****************
  1199 ;; Defined at:
  1200 ;;		line 81 in file "main.c"
  1201 ;; Parameters:    Size  Location     Type
  1202 ;;		None
  1203 ;; Auto vars:     Size  Location     Type
  1204 ;;		None
  1205 ;; Return value:  Size  Location     Type
  1206 ;;                  1    wreg      void 
  1207 ;; Registers used:
  1208 ;;		wreg, status,2, status,0, pclath, cstack
  1209 ;; Tracked objects:
  1210 ;;		On entry : B00/0
  1211 ;;		On exit  : 0/0
  1212 ;;		Unchanged: 0/0
  1213 ;; Data sizes:     COMMON   BANK0   BANK1   BANK3   BANK2
  1214 ;;      Params:         0       0       0       0       0
  1215 ;;      Locals:         0       0       0       0       0
  1216 ;;      Temps:          0       0       0       0       0
  1217 ;;      Totals:         0       0       0       0       0
  1218 ;;Total ram usage:        0 bytes
  1219 ;; Hardware stack levels required when called:    5
  1220 ;; This function calls:
  1221 ;;		_setup
  1222 ;; This function is called by:
  1223 ;;		Startup code after reset
  1224 ;; This function uses a non-reentrant model
  1225 ;;
  1226                           
  1227                           
  1228                           ;psect for function _main
  1229  0141                     _main:
  1230  0141                     l1325:	
  1231                           ;incstack = 0
  1232                           ; Regs used in _main: [wreg+status,2+status,0+pclath+cstack]
  1233                           
  1234                           
  1235                           ;main.c: 83: setup();
  1236  0141  120A  118A  20CD  120A  118A  	fcall	_setup
  1237  0146                     l1327:
  1238                           
  1239                           ;main.c: 84: Banderas = 1;
  1240  0146  01FD               	clrf	_Banderas
  1241  0147  0AFD               	incf	_Banderas,f
  1242  0148                     l1329:
  1243                           
  1244                           ;main.c: 85: Banderas_SPI = 0;
  1245  0148  01FC               	clrf	_Banderas_SPI
  1246  0149                     l1331:
  1247                           
  1248                           ;main.c: 87: {;main.c: 88:     ADCON0bits.GO_DONE = 1;
  1249  0149  1283               	bcf	3,5	;RP0=0, select bank0
  1250  014A  1303               	bcf	3,6	;RP1=0, select bank0
  1251  014B  149F               	bsf	31,1	;volatile
  1252  014C  2949               	goto	l1331
  1253  014D  120A  118A  280E   	ljmp	start
  1254  0150                     __end_of_main:
  1255                           
  1256                           	psect	text1
  1257  00CD                     __ptext1:	
  1258 ;; *************** function _setup *****************
  1259 ;; Defined at:
  1260 ;;		line 93 in file "main.c"
  1261 ;; Parameters:    Size  Location     Type
  1262 ;;		None
  1263 ;; Auto vars:     Size  Location     Type
  1264 ;;		None
  1265 ;; Return value:  Size  Location     Type
  1266 ;;                  1    wreg      void 
  1267 ;; Registers used:
  1268 ;;		wreg, status,2, status,0, pclath, cstack
  1269 ;; Tracked objects:
  1270 ;;		On entry : 0/0
  1271 ;;		On exit  : 0/0
  1272 ;;		Unchanged: 0/0
  1273 ;; Data sizes:     COMMON   BANK0   BANK1   BANK3   BANK2
  1274 ;;      Params:         0       0       0       0       0
  1275 ;;      Locals:         0       0       0       0       0
  1276 ;;      Temps:          0       0       0       0       0
  1277 ;;      Totals:         0       0       0       0       0
  1278 ;;Total ram usage:        0 bytes
  1279 ;; Hardware stack levels used:    1
  1280 ;; Hardware stack levels required when called:    4
  1281 ;; This function calls:
  1282 ;;		_spiInit
  1283 ;; This function is called by:
  1284 ;;		_main
  1285 ;; This function uses a non-reentrant model
  1286 ;;
  1287                           
  1288                           
  1289                           ;psect for function _setup
  1290  00CD                     _setup:
  1291  00CD                     l1255:	
  1292                           ;incstack = 0
  1293                           ; Regs used in _setup: [wreg+status,2+status,0+pclath+cstack]
  1294                           
  1295                           
  1296                           ;main.c: 96:     OSCCONbits.SCS = 1;
  1297  00CD  1683               	bsf	3,5	;RP0=1, select bank1
  1298  00CE  1303               	bcf	3,6	;RP1=0, select bank1
  1299  00CF  140F               	bsf	15,0	;volatile
  1300                           
  1301                           ;main.c: 97:     OSCCONbits.IRCF2 = 1;
  1302  00D0  170F               	bsf	15,6	;volatile
  1303                           
  1304                           ;main.c: 98:     OSCCONbits.IRCF1 = 0;
  1305  00D1  128F               	bcf	15,5	;volatile
  1306                           
  1307                           ;main.c: 99:     OSCCONbits.IRCF0 = 0;
  1308  00D2  120F               	bcf	15,4	;volatile
  1309  00D3                     l1257:
  1310                           
  1311                           ;main.c: 102:     PORTA = 0X23;
  1312  00D3  3023               	movlw	35
  1313  00D4  1283               	bcf	3,5	;RP0=0, select bank0
  1314  00D5  1303               	bcf	3,6	;RP1=0, select bank0
  1315  00D6  0085               	movwf	5	;volatile
  1316                           
  1317                           ;main.c: 103:     ANSEL = 0X03;
  1318  00D7  3003               	movlw	3
  1319  00D8  1683               	bsf	3,5	;RP0=1, select bank3
  1320  00D9  1703               	bsf	3,6	;RP1=1, select bank3
  1321  00DA  0088               	movwf	8	;volatile
  1322  00DB                     l1259:
  1323                           
  1324                           ;main.c: 104:     ANSELH = 0X00;
  1325  00DB  0189               	clrf	9	;volatile
  1326  00DC                     l1261:
  1327                           
  1328                           ;main.c: 105:     TRISA = 0X23;
  1329  00DC  3023               	movlw	35
  1330  00DD  1683               	bsf	3,5	;RP0=1, select bank1
  1331  00DE  1303               	bcf	3,6	;RP1=0, select bank1
  1332  00DF  0085               	movwf	5	;volatile
  1333  00E0                     l1263:
  1334                           
  1335                           ;main.c: 110:     INTCONbits.GIE = 1;
  1336  00E0  178B               	bsf	11,7	;volatile
  1337  00E1                     l1265:
  1338                           
  1339                           ;main.c: 111:     INTCONbits.PEIE= 1;
  1340  00E1  170B               	bsf	11,6	;volatile
  1341  00E2                     l1267:
  1342                           
  1343                           ;main.c: 112:     PIE1bits.ADIE = 1;
  1344  00E2  170C               	bsf	12,6	;volatile
  1345  00E3                     l1269:
  1346                           
  1347                           ;main.c: 115:     VCFG1 = 0;
  1348  00E3  129F               	bcf	31,5	;volatile
  1349  00E4                     l1271:
  1350                           
  1351                           ;main.c: 116:     VCFG0 = 0;
  1352  00E4  121F               	bcf	31,4	;volatile
  1353  00E5                     l1273:
  1354                           
  1355                           ;main.c: 117:     ADCON1bits.ADFM = 0;
  1356  00E5  139F               	bcf	31,7	;volatile
  1357  00E6                     l1275:
  1358                           
  1359                           ;main.c: 118:     ADCON0bits.ADCS = 0b00;
  1360  00E6  303F               	movlw	-193
  1361  00E7  1283               	bcf	3,5	;RP0=0, select bank0
  1362  00E8  1303               	bcf	3,6	;RP1=0, select bank0
  1363  00E9  059F               	andwf	31,f	;volatile
  1364  00EA                     l1277:
  1365                           
  1366                           ;main.c: 119:     PIR1bits.ADIF = 0;
  1367  00EA  130C               	bcf	12,6	;volatile
  1368  00EB                     l1279:
  1369                           
  1370                           ;main.c: 120:     ADCON0bits.ADON = 1;
  1371  00EB  141F               	bsf	31,0	;volatile
  1372  00EC                     l1281:
  1373                           
  1374                           ;main.c: 124:     PIR1bits.SSPIF = 0;
  1375  00EC  118C               	bcf	12,3	;volatile
  1376  00ED                     l1283:
  1377                           
  1378                           ;main.c: 125:     PIE1bits.SSPIE = 1;
  1379  00ED  1683               	bsf	3,5	;RP0=1, select bank1
  1380  00EE  1303               	bcf	3,6	;RP1=0, select bank1
  1381  00EF  158C               	bsf	12,3	;volatile
  1382  00F0                     l1285:
  1383                           
  1384                           ;main.c: 127:     spiInit(SPI_SLAVE_SS_EN, SPI_DATA_SAMPLE_MIDDLE, SPI_CLOCK_IDLE_LOW, S
      +                          PI_IDLE_2_ACTIVE);
  1385  00F0  1283               	bcf	3,5	;RP0=0, select bank0
  1386  00F1  1303               	bcf	3,6	;RP1=0, select bank0
  1387  00F2  01DC               	clrf	spiInit@sDataSample
  1388  00F3  01DD               	clrf	spiInit@sClockIdle
  1389  00F4  01DE               	clrf	spiInit@sTransmitEdge
  1390  00F5  3024               	movlw	36
  1391  00F6  120A  118A  20FC  120A  118A  	fcall	_spiInit
  1392  00FB                     l77:
  1393  00FB  0008               	return
  1394  00FC                     __end_of_setup:
  1395                           
  1396                           	psect	text2
  1397  00FC                     __ptext2:	
  1398 ;; *************** function _spiInit *****************
  1399 ;; Defined at:
  1400 ;;		line 12 in file "../../Maestro/Laboratorio3.1.Maestro.X/SPI.c"
  1401 ;; Parameters:    Size  Location     Type
  1402 ;;  sType           1    wreg     enum E1264
  1403 ;;  sDataSample     1    0[BANK0 ] enum E1272
  1404 ;;  sClockIdle      1    1[BANK0 ] enum E1276
  1405 ;;  sTransmitEdg    1    2[BANK0 ] enum E1280
  1406 ;; Auto vars:     Size  Location     Type
  1407 ;;  sType           1    3[BANK0 ] enum E1264
  1408 ;; Return value:  Size  Location     Type
  1409 ;;                  1    wreg      void 
  1410 ;; Registers used:
  1411 ;;		wreg, status,2, status,0
  1412 ;; Tracked objects:
  1413 ;;		On entry : 0/0
  1414 ;;		On exit  : 0/0
  1415 ;;		Unchanged: 0/0
  1416 ;; Data sizes:     COMMON   BANK0   BANK1   BANK3   BANK2
  1417 ;;      Params:         0       3       0       0       0
  1418 ;;      Locals:         0       1       0       0       0
  1419 ;;      Temps:          0       0       0       0       0
  1420 ;;      Totals:         0       4       0       0       0
  1421 ;;Total ram usage:        4 bytes
  1422 ;; Hardware stack levels used:    1
  1423 ;; Hardware stack levels required when called:    3
  1424 ;; This function calls:
  1425 ;;		Nothing
  1426 ;; This function is called by:
  1427 ;;		_setup
  1428 ;; This function uses a non-reentrant model
  1429 ;;
  1430                           
  1431                           
  1432                           ;psect for function _spiInit
  1433  00FC                     _spiInit:
  1434                           
  1435                           ;incstack = 0
  1436                           ; Regs used in _spiInit: [wreg+status,2+status,0]
  1437                           ;spiInit@sType stored from wreg
  1438  00FC  1283               	bcf	3,5	;RP0=0, select bank0
  1439  00FD  1303               	bcf	3,6	;RP1=0, select bank0
  1440  00FE  00DF               	movwf	spiInit@sType
  1441  00FF                     l1229:
  1442                           
  1443                           ;../../Maestro/Laboratorio3.1.Maestro.X/SPI.c: 12: void spiInit(Spi_Type sType, Spi_Data
      +                          _Sample sDataSample, Spi_Clock_Idle sClockIdle, Spi_Transmit_Edge sTransmitEdge);../../M
      +                          aestro/Laboratorio3.1.Maestro.X/SPI.c: 13: {;../../Maestro/Laboratorio3.1.Maestro.X/SPI.
      +                          c: 14:     TRISC5 = 0;
  1444  00FF  1683               	bsf	3,5	;RP0=1, select bank1
  1445  0100  1303               	bcf	3,6	;RP1=0, select bank1
  1446  0101  1287               	bcf	7,5	;volatile
  1447                           
  1448                           ;../../Maestro/Laboratorio3.1.Maestro.X/SPI.c: 15:     if(sType & 0b00000100)
  1449  0102  1283               	bcf	3,5	;RP0=0, select bank0
  1450  0103  1303               	bcf	3,6	;RP1=0, select bank0
  1451  0104  1D5F               	btfss	spiInit@sType,2
  1452  0105  2907               	goto	u281
  1453  0106  2908               	goto	u280
  1454  0107                     u281:
  1455  0107  290E               	goto	l1235
  1456  0108                     u280:
  1457  0108                     l1231:
  1458                           
  1459                           ;../../Maestro/Laboratorio3.1.Maestro.X/SPI.c: 16:     {;../../Maestro/Laboratorio3.1.Ma
      +                          estro.X/SPI.c: 17:         SSPSTAT = sTransmitEdge;
  1460  0108  085E               	movf	spiInit@sTransmitEdge,w
  1461  0109  1683               	bsf	3,5	;RP0=1, select bank1
  1462  010A  1303               	bcf	3,6	;RP1=0, select bank1
  1463  010B  0094               	movwf	20	;volatile
  1464  010C                     l1233:
  1465                           
  1466                           ;../../Maestro/Laboratorio3.1.Maestro.X/SPI.c: 18:         TRISC3 = 1;
  1467  010C  1587               	bsf	7,3	;volatile
  1468                           
  1469                           ;../../Maestro/Laboratorio3.1.Maestro.X/SPI.c: 19:     }
  1470  010D  2914               	goto	l293
  1471  010E                     l1235:
  1472                           
  1473                           ;../../Maestro/Laboratorio3.1.Maestro.X/SPI.c: 21:     {;../../Maestro/Laboratorio3.1.Ma
      +                          estro.X/SPI.c: 22:         SSPSTAT = sDataSample | sTransmitEdge;
  1474  010E  085C               	movf	spiInit@sDataSample,w
  1475  010F  045E               	iorwf	spiInit@sTransmitEdge,w
  1476  0110  1683               	bsf	3,5	;RP0=1, select bank1
  1477  0111  1303               	bcf	3,6	;RP1=0, select bank1
  1478  0112  0094               	movwf	20	;volatile
  1479  0113                     l1237:
  1480                           
  1481                           ;../../Maestro/Laboratorio3.1.Maestro.X/SPI.c: 23:         TRISC3 = 0;
  1482  0113  1187               	bcf	7,3	;volatile
  1483  0114                     l293:	
  1484                           ;../../Maestro/Laboratorio3.1.Maestro.X/SPI.c: 24:     }
  1485                           
  1486                           
  1487                           ;../../Maestro/Laboratorio3.1.Maestro.X/SPI.c: 26:     SSPCON = sType | sClockIdle;
  1488  0114  1283               	bcf	3,5	;RP0=0, select bank0
  1489  0115  1303               	bcf	3,6	;RP1=0, select bank0
  1490  0116  085F               	movf	spiInit@sType,w
  1491  0117  045D               	iorwf	spiInit@sClockIdle,w
  1492  0118  0094               	movwf	20	;volatile
  1493  0119                     l294:
  1494  0119  0008               	return
  1495  011A                     __end_of_spiInit:
  1496                           
  1497                           	psect	text3
  1498  002F                     __ptext3:	
  1499 ;; *************** function _isr *****************
  1500 ;; Defined at:
  1501 ;;		line 48 in file "main.c"
  1502 ;; Parameters:    Size  Location     Type
  1503 ;;		None
  1504 ;; Auto vars:     Size  Location     Type
  1505 ;;		None
  1506 ;; Return value:  Size  Location     Type
  1507 ;;                  1    wreg      void 
  1508 ;; Registers used:
  1509 ;;		wreg, fsr0l, fsr0h, status,2, status,0, pclath, cstack
  1510 ;; Tracked objects:
  1511 ;;		On entry : 0/0
  1512 ;;		On exit  : 0/0
  1513 ;;		Unchanged: 0/0
  1514 ;; Data sizes:     COMMON   BANK0   BANK1   BANK3   BANK2
  1515 ;;      Params:         0       0       0       0       0
  1516 ;;      Locals:         0       0       0       0       0
  1517 ;;      Temps:          5       0       0       0       0
  1518 ;;      Totals:         5       0       0       0       0
  1519 ;;Total ram usage:        5 bytes
  1520 ;; Hardware stack levels used:    1
  1521 ;; Hardware stack levels required when called:    2
  1522 ;; This function calls:
  1523 ;;		_ADC
  1524 ;;		_spiRead
  1525 ;;		_spiWrite
  1526 ;; This function is called by:
  1527 ;;		Interrupt level 1
  1528 ;; This function uses a non-reentrant model
  1529 ;;
  1530                           
  1531                           
  1532                           ;psect for function _isr
  1533  002F                     _isr:
  1534  002F                     i1l1287:
  1535                           
  1536                           ;main.c: 52:    if(SSPIF == 1){
  1537  002F  1283               	bcf	3,5	;RP0=0, select bank0
  1538  0030  1303               	bcf	3,6	;RP1=0, select bank0
  1539  0031  1D8C               	btfss	12,3	;volatile
  1540  0032  2834               	goto	u30_21
  1541  0033  2835               	goto	u30_20
  1542  0034                     u30_21:
  1543  0034  285A               	goto	i1l1301
  1544  0035                     u30_20:
  1545  0035                     i1l1289:
  1546                           
  1547                           ;main.c: 53:        Banderas_SPI = spiRead();
  1548  0035  120A  118A  2150  120A  118A  	fcall	_spiRead
  1549  003A  00F5               	movwf	??_isr
  1550  003B  0875               	movf	??_isr,w
  1551  003C  00FC               	movwf	_Banderas_SPI
  1552  003D                     i1l1291:
  1553                           
  1554                           ;main.c: 55:        if (Banderas_SPI == 1){
  1555  003D  037C               	decf	_Banderas_SPI,w
  1556  003E  1D03               	btfss	3,2
  1557  003F  2841               	goto	u31_21
  1558  0040  2842               	goto	u31_20
  1559  0041                     u31_21:
  1560  0041  2849               	goto	i1l1295
  1561  0042                     u31_20:
  1562  0042                     i1l1293:
  1563                           
  1564                           ;main.c: 56:           spiWrite(ADRESH_CANAL1);
  1565  0042  087A               	movf	_ADRESH_CANAL1,w
  1566  0043  120A  118A  2160  120A  118A  	fcall	_spiWrite
  1567                           
  1568                           ;main.c: 57:        }else if (Banderas_SPI == 2){
  1569  0048  2857               	goto	i1l1299
  1570  0049                     i1l1295:
  1571  0049  3002               	movlw	2
  1572  004A  067C               	xorwf	_Banderas_SPI,w
  1573  004B  1D03               	btfss	3,2
  1574  004C  284E               	goto	u32_21
  1575  004D  284F               	goto	u32_20
  1576  004E                     u32_21:
  1577  004E  2857               	goto	i1l1299
  1578  004F                     u32_20:
  1579  004F                     i1l1297:
  1580                           
  1581                           ;main.c: 58:           spiWrite(ADRESH_CANAL2);
  1582  004F  1283               	bcf	3,5	;RP0=0, select bank0
  1583  0050  1303               	bcf	3,6	;RP1=0, select bank0
  1584  0051  085A               	movf	_ADRESH_CANAL2,w
  1585  0052  120A  118A  2160  120A  118A  	fcall	_spiWrite
  1586  0057                     i1l1299:
  1587                           
  1588                           ;main.c: 60:         SSPIF = 0;
  1589  0057  1283               	bcf	3,5	;RP0=0, select bank0
  1590  0058  1303               	bcf	3,6	;RP1=0, select bank0
  1591  0059  118C               	bcf	12,3	;volatile
  1592  005A                     i1l1301:
  1593                           
  1594                           ;main.c: 64:     if (ADIF == 1){
  1595  005A  1F0C               	btfss	12,6	;volatile
  1596  005B  285D               	goto	u33_21
  1597  005C  285E               	goto	u33_20
  1598  005D                     u33_21:
  1599  005D  2890               	goto	i1l66
  1600  005E                     u33_20:
  1601  005E  2880               	goto	i1l1319
  1602  005F                     i1l1305:
  1603                           
  1604                           ;main.c: 67:                 ADRESH_CANAL1 = ADC(0x01);
  1605  005F  3001               	movlw	1
  1606  0060  120A  118A  211A  120A  118A  	fcall	_ADC
  1607  0065  0871               	movf	?_ADC+1,w
  1608  0066  00FB               	movwf	_ADRESH_CANAL1+1
  1609  0067  0870               	movf	?_ADC,w
  1610  0068  00FA               	movwf	_ADRESH_CANAL1
  1611  0069                     i1l1307:
  1612                           
  1613                           ;main.c: 68:                 Banderas = 2;
  1614  0069  3002               	movlw	2
  1615  006A  00F5               	movwf	??_isr
  1616  006B  0875               	movf	??_isr,w
  1617  006C  00FD               	movwf	_Banderas
  1618  006D                     i1l1309:
  1619                           
  1620                           ;main.c: 69:                 ADIF = 0;
  1621  006D  1283               	bcf	3,5	;RP0=0, select bank0
  1622  006E  1303               	bcf	3,6	;RP1=0, select bank0
  1623  006F  130C               	bcf	12,6	;volatile
  1624                           
  1625                           ;main.c: 70:                 break;
  1626  0070  2890               	goto	i1l66
  1627  0071                     i1l1311:
  1628                           
  1629                           ;main.c: 72:                 ADRESH_CANAL2 = ADC(0x00);
  1630  0071  3000               	movlw	0
  1631  0072  120A  118A  211A  120A  118A  	fcall	_ADC
  1632  0077  0871               	movf	?_ADC+1,w
  1633  0078  1283               	bcf	3,5	;RP0=0, select bank0
  1634  0079  1303               	bcf	3,6	;RP1=0, select bank0
  1635  007A  00DB               	movwf	_ADRESH_CANAL2+1
  1636  007B  0870               	movf	?_ADC,w
  1637  007C  00DA               	movwf	_ADRESH_CANAL2
  1638  007D                     i1l1313:
  1639                           
  1640                           ;main.c: 73:                 Banderas = 1;
  1641  007D  01FD               	clrf	_Banderas
  1642  007E  0AFD               	incf	_Banderas,f
  1643  007F  286D               	goto	i1l1309
  1644  0080                     i1l1319:
  1645  0080  087D               	movf	_Banderas,w
  1646  0081  00F5               	movwf	??_isr
  1647  0082  01F6               	clrf	??_isr+1
  1648                           
  1649                           ; Switch on 2 bytes has been partitioned into a top level switch of size 1, and 1 sub-sw
      +                          itches
  1650                           ; Switch size 1, requested type "simple"
  1651                           ; Number of cases is 1, Range of values is 0 to 0
  1652                           ; switch strategies available:
  1653                           ; Name         Instructions Cycles
  1654                           ; simple_byte            4     3 (average)
  1655                           ; direct_byte           11     8 (fixed)
  1656                           ; jumptable            260     6 (fixed)
  1657                           ;	Chosen strategy is simple_byte
  1658  0083  0876               	movf	??_isr+1,w
  1659  0084  3A00               	xorlw	0	; case 0
  1660  0085  1903               	skipnz
  1661  0086  2888               	goto	i1l1353
  1662  0087  2890               	goto	i1l66
  1663  0088                     i1l1353:
  1664                           
  1665                           ; Switch size 1, requested type "simple"
  1666                           ; Number of cases is 2, Range of values is 1 to 2
  1667                           ; switch strategies available:
  1668                           ; Name         Instructions Cycles
  1669                           ; simple_byte            7     4 (average)
  1670                           ; direct_byte           17    11 (fixed)
  1671                           ; jumptable            263     9 (fixed)
  1672                           ;	Chosen strategy is simple_byte
  1673  0088  0875               	movf	??_isr,w
  1674  0089  3A01               	xorlw	1	; case 1
  1675  008A  1903               	skipnz
  1676  008B  285F               	goto	i1l1305
  1677  008C  3A03               	xorlw	3	; case 2
  1678  008D  1903               	skipnz
  1679  008E  2871               	goto	i1l1311
  1680  008F  2890               	goto	i1l66
  1681  0090                     i1l66:
  1682  0090  0879               	movf	??_isr+4,w
  1683  0091  008A               	movwf	10
  1684  0092  0878               	movf	??_isr+3,w
  1685  0093  0084               	movwf	4
  1686  0094  0E77               	swapf	??_isr+2,w
  1687  0095  0083               	movwf	3
  1688  0096  0EFE               	swapf	btemp,f
  1689  0097  0E7E               	swapf	btemp,w
  1690  0098  0009               	retfie
  1691  0099                     __end_of_isr:
  1692                           
  1693                           	psect	intentry
  1694  0004                     __pintentry:	
  1695                           ;incstack = 0
  1696                           ; Regs used in _isr: [wreg-fsr0h+status,2+status,0+pclath+cstack]
  1697                           
  1698  0004                     interrupt_function:
  1699  007E                     saved_w	set	btemp
  1700  0004  00FE               	movwf	btemp
  1701  0005  0E03               	swapf	3,w
  1702  0006  00F7               	movwf	??_isr+2
  1703  0007  0804               	movf	4,w
  1704  0008  00F8               	movwf	??_isr+3
  1705  0009  080A               	movf	10,w
  1706  000A  00F9               	movwf	??_isr+4
  1707  000B  120A  118A  282F   	ljmp	_isr
  1708                           
  1709                           	psect	text4
  1710  0160                     __ptext4:	
  1711 ;; *************** function _spiWrite *****************
  1712 ;; Defined at:
  1713 ;;		line 34 in file "../../Maestro/Laboratorio3.1.Maestro.X/SPI.c"
  1714 ;; Parameters:    Size  Location     Type
  1715 ;;  dat             1    wreg     unsigned char 
  1716 ;; Auto vars:     Size  Location     Type
  1717 ;;  dat             1    0[COMMON] unsigned char 
  1718 ;; Return value:  Size  Location     Type
  1719 ;;                  1    wreg      void 
  1720 ;; Registers used:
  1721 ;;		wreg
  1722 ;; Tracked objects:
  1723 ;;		On entry : 0/0
  1724 ;;		On exit  : 0/0
  1725 ;;		Unchanged: 0/0
  1726 ;; Data sizes:     COMMON   BANK0   BANK1   BANK3   BANK2
  1727 ;;      Params:         0       0       0       0       0
  1728 ;;      Locals:         1       0       0       0       0
  1729 ;;      Temps:          0       0       0       0       0
  1730 ;;      Totals:         1       0       0       0       0
  1731 ;;Total ram usage:        1 bytes
  1732 ;; Hardware stack levels used:    1
  1733 ;; This function calls:
  1734 ;;		Nothing
  1735 ;; This function is called by:
  1736 ;;		_isr
  1737 ;; This function uses a non-reentrant model
  1738 ;;
  1739                           
  1740                           
  1741                           ;psect for function _spiWrite
  1742  0160                     _spiWrite:
  1743                           
  1744                           ;incstack = 0
  1745                           ; Regs used in _spiWrite: [wreg]
  1746                           ;spiWrite@dat stored from wreg
  1747  0160  00F0               	movwf	spiWrite@dat
  1748  0161                     i1l1247:
  1749                           
  1750                           ;../../Maestro/Laboratorio3.1.Maestro.X/SPI.c: 34: void spiWrite(char dat);../../Maestro
      +                          /Laboratorio3.1.Maestro.X/SPI.c: 35: {;../../Maestro/Laboratorio3.1.Maestro.X/SPI.c: 36:
      +                               SSPBUF = dat;
  1751  0161  0870               	movf	spiWrite@dat,w
  1752  0162  1283               	bcf	3,5	;RP0=0, select bank0
  1753  0163  1303               	bcf	3,6	;RP1=0, select bank0
  1754  0164  0093               	movwf	19	;volatile
  1755  0165                     i1l303:
  1756  0165  0008               	return
  1757  0166                     __end_of_spiWrite:
  1758                           
  1759                           	psect	text5
  1760  0150                     __ptext5:	
  1761 ;; *************** function _spiRead *****************
  1762 ;; Defined at:
  1763 ;;		line 47 in file "../../Maestro/Laboratorio3.1.Maestro.X/SPI.c"
  1764 ;; Parameters:    Size  Location     Type
  1765 ;;		None
  1766 ;; Auto vars:     Size  Location     Type
  1767 ;;		None
  1768 ;; Return value:  Size  Location     Type
  1769 ;;                  1    wreg      unsigned char 
  1770 ;; Registers used:
  1771 ;;		wreg, status,2, status,0, pclath, cstack
  1772 ;; Tracked objects:
  1773 ;;		On entry : 0/0
  1774 ;;		On exit  : 0/0
  1775 ;;		Unchanged: 0/0
  1776 ;; Data sizes:     COMMON   BANK0   BANK1   BANK3   BANK2
  1777 ;;      Params:         0       0       0       0       0
  1778 ;;      Locals:         0       0       0       0       0
  1779 ;;      Temps:          0       0       0       0       0
  1780 ;;      Totals:         0       0       0       0       0
  1781 ;;Total ram usage:        0 bytes
  1782 ;; Hardware stack levels used:    1
  1783 ;; Hardware stack levels required when called:    1
  1784 ;; This function calls:
  1785 ;;		_spiReceiveWait
  1786 ;; This function is called by:
  1787 ;;		_isr
  1788 ;; This function uses a non-reentrant model
  1789 ;;
  1790                           
  1791                           
  1792                           ;psect for function _spiRead
  1793  0150                     _spiRead:
  1794  0150                     i1l1241:	
  1795                           ;incstack = 0
  1796                           ; Regs used in _spiRead: [wreg+status,2+status,0+pclath+cstack]
  1797                           
  1798                           
  1799                           ;../../Maestro/Laboratorio3.1.Maestro.X/SPI.c: 49:     spiReceiveWait();
  1800  0150  120A  118A  2159  120A  118A  	fcall	_spiReceiveWait
  1801  0155                     i1l1243:
  1802                           
  1803                           ;../../Maestro/Laboratorio3.1.Maestro.X/SPI.c: 50:     return(SSPBUF);
  1804  0155  1283               	bcf	3,5	;RP0=0, select bank0
  1805  0156  1303               	bcf	3,6	;RP1=0, select bank0
  1806  0157  0813               	movf	19,w	;volatile
  1807  0158                     i1l311:
  1808  0158  0008               	return
  1809  0159                     __end_of_spiRead:
  1810                           
  1811                           	psect	text6
  1812  0159                     __ptext6:	
  1813 ;; *************** function _spiReceiveWait *****************
  1814 ;; Defined at:
  1815 ;;		line 29 in file "../../Maestro/Laboratorio3.1.Maestro.X/SPI.c"
  1816 ;; Parameters:    Size  Location     Type
  1817 ;;		None
  1818 ;; Auto vars:     Size  Location     Type
  1819 ;;		None
  1820 ;; Return value:  Size  Location     Type
  1821 ;;                  1    wreg      void 
  1822 ;; Registers used:
  1823 ;;		None
  1824 ;; Tracked objects:
  1825 ;;		On entry : 0/0
  1826 ;;		On exit  : 0/0
  1827 ;;		Unchanged: 0/0
  1828 ;; Data sizes:     COMMON   BANK0   BANK1   BANK3   BANK2
  1829 ;;      Params:         0       0       0       0       0
  1830 ;;      Locals:         0       0       0       0       0
  1831 ;;      Temps:          0       0       0       0       0
  1832 ;;      Totals:         0       0       0       0       0
  1833 ;;Total ram usage:        0 bytes
  1834 ;; Hardware stack levels used:    1
  1835 ;; This function calls:
  1836 ;;		Nothing
  1837 ;; This function is called by:
  1838 ;;		_spiRead
  1839 ;; This function uses a non-reentrant model
  1840 ;;
  1841                           
  1842                           
  1843                           ;psect for function _spiReceiveWait
  1844  0159                     _spiReceiveWait:
  1845  0159                     i1l1239:	
  1846                           ;incstack = 0
  1847                           ; Regs used in _spiReceiveWait: []
  1848                           
  1849  0159                     i1l297:	
  1850                           ;../../Maestro/Laboratorio3.1.Maestro.X/SPI.c: 31:     while ( !SSPSTATbits.BF );
  1851                           
  1852  0159  1683               	bsf	3,5	;RP0=1, select bank1
  1853  015A  1303               	bcf	3,6	;RP1=0, select bank1
  1854  015B  1C14               	btfss	20,0	;volatile
  1855  015C  295E               	goto	u29_21
  1856  015D  295F               	goto	u29_20
  1857  015E                     u29_21:
  1858  015E  2959               	goto	i1l297
  1859  015F                     u29_20:
  1860  015F                     i1l300:
  1861  015F  0008               	return
  1862  0160                     __end_of_spiReceiveWait:
  1863                           
  1864                           	psect	text7
  1865  011A                     __ptext7:	
  1866 ;; *************** function _ADC *****************
  1867 ;; Defined at:
  1868 ;;		line 15 in file "../../Maestro/Laboratorio3.1.Maestro.X/ADC_CONVERTER.c"
  1869 ;; Parameters:    Size  Location     Type
  1870 ;;  channel         1    wreg     unsigned char 
  1871 ;; Auto vars:     Size  Location     Type
  1872 ;;  channel         1    4[COMMON] unsigned char 
  1873 ;; Return value:  Size  Location     Type
  1874 ;;                  2    0[COMMON] unsigned int 
  1875 ;; Registers used:
  1876 ;;		wreg, status,2, status,0
  1877 ;; Tracked objects:
  1878 ;;		On entry : 0/0
  1879 ;;		On exit  : 0/0
  1880 ;;		Unchanged: 0/0
  1881 ;; Data sizes:     COMMON   BANK0   BANK1   BANK3   BANK2
  1882 ;;      Params:         2       0       0       0       0
  1883 ;;      Locals:         1       0       0       0       0
  1884 ;;      Temps:          2       0       0       0       0
  1885 ;;      Totals:         5       0       0       0       0
  1886 ;;Total ram usage:        5 bytes
  1887 ;; Hardware stack levels used:    1
  1888 ;; This function calls:
  1889 ;;		Nothing
  1890 ;; This function is called by:
  1891 ;;		_isr
  1892 ;; This function uses a non-reentrant model
  1893 ;;
  1894                           
  1895                           
  1896                           ;psect for function _ADC
  1897  011A                     _ADC:
  1898                           
  1899                           ;incstack = 0
  1900                           ; Regs used in _ADC: [wreg+status,2+status,0]
  1901                           ;ADC@channel stored from wreg
  1902  011A  00F4               	movwf	ADC@channel
  1903  011B                     i1l1249:
  1904                           
  1905                           ;../../Maestro/Laboratorio3.1.Maestro.X/ADC_CONVERTER.c: 16:     ADCON0bits.CHS = channe
      +                          l;
  1906  011B  0874               	movf	ADC@channel,w
  1907  011C  00F2               	movwf	??_ADC
  1908  011D  0DF2               	rlf	??_ADC,f
  1909  011E  0DF2               	rlf	??_ADC,f
  1910  011F  1283               	bcf	3,5	;RP0=0, select bank0
  1911  0120  1303               	bcf	3,6	;RP1=0, select bank0
  1912  0121  081F               	movf	31,w	;volatile
  1913  0122  0672               	xorwf	??_ADC,w
  1914  0123  39C3               	andlw	-61
  1915  0124  0672               	xorwf	??_ADC,w
  1916  0125  009F               	movwf	31	;volatile
  1917  0126                     i1l1251:
  1918                           
  1919                           ;../../Maestro/Laboratorio3.1.Maestro.X/ADC_CONVERTER.c: 17:     return(ADRESH);
  1920  0126  081E               	movf	30,w	;volatile
  1921  0127  00F2               	movwf	??_ADC
  1922  0128  01F3               	clrf	??_ADC+1
  1923  0129  0872               	movf	??_ADC,w
  1924  012A  00F0               	movwf	?_ADC
  1925  012B  0873               	movf	??_ADC+1,w
  1926  012C  00F1               	movwf	?_ADC+1
  1927  012D                     i1l84:
  1928  012D  0008               	return
  1929  012E                     __end_of_ADC:
  1930  007E                     btemp	set	126	;btemp
  1931  007E                     wtemp0	set	126
  1932                           
  1933                           	psect	config
  1934                           
  1935                           ;Config register CONFIG1 @ 0x2007
  1936                           ;	Oscillator Selection bits
  1937                           ;	FOSC = INTRC_NOCLKOUT, INTOSCIO oscillator: I/O function on RA6/OSC2/CLKOUT pin, I/O f
      +                          unction on RA7/OSC1/CLKIN
  1938                           ;	Watchdog Timer Enable bit
  1939                           ;	WDTE = OFF, WDT disabled and can be enabled by SWDTEN bit of the WDTCON register
  1940                           ;	Power-up Timer Enable bit
  1941                           ;	PWRTE = ON, PWRT enabled
  1942                           ;	RE3/MCLR pin function select bit
  1943                           ;	MCLRE = OFF, RE3/MCLR pin function is digital input, MCLR internally tied to VDD
  1944                           ;	Code Protection bit
  1945                           ;	CP = OFF, Program memory code protection is disabled
  1946                           ;	Data Code Protection bit
  1947                           ;	CPD = OFF, Data memory code protection is disabled
  1948                           ;	Brown Out Reset Selection bits
  1949                           ;	BOREN = OFF, BOR disabled
  1950                           ;	Internal External Switchover bit
  1951                           ;	IESO = OFF, Internal/External Switchover mode is disabled
  1952                           ;	Fail-Safe Clock Monitor Enabled bit
  1953                           ;	FCMEN = OFF, Fail-Safe Clock Monitor is disabled
  1954                           ;	Low Voltage Programming Enable bit
  1955                           ;	LVP = ON, RB3/PGM pin has PGM function, low voltage programming enabled
  1956                           ;	In-Circuit Debugger Mode bit
  1957                           ;	DEBUG = 0x1, unprogrammed default
  1958  2007                     	org	8199
  1959  2007  30C4               	dw	12484
  1960                           
  1961                           ;Config register CONFIG2 @ 0x2008
  1962                           ;	Brown-out Reset Selection bit
  1963                           ;	BOR4V = BOR40V, Brown-out Reset set to 4.0V
  1964                           ;	Flash Program Memory Self Write Enable bits
  1965                           ;	WRT = OFF, Write protection off
  1966  2008                     	org	8200
  1967  2008  3FFF               	dw	16383

Data Sizes:
    Strings     0
    Constant    0
    Data        52
    BSS         12
    Persistent  0
    Stack       0

Auto Spaces:
    Space          Size  Autos    Used
    COMMON           14     10      14
    BANK0            80      4      64
    BANK1            80      0       0
    BANK3            96      0       0
    BANK2            96      0       0

Pointer List with Targets:

    None.

Critical Paths under _main in COMMON

    None.

Critical Paths under _isr in COMMON

    _isr->_ADC

Critical Paths under _main in BANK0

    _setup->_spiInit

Critical Paths under _isr in BANK0

    None.

Critical Paths under _main in BANK1

    None.

Critical Paths under _isr in BANK1

    None.

Critical Paths under _main in BANK3

    None.

Critical Paths under _isr in BANK3

    None.

Critical Paths under _main in BANK2

    None.

Critical Paths under _isr in BANK2

    None.

Call Graph Tables:

 ---------------------------------------------------------------------------------
 (Depth) Function   	        Calls       Base Space   Used Autos Params    Refs
 ---------------------------------------------------------------------------------
 (0) _main                                                 0     0      0     360
                              _setup
 ---------------------------------------------------------------------------------
 (1) _setup                                                0     0      0     360
                            _spiInit
 ---------------------------------------------------------------------------------
 (2) _spiInit                                              4     1      3     360
                                              0 BANK0      4     1      3
 ---------------------------------------------------------------------------------
 Estimated maximum stack depth 2
 ---------------------------------------------------------------------------------
 (Depth) Function   	        Calls       Base Space   Used Autos Params    Refs
 ---------------------------------------------------------------------------------
 (3) _isr                                                  5     5      0      44
                                              5 COMMON     5     5      0
                                _ADC
                            _spiRead
                           _spiWrite
 ---------------------------------------------------------------------------------
 (4) _spiWrite                                             1     1      0      22
                                              0 COMMON     1     1      0
 ---------------------------------------------------------------------------------
 (4) _spiRead                                              0     0      0       0
                     _spiReceiveWait
 ---------------------------------------------------------------------------------
 (5) _spiReceiveWait                                       0     0      0       0
 ---------------------------------------------------------------------------------
 (4) _ADC                                                  5     3      2      22
                                              0 COMMON     5     3      2
 ---------------------------------------------------------------------------------
 Estimated maximum stack depth 5
 ---------------------------------------------------------------------------------

 Call Graph Graphs:

 _main (ROOT)
   _setup
     _spiInit

 _isr (ROOT)
   _ADC
   _spiRead
     _spiReceiveWait
   _spiWrite

 Address spaces:
Name               Size   Autos  Total    Cost      Usage
BANK3               60      0       0       9        0.0%
BITBANK3            60      0       0       8        0.0%
SFR3                 0      0       0       4        0.0%
BITSFR3              0      0       0       4        0.0%
BANK2               60      0       0      11        0.0%
BITBANK2            60      0       0      10        0.0%
SFR2                 0      0       0       5        0.0%
BITSFR2              0      0       0       5        0.0%
BANK1               50      0       0       7        0.0%
BITBANK1            50      0       0       6        0.0%
SFR1                 0      0       0       2        0.0%
BITSFR1              0      0       0       2        0.0%
BANK0               50      4      40       5       80.0%
BITBANK0            50      0       0       4        0.0%
SFR0                 0      0       0       1        0.0%
BITSFR0              0      0       0       1        0.0%
COMMON               E      A       E       1      100.0%
BITCOMMON            E      0       0       0        0.0%
CODE                 0      0       0       0        0.0%
DATA                 0      0      4E      12        0.0%
ABS                  0      0      4E       3        0.0%
NULL                 0      0       0       0        0.0%
STACK                0      0       0       2        0.0%
EEDATA             100      0       0       0        0.0%


Microchip Technology PIC Macro Assembler V2.31 build 20201012212115 
Symbol Table                                                                                   Wed Aug 04 02:51:35 2021

                      pc 0002              _SSPSTATbits 0094                       l77 00FB  
                     fsr 0004                      _ADC 011A                      l293 0114  
                    l294 0119                      _RD0 0040                      _RD1 0041  
                    _RD2 0042                      _RE0 0048                      _RD3 0043  
                    _RE1 0049                      _RD4 0044                      _RD5 0045  
                    _RD6 0046                      _RD7 0047                      u280 0108  
                    u281 0107                      _isr 002F                      fsr0 0004  
                    indf 0000                     ?_ADC 0070                     l1231 0108  
                   l1233 010C                     l1235 010E                     l1331 0149  
                   l1237 0113                     l1229 00FF                     l1261 00DC  
                   l1325 0141                     l1271 00E4                     l1263 00E0  
                   l1255 00CD                     l1327 0146                     l1281 00EC  
                   l1273 00E5                     l1265 00E1                     l1257 00D3  
                   l1329 0148                     l1283 00ED                     l1275 00E6  
                   l1267 00E2                     l1259 00DB                     l1285 00F0  
                   l1277 00EA                     l1269 00E3                     l1279 00EB  
                   _ADIF 0066                     ?_isr 0070                     _IOCB 0096  
                   i1l66 0090                     i1l84 012D                     _TXIF 0064  
                   _WPUB 0095                     _main 0141                     btemp 007E  
                   start 000E                    ??_ADC 0072                    ??_isr 0075  
                  ?_main 0070                    _ANSEL 0188                    i1l300 015F  
                  i1l311 0158                    i1l303 0165                    i1l297 0159  
                  _VCFG0 04FC                    _VCFG1 04FD                    u30_20 0035  
                  u30_21 0034                    u31_20 0042                    u31_21 0041  
                  u32_20 004F                    u32_21 004E                    u33_20 005E  
                  u33_21 005D                    _PORTA 0005                    _PORTB 0006  
                  _PORTC 0007                    _PORTD 0008                    _PORTE 0009  
                  u29_20 015F                    u29_21 015E                    _TRISA 0085  
                  _TRISB 0086                    _TRISC 0087                    _TRISD 0088  
                  _TRISE 0089                    _SSPIF 0063                    _TXREG 0019  
           _Banderas_SPI 007C                    _dato1 0058                    _dato2 0056  
                  _dato3 0054                    _setup 00CD                    pclath 000A  
        __end_of_spiInit 011A          __end_of_spiRead 0159                    status 0003  
                  wtemp0 007E          __initialization 0011             __end_of_main 0150  
                 ??_main 0060                   _ADRESH 001E                   ?_setup 0070  
                 _ANSELH 0189                   i1l1301 005A                   i1l1311 0071  
                 i1l1241 0150                   i1l1313 007D                   i1l1305 005F  
                 i1l1251 0126                   i1l1243 0155                   i1l1307 0069  
                 i1l1309 006D                   i1l1239 0159                   i1l1247 0161  
                 i1l1319 0080                   i1l1249 011B                   i1l1353 0088  
                 i1l1291 003D                   i1l1293 0042                   i1l1295 0049  
                 i1l1287 002F                   i1l1297 004F                   i1l1289 0035  
                 i1l1299 0057                   _TRISC3 043B                   _TRISC5 043D  
                 _SSPCON 0014                   _SSPBUF 0013            _ADRESH_CANAL1 007A  
          _ADRESH_CANAL2 005A                   saved_w 007E         __end_of_spiWrite 0166  
              ??_spiInit 005F                ??_spiRead 0070  __end_of__initialization 002B  
         __pcstackCOMMON 0070             __pidataBANK0 0099            __end_of_setup 00FC  
         _OPTION_REGbits 0081               ADC@channel 0074                  ??_setup 0060  
             __pbssBANK0 0054               __pmaintext 0141               __pintentry 0004  
__size_of_spiReceiveWait 0007                  _SSPSTAT 0094                ?_spiWrite 0070  
                __ptext1 00CD                  __ptext2 00FC                  __ptext3 002F  
                __ptext4 0160                  __ptext5 0150                  __ptext6 0159  
                __ptext7 011A             __size_of_ADC 0014             __size_of_isr 006A  
                _spiInit 00FC                  _spiRead 0150     end_of_initialization 002B  
             ??_spiWrite 0070              spiWrite@dat 0070           _spiReceiveWait 0159  
    start_initialization 0011              __end_of_ADC 012E              __end_of_isr 0099  
 __end_of_spiReceiveWait 0160               init_fetch0 012E              __pdataBANK0 0020  
            __pbssCOMMON 007A                ___latbits 0002            __pcstackBANK0 005C  
        ?_spiReceiveWait 0070        __size_of_spiWrite 0006                 ?_spiInit 005C  
               ?_spiRead 0070           __size_of_setup 002F     spiInit@sTransmitEdge 005E  
      interrupt_function 0004                 _PIE1bits 008C       spiInit@sDataSample 005C  
               _PIR1bits 000C               _ADCON0bits 001F               _ADCON1bits 009F  
               _Banderas 007D         __size_of_spiInit 001E         __size_of_spiRead 0009  
          __size_of_main 000F         BCD_DISPLAY@F1449 0040                 _spiWrite 0160  
           spiInit@sType 005F        spiInit@sClockIdle 005D               _INTCONbits 000B  
               init_ram0 0132                 intlevel1 0000         ??_spiReceiveWait 0070  
             _OSCCONbits 008F         BCH_DISPLAY@F1449 0020  
